(lp0
V/fr/mmorpg/encyclopedie/armes/15216-baguette-mallefisk
p1
aV/fr/mmorpg/encyclopedie/armes/15494-pelle-cour-sombre
p2
aV/fr/mmorpg/encyclopedie/armes/8992-faux-maudite-saigneur-guerrier
p3
aV/fr/mmorpg/encyclopedie/armes/15217-marteau-phossile
p4
aV/fr/mmorpg/encyclopedie/armes/15495-arc-necrotique
p5
aV/fr/mmorpg/encyclopedie/armes/15781-marteau-egares
p6
aV/fr/mmorpg/encyclopedie/armes/15218-pelle-nidas
p7
aV/fr/mmorpg/encyclopedie/armes/15496-epee-reine-voleurs
p8
aV/fr/mmorpg/encyclopedie/armes/15782-plumeau-bil
p9
aV/fr/mmorpg/encyclopedie/armes/8993-epee-maudite-saigneur-guerrier
p10
aV/fr/mmorpg/encyclopedie/armes/17586-sabres-atcham
p11
aV/fr/mmorpg/encyclopedie/armes/13896-hache-eriphe
p12
aV/fr/mmorpg/encyclopedie/armes/14084-epee-granduk
p13
aV/fr/mmorpg/encyclopedie/armes/14132-dagues-erhy
p14
aV/fr/mmorpg/encyclopedie/armes/15779-baguette-egares
p15
aV/fr/mmorpg/encyclopedie/armes/17681-arc-chaloeil
p16
aV/fr/mmorpg/encyclopedie/armes/14133-hache-euvale
p17
aV/fr/mmorpg/encyclopedie/armes/14164-arc-honte
p18
aV/fr/mmorpg/encyclopedie/armes/17682-sceptre-roi-joueur
p19
aV/fr/mmorpg/encyclopedie/armes/17683-hache-chaloeil
p20
aV/fr/mmorpg/encyclopedie/armes/15493-dagues-srambad
p21
aV/fr/mmorpg/encyclopedie/armes/14167-masse-ossiale
p22
aV/fr/mmorpg/encyclopedie/armes/12115-epee-gloursonne
p23
aV/fr/mmorpg/encyclopedie/armes/14135-pelle-vice
p24
aV/fr/mmorpg/encyclopedie/armes/14131-dagues-ricol
p25
aV/fr/mmorpg/encyclopedie/armes/14288-batonnet-ronien
p26
aV/fr/mmorpg/encyclopedie/armes/13894-canne-harr
p27
aV/fr/mmorpg/encyclopedie/armes/11753-dague-hirr
p28
aV/fr/mmorpg/encyclopedie/armes/14055-beche-asse
p29
aV/fr/mmorpg/encyclopedie/armes/14156-rapiere-glyphes
p30
aV/fr/mmorpg/encyclopedie/armes/14886-marteau-anciens-steamers
p31
aV/fr/mmorpg/encyclopedie/armes/11763-pelle-fik
p32
aV/fr/mmorpg/encyclopedie/armes/14166-baton-beau
p33
aV/fr/mmorpg/encyclopedie/armes/13119-epee-otomai
p34
aV/fr/mmorpg/encyclopedie/armes/11744-epee-toche
p35
aV/fr/mmorpg/encyclopedie/armes/11756-arc-ahique
p36
aV/fr/mmorpg/encyclopedie/armes/11750-baton-brageut
p37
aV/fr/mmorpg/encyclopedie/armes/11747-marteau-glouragan
p38
aV/fr/mmorpg/encyclopedie/armes/13649-rouleau-patisserie-aermyne
p39
aV/fr/mmorpg/encyclopedie/armes/11761-hache-teroide
p40
aV/fr/mmorpg/encyclopedie/armes/11759-baguette-hique
p41
aV/fr/mmorpg/encyclopedie/armes/13631-marteau-henual
p42
aV/fr/mmorpg/encyclopedie/armes/11514-gresilosceptre
p43
aV/fr/mmorpg/encyclopedie/armes/14289-hache-rot
p44
aV/fr/mmorpg/encyclopedie/armes/9468-pelle-emelaka
p45
aV/fr/mmorpg/encyclopedie/armes/9136-baton-champmanique
p46
aV/fr/mmorpg/encyclopedie/armes/12112-pelle-professeur-xa
p47
aV/fr/mmorpg/encyclopedie/armes/11711-hache-korriandre
p48
aV/fr/mmorpg/encyclopedie/armes/11749-baton-brelle
p49
aV/fr/mmorpg/encyclopedie/armes/11758-baguette-hernelle
p50
aV/fr/mmorpg/encyclopedie/armes/9137-couteaux-champignons
p51
aV/fr/mmorpg/encyclopedie/armes/11746-marteau-reine
p52
aV/fr/mmorpg/encyclopedie/armes/8838-rhizome-tynril
p53
aV/fr/mmorpg/encyclopedie/armes/8931-az-tech
p54
aV/fr/mmorpg/encyclopedie/armes/8925-arc-oleptik
p55
aV/fr/mmorpg/encyclopedie/armes/11947-hache-heleme
p56
aV/fr/mmorpg/encyclopedie/armes/9469-epee-loponeze
p57
aV/fr/mmorpg/encyclopedie/armes/11743-epee-kari
p58
aV/fr/mmorpg/encyclopedie/armes/11755-arc-hetype
p59
aV/fr/mmorpg/encyclopedie/armes/9134-arc-lamelles
p60
aV/fr/mmorpg/encyclopedie/armes/11752-dagues-acantes
p61
aV/fr/mmorpg/encyclopedie/armes/9176-lame-assacre
p62
aV/fr/mmorpg/encyclopedie/armes/11820-pelle-vetik
p63
aV/fr/mmorpg/encyclopedie/armes/9135-baguetterelle
p64
aV/fr/mmorpg/encyclopedie/armes/9117-ougarteau
p65
aV/fr/mmorpg/encyclopedie/armes/8932-kukri-kura
p66
aV/fr/mmorpg/encyclopedie/armes/8616-marteau-minokers
p67
aV/fr/mmorpg/encyclopedie/armes/11762-pelle-dorado
p68
aV/fr/mmorpg/encyclopedie/armes/11757-baguette-nolog
p69
aV/fr/mmorpg/encyclopedie/armes/11742-epee-kadille
p70
aV/fr/mmorpg/encyclopedie/armes/8695-epee-nice
p71
aV/fr/mmorpg/encyclopedie/armes/11751-dagues-imauve
p72
aV/fr/mmorpg/encyclopedie/armes/7189-rod-gerse
p73
aV/fr/mmorpg/encyclopedie/armes/8926-dague-adou
p74
aV/fr/mmorpg/encyclopedie/armes/11754-arc-ontanporin
p75
aV/fr/mmorpg/encyclopedie/armes/12103-arc-guten-tak
p76
aV/fr/mmorpg/encyclopedie/armes/11745-marteau-racle
p77
aV/fr/mmorpg/encyclopedie/armes/12057-thanos
p78
aV/fr/mmorpg/encyclopedie/armes/8935-beche-mel
p79
aV/fr/mmorpg/encyclopedie/armes/6495-baguette-chene-mou
p80
aV/fr/mmorpg/encyclopedie/armes/8927-dagues-eudin
p81
aV/fr/mmorpg/encyclopedie/armes/11760-hache-achinecride
p82
aV/fr/mmorpg/encyclopedie/armes/8094-epee-rilleuse
p83
aV/fr/mmorpg/encyclopedie/armes/12099-baton-prophetes
p84
aV/fr/mmorpg/encyclopedie/armes/11627-arc-tangente
p85
aV/fr/mmorpg/encyclopedie/armes/11630-marteau-r-gnole
p86
aV/fr/mmorpg/encyclopedie/armes/13063-canne-hassukre-edulcoree
p87
aV/fr/mmorpg/encyclopedie/armes/13245-canne-hassukre
p88
aV/fr/mmorpg/encyclopedie/armes/17589-epee-ush
p89
aV/fr/mmorpg/encyclopedie/armes/11629-youyettes
p90
aV/fr/mmorpg/encyclopedie/armes/11632-baguette-hernuement
p91
aV/fr/mmorpg/encyclopedie/armes/8930-fuschia
p92
aV/fr/mmorpg/encyclopedie/armes/8933-hache-sueur-rance
p93
aV/fr/mmorpg/encyclopedie/armes/11633-baton-k-tueuh
p94
aV/fr/mmorpg/encyclopedie/armes/17095-epee-bretteur-celeste
p95
aV/fr/mmorpg/encyclopedie/armes/7195-karnak
p96
aV/fr/mmorpg/encyclopedie/armes/8934-hache-harnee
p97
aV/fr/mmorpg/encyclopedie/armes/8928-dagues-ruik
p98
aV/fr/mmorpg/encyclopedie/armes/8837-baton-maitre-zoth
p99
aV/fr/mmorpg/encyclopedie/armes/9138-hache-lamelles
p100
aV/fr/mmorpg/encyclopedie/armes/11631-marteau-vigie-pirate
p101
aV/fr/mmorpg/encyclopedie/armes/8937-pelle-aigante
p102
aV/fr/mmorpg/encyclopedie/armes/11625-hache-haimenu
p103
aV/fr/mmorpg/encyclopedie/armes/11635-baton-harpirate
p104
aV/fr/mmorpg/encyclopedie/armes/11626-hache-fancrome
p105
aV/fr/mmorpg/encyclopedie/armes/11586-sabre-ben-ripate
p106
aV/fr/mmorpg/encyclopedie/armes/14519-marteau-juge-lou
p107
aV/fr/mmorpg/encyclopedie/armes/8275-sceptre-minotot
p108
aV/fr/mmorpg/encyclopedie/armes/6981-dagues-lassay
p109
aV/fr/mmorpg/encyclopedie/armes/17100-baton-zatoishwan
p110
aV/fr/mmorpg/encyclopedie/armes/12088-baguette-frigostine
p111
aV/fr/mmorpg/encyclopedie/armes/8929-kriss-toubal
p112
aV/fr/mmorpg/encyclopedie/armes/7197-marteau-bleuronne
p113
aV/fr/mmorpg/encyclopedie/armes/8924-arc-chon
p114
aV/fr/mmorpg/encyclopedie/armes/11628-pelle-tonedjone
p115
aV/fr/mmorpg/encyclopedie/armes/7103-xyothine
p116
aV/fr/mmorpg/encyclopedie/armes/8596-griffe-pourpre
p117
aV/fr/mmorpg/encyclopedie/armes/8850-racine-floribonde
p118
aV/fr/mmorpg/encyclopedie/armes/11624-sabre-heutelle
p119
aV/fr/mmorpg/encyclopedie/armes/7176-racine-cithi
p120
aV/fr/mmorpg/encyclopedie/armes/8095-sabre-ayassalama
p121
aV/fr/mmorpg/encyclopedie/armes/6983-dagues-receuses
p122
aV/fr/mmorpg/encyclopedie/armes/7164-arc-hisedaisange
p123
aV/fr/mmorpg/encyclopedie/armes/7213-pelle-rhon
p124
aV/fr/mmorpg/encyclopedie/armes/7158-marteau-lahre
p125
aV/fr/mmorpg/encyclopedie/armes/8096-marteau-mawoque
p126
aV/fr/mmorpg/encyclopedie/armes/16169-baton-chene-mou
p127
aV/fr/mmorpg/encyclopedie/armes/14640-kalypsoton
p128
aV/fr/mmorpg/encyclopedie/armes/8827-hache-guerrier-zoth
p129
aV/fr/mmorpg/encyclopedie/armes/8089-baguette-iots
p130
aV/fr/mmorpg/encyclopedie/armes/8868-poolache
p131
aV/fr/mmorpg/encyclopedie/armes/8849-racine-fecorce
p132
aV/fr/mmorpg/encyclopedie/armes/8936-pelle-shattkitou
p133
aV/fr/mmorpg/encyclopedie/armes/7159-marteau-piniere
p134
aV/fr/mmorpg/encyclopedie/armes/8092-dagues-bouwin
p135
aV/fr/mmorpg/encyclopedie/armes/13583-baguette-grand-glucid
p136
aV/fr/mmorpg/encyclopedie/armes/8091-canne-biere
p137
aV/fr/mmorpg/encyclopedie/armes/8826-marteau-gamine-zoth
p138
aV/fr/mmorpg/encyclopedie/armes/8835-branche-abrakleur-clair
p139
aV/fr/mmorpg/encyclopedie/armes/8417-pelle-gateau
p140
aV/fr/mmorpg/encyclopedie/armes/11634-baton-shamansot
p141
aV/fr/mmorpg/encyclopedie/armes/7162-arc-lavoine
p142
aV/fr/mmorpg/encyclopedie/armes/7199-glaive-iceration
p143
aV/fr/mmorpg/encyclopedie/armes/8104-arc-chtelion
p144
aV/fr/mmorpg/encyclopedie/armes/8097-marteau-xiko
p145
aV/fr/mmorpg/encyclopedie/armes/6521-kelinobranche
p146
aV/fr/mmorpg/encyclopedie/armes/8101-fendoir-tichaud
p147
aV/fr/mmorpg/encyclopedie/armes/8088-baguette-gyver
p148
aV/fr/mmorpg/encyclopedie/armes/8414-dagues-dragoeuf
p149
aV/fr/mmorpg/encyclopedie/armes/7191-sertisseur-ramougre
p150
aV/fr/mmorpg/encyclopedie/armes/8420-pelle-dragoeuf
p151
aV/fr/mmorpg/encyclopedie/armes/7171-baguette-ourderie
p152
aV/fr/mmorpg/encyclopedie/armes/8292-epee-dragoeuf
p153
aV/fr/mmorpg/encyclopedie/armes/7153-marteau-hubohu
p154
aV/fr/mmorpg/encyclopedie/armes/7193-epee-dark-vlad
p155
aV/fr/mmorpg/encyclopedie/armes/8293-hache-dragoeuf
p156
aV/fr/mmorpg/encyclopedie/armes/14274-baton-fracass
p157
aV/fr/mmorpg/encyclopedie/armes/8825-masse-corailleur-magistral
p158
aV/fr/mmorpg/encyclopedie/armes/7368-baguette-houalle
p159
aV/fr/mmorpg/encyclopedie/armes/13848-couteau-mer
p160
aV/fr/mmorpg/encyclopedie/armes/8296-baguette-dragoeuf
p161
aV/fr/mmorpg/encyclopedie/armes/8297-baton-dragoeuf
p162
aV/fr/mmorpg/encyclopedie/armes/7187-jakchir-arc
p163
aV/fr/mmorpg/encyclopedie/armes/7157-marteau-ksain
p164
aV/fr/mmorpg/encyclopedie/armes/8294-marteau-dragoeuf
p165
aV/fr/mmorpg/encyclopedie/armes/7163-arc-huledela
p166
aV/fr/mmorpg/encyclopedie/armes/12084-mourtheau
p167
aV/fr/mmorpg/encyclopedie/armes/8864-kask-arc-go
p168
aV/fr/mmorpg/encyclopedie/armes/6516-dagues-r-hoh
p169
aV/fr/mmorpg/encyclopedie/armes/8103-arc-rainier
p170
aV/fr/mmorpg/encyclopedie/armes/6535-pelle-hikule
p171
aV/fr/mmorpg/encyclopedie/armes/6509-marteau-r-ticolis
p172
aV/fr/mmorpg/encyclopedie/armes/6523-racine-hagogue
p173
aV/fr/mmorpg/encyclopedie/armes/7160-arc-hanne
p174
aV/fr/mmorpg/encyclopedie/armes/7022-baton-sangroku
p175
aV/fr/mmorpg/encyclopedie/armes/3650-dague-regah
p176
aV/fr/mmorpg/encyclopedie/armes/8836-tige-brouture
p177
aV/fr/mmorpg/encyclopedie/armes/8295-arc-dragoeuf
p178
aV/fr/mmorpg/encyclopedie/armes/6536-pelle-mineur-sombre
p179
aV/fr/mmorpg/encyclopedie/armes/6494-baguette-elya-wood
p180
aV/fr/mmorpg/encyclopedie/armes/6510-marteau-kahr
p181
aV/fr/mmorpg/encyclopedie/armes/6522-racine-cinati
p182
aV/fr/mmorpg/encyclopedie/armes/8099-hache-menbien
p183
aV/fr/mmorpg/encyclopedie/armes/6485-arc-chafer-archer
p184
aV/fr/mmorpg/encyclopedie/armes/8419-pelle-moh
p185
aV/fr/mmorpg/encyclopedie/armes/6511-marteau-ridhe
p186
aV/fr/mmorpg/encyclopedie/armes/8090-baton-caraibes
p187
aV/fr/mmorpg/encyclopedie/armes/6518-amrothiline
p188
aV/fr/mmorpg/encyclopedie/armes/7155-marteau-nairedeubrest
p189
aV/fr/mmorpg/encyclopedie/armes/7188-dagues-rhumes
p190
aV/fr/mmorpg/encyclopedie/armes/6984-dagues-apprenti-tueur-bouftons
p191
aV/fr/mmorpg/encyclopedie/armes/7170-baguette-houffe-craitien
p192
aV/fr/mmorpg/encyclopedie/armes/6452-arc-chitecte
p193
aV/fr/mmorpg/encyclopedie/armes/7192-griffe-grizmine
p194
aV/fr/mmorpg/encyclopedie/armes/8100-hache-ticot
p195
aV/fr/mmorpg/encyclopedie/armes/8450-epee-rat-blanc
p196
aV/fr/mmorpg/encyclopedie/armes/8274-hache-minotoror
p197
aV/fr/mmorpg/encyclopedie/armes/3652-baton-marie-aigue
p198
aV/fr/mmorpg/encyclopedie/armes/8444-dagues-rat-noir
p199
aV/fr/mmorpg/encyclopedie/armes/15014-arc-fleche-mauve
p200
aV/fr/mmorpg/encyclopedie/armes/8607-baton-cloutay
p201
aV/fr/mmorpg/encyclopedie/armes/7154-marteau-pouce
p202
aV/fr/mmorpg/encyclopedie/armes/14585-clef-molette
p203
aV/fr/mmorpg/encyclopedie/armes/7181-racine-semilla
p204
aV/fr/mmorpg/encyclopedie/armes/180-baguette-limbes
p205
aV/fr/mmorpg/encyclopedie/armes/7172-baguette-rhon
p206
aV/fr/mmorpg/encyclopedie/armes/7198-razoir-soir
p207
aV/fr/mmorpg/encyclopedie/armes/7156-marteau-ronto
p208
aV/fr/mmorpg/encyclopedie/armes/14584-arc-lequin
p209
aV/fr/mmorpg/encyclopedie/armes/17092-marteau-moon
p210
aV/fr/mmorpg/encyclopedie/armes/7182-racine-hecouanone
p211
aV/fr/mmorpg/encyclopedie/armes/6762-fourbasse-ton
p212
aV/fr/mmorpg/encyclopedie/armes/13329-ratrouille
p213
aV/fr/mmorpg/encyclopedie/armes/7165-baguette-nah
p214
aV/fr/mmorpg/encyclopedie/armes/7185-racine-hecure
p215
aV/fr/mmorpg/encyclopedie/armes/11872-inferno
p216
aV/fr/mmorpg/encyclopedie/armes/7190-dagues-maydhyn-china
p217
aV/fr/mmorpg/encyclopedie/armes/8960-patte-ecaflip
p218
aV/fr/mmorpg/encyclopedie/armes/11873-styx
p219
aV/fr/mmorpg/encyclopedie/armes/8961-patte-ecaflip
p220
aV/fr/mmorpg/encyclopedie/armes/11874-mandrin
p221
aV/fr/mmorpg/encyclopedie/armes/8962-patte-ecaflip
p222
aV/fr/mmorpg/encyclopedie/armes/7161-arc-assin
p223
aV/fr/mmorpg/encyclopedie/armes/11875-will-killson
p224
aV/fr/mmorpg/encyclopedie/armes/8956-patte-ecaflip
p225
aV/fr/mmorpg/encyclopedie/armes/8963-patte-ecaflip
p226
aV/fr/mmorpg/encyclopedie/armes/8957-patte-ecaflip
p227
aV/fr/mmorpg/encyclopedie/armes/8964-patte-ecaflip
p228
aV/fr/mmorpg/encyclopedie/armes/4241-griffe-rose
p229
aV/fr/mmorpg/encyclopedie/armes/8941-patte-ecaflip
p230
aV/fr/mmorpg/encyclopedie/armes/8958-patte-ecaflip
p231
aV/fr/mmorpg/encyclopedie/armes/8965-patte-ecaflip
p232
aV/fr/mmorpg/encyclopedie/armes/6799-lame-chef-bwork
p233
aV/fr/mmorpg/encyclopedie/armes/8959-patte-ecaflip
p234
aV/fr/mmorpg/encyclopedie/armes/8966-patte-ecaflip-parfaite
p235
aV/fr/mmorpg/encyclopedie/armes/6505-marteau-rehadaure
p236
aV/fr/mmorpg/encyclopedie/armes/1511-neuf-queues
p237
aV/fr/mmorpg/encyclopedie/armes/2616-halle-barde
p238
aV/fr/mmorpg/encyclopedie/armes/7037-canne-mamie-bonbon
p239
aV/fr/mmorpg/encyclopedie/armes/7211-hache-yondanwa
p240
aV/fr/mmorpg/encyclopedie/armes/8834-branche-abrakleur-sombre
p241
aV/fr/mmorpg/encyclopedie/armes/8604-epee-doncule
p242
aV/fr/mmorpg/encyclopedie/armes/2615-hache-lookabeer
p243
aV/fr/mmorpg/encyclopedie/armes/7194-arc-anum
p244
aV/fr/mmorpg/encyclopedie/armes/2639-fausse-griffe-ceangal
p245
aV/fr/mmorpg/encyclopedie/armes/8676-epee-pete
p246
aV/fr/mmorpg/encyclopedie/armes/6440-baguette-velue
p247
aV/fr/mmorpg/encyclopedie/armes/6525-baton-feca
p248
aV/fr/mmorpg/encyclopedie/armes/6526-pelle-hebuse
p249
aV/fr/mmorpg/encyclopedie/armes/927-fendeuse-abraknyde-ancestral
p250
aV/fr/mmorpg/encyclopedie/armes/7207-baton-yondanwa
p251
aV/fr/mmorpg/encyclopedie/armes/7203-sabre-yondanwa
p252
aV/fr/mmorpg/encyclopedie/armes/3649-dague-rafeuse
p253
aV/fr/mmorpg/encyclopedie/armes/6439-baguette-irreelle
p254
aV/fr/mmorpg/encyclopedie/armes/3651-dague-lutination
p255
aV/fr/mmorpg/encyclopedie/armes/2341-arc-mech-riorraw
p256
aV/fr/mmorpg/encyclopedie/armes/6507-marteau-terps
p257
aV/fr/mmorpg/encyclopedie/armes/2614-hache-dame-oise
p258
aV/fr/mmorpg/encyclopedie/armes/6484-arc-sram-archer
p259
aV/fr/mmorpg/encyclopedie/armes/7183-racine-huzohide
p260
aV/fr/mmorpg/encyclopedie/armes/12677-baton-daigoro
p261
aV/fr/mmorpg/encyclopedie/armes/6528-pelle-rinage
p262
aV/fr/mmorpg/encyclopedie/armes/6537-pelle-mairhe
p263
aV/fr/mmorpg/encyclopedie/armes/6446-arc-chiduc
p264
aV/fr/mmorpg/encyclopedie/armes/6454-abraton-sombre
p265
aV/fr/mmorpg/encyclopedie/armes/2612-vouge-poisson
p266
aV/fr/mmorpg/encyclopedie/armes/7184-racine-histre
p267
aV/fr/mmorpg/encyclopedie/armes/7178-racine-horodon
p268
aV/fr/mmorpg/encyclopedie/armes/6540-pelle-helabete
p269
aV/fr/mmorpg/encyclopedie/armes/8608-bastonneuze
p270
aV/fr/mmorpg/encyclopedie/armes/8833-masse-corailleur
p271
aV/fr/mmorpg/encyclopedie/armes/4382-pic-glace
p272
aV/fr/mmorpg/encyclopedie/armes/619-baton-maitre-bouftous
p273
aV/fr/mmorpg/encyclopedie/armes/2608-francique-basquaise
p274
aV/fr/mmorpg/encyclopedie/armes/6520-migraine
p275
aV/fr/mmorpg/encyclopedie/armes/6538-pelle-vaidaire
p276
aV/fr/mmorpg/encyclopedie/armes/6438-baguette-molle
p277
aV/fr/mmorpg/encyclopedie/armes/3648-daguette-captain-chafer
p278
aV/fr/mmorpg/encyclopedie/armes/7255-hache-terrdala
p279
aV/fr/mmorpg/encyclopedie/armes/8615-marteau-mato
p280
aV/fr/mmorpg/encyclopedie/armes/7202-sabre-sandanwa
p281
aV/fr/mmorpg/encyclopedie/armes/7210-hache-sandanwa
p282
aV/fr/mmorpg/encyclopedie/armes/3647-thor-boyaux
p283
aV/fr/mmorpg/encyclopedie/armes/233-kaiser
p284
aV/fr/mmorpg/encyclopedie/armes/6512-marteau-nitruhant
p285
aV/fr/mmorpg/encyclopedie/armes/6451-arc-ange
p286
aV/fr/mmorpg/encyclopedie/armes/7169-baguette-hincelle
p287
aV/fr/mmorpg/encyclopedie/armes/8148-marteau-craqueleur-legendaire
p288
aV/fr/mmorpg/encyclopedie/armes/1084-marteau-torts
p289
aV/fr/mmorpg/encyclopedie/armes/8609-geish-arc
p290
aV/fr/mmorpg/encyclopedie/armes/6504-marteau-fantal
p291
aV/fr/mmorpg/encyclopedie/armes/6442-baton-aga-dou
p292
aV/fr/mmorpg/encyclopedie/armes/2606-hachette-savante
p293
aV/fr/mmorpg/encyclopedie/armes/6445-arc-boutant
p294
aV/fr/mmorpg/encyclopedie/armes/6517-dagues-hischantes
p295
aV/fr/mmorpg/encyclopedie/armes/1435-pelle-large
p296
aV/fr/mmorpg/encyclopedie/armes/1739-baguette-affeulante
p297
aV/fr/mmorpg/encyclopedie/armes/1040-lames-sanglantes-ortimus-contrari
p298
aV/fr/mmorpg/encyclopedie/armes/8618-hache-eulouh
p299
aV/fr/mmorpg/encyclopedie/armes/8300-baton-shika
p300
aV/fr/mmorpg/encyclopedie/armes/1085-marteau-falistos
p301
aV/fr/mmorpg/encyclopedie/armes/8610-kikoularc
p302
aV/fr/mmorpg/encyclopedie/armes/6519-baguette-kouartz
p303
aV/fr/mmorpg/encyclopedie/armes/2604-bardiche-milicien
p304
aV/fr/mmorpg/encyclopedie/armes/8878-kidorteau
p305
aV/fr/mmorpg/encyclopedie/armes/7206-baton-sandanwa
p306
aV/fr/mmorpg/encyclopedie/armes/7257-sabre-feudala
p307
aV/fr/mmorpg/encyclopedie/armes/6769-baton-farle
p308
aV/fr/mmorpg/encyclopedie/armes/4242-eventail-tranchant
p309
aV/fr/mmorpg/encyclopedie/armes/5999-baguette-helles
p310
aV/fr/mmorpg/encyclopedie/armes/8612-bidjiz
p311
aV/fr/mmorpg/encyclopedie/armes/923-fendeuse-abraknyde
p312
aV/fr/mmorpg/encyclopedie/armes/8605-epee-zervatif
p313
aV/fr/mmorpg/encyclopedie/armes/7890-baton-koulosse
p314
aV/fr/mmorpg/encyclopedie/armes/220-chakra-style
p315
aV/fr/mmorpg/encyclopedie/armes/250-ares
p316
aV/fr/mmorpg/encyclopedie/armes/1128-surpuissant-arc-roi-borins
p317
aV/fr/mmorpg/encyclopedie/armes/6539-pelle-gicque
p318
aV/fr/mmorpg/encyclopedie/armes/1146-excellente-baguette-meneuse
p319
aV/fr/mmorpg/encyclopedie/armes/9754-hache-per-ge
p320
aV/fr/mmorpg/encyclopedie/armes/6453-arc-pecheur
p321
aV/fr/mmorpg/encyclopedie/armes/8613-pelle-minstere
p322
aV/fr/mmorpg/encyclopedie/armes/9717-dague-ho-rille
p323
aV/fr/mmorpg/encyclopedie/armes/9749-baguette-euh-laille-fe
p324
aV/fr/mmorpg/encyclopedie/armes/9710-epee-cerp-teurh
p325
aV/fr/mmorpg/encyclopedie/armes/9728-pelle-hi-moun
p326
aV/fr/mmorpg/encyclopedie/armes/9759-baton-lap-louz
p327
aV/fr/mmorpg/encyclopedie/armes/6821-lame-chef-crocodaille
p328
aV/fr/mmorpg/encyclopedie/armes/9736-marteau-hok
p329
aV/fr/mmorpg/encyclopedie/armes/2440-epee-royale-bouftou
p330
aV/fr/mmorpg/encyclopedie/armes/9744-arc-ko-neun
p331
aV/fr/mmorpg/encyclopedie/armes/1083-puissant-marteau-pospodrol
p332
aV/fr/mmorpg/encyclopedie/armes/8599-griffettes
p333
aV/fr/mmorpg/encyclopedie/armes/8611-bagdette-cafe
p334
aV/fr/mmorpg/encyclopedie/armes/2638-griffe-aiguisee
p335
aV/fr/mmorpg/encyclopedie/armes/204-kryst-o-boul
p336
aV/fr/mmorpg/encyclopedie/armes/1039-hypnotique-dague-fourbesque
p337
aV/fr/mmorpg/encyclopedie/armes/8598-dagues-ruyere
p338
aV/fr/mmorpg/encyclopedie/armes/6496-baguette-racine-abraknyde-sombre
p339
aV/fr/mmorpg/encyclopedie/armes/200-god-rod
p340
aV/fr/mmorpg/encyclopedie/armes/8614-pelle-ripe
p341
aV/fr/mmorpg/encyclopedie/armes/234-ragnarok
p342
aV/fr/mmorpg/encyclopedie/armes/2600-coupeuse-sifflet
p343
aV/fr/mmorpg/encyclopedie/armes/7201-sabre-nidanwa
p344
aV/fr/mmorpg/encyclopedie/armes/2603-trancheuse-partie
p345
aV/fr/mmorpg/encyclopedie/armes/1145-grande-baguette-meneuse
p346
aV/fr/mmorpg/encyclopedie/armes/1082-grand-marteau-pospodrol
p347
aV/fr/mmorpg/encyclopedie/armes/1362-pieu-vampirique
p348
aV/fr/mmorpg/encyclopedie/armes/1053-imposante-pelle-woukuis
p349
aV/fr/mmorpg/encyclopedie/armes/219-blessdags
p350
aV/fr/mmorpg/encyclopedie/armes/1651-cutter-sanglant
p351
aV/fr/mmorpg/encyclopedie/armes/1127-elegant-arc-roi-borins
p352
aV/fr/mmorpg/encyclopedie/armes/6497-balgourde-clairettes
p353
aV/fr/mmorpg/encyclopedie/armes/1038-superbe-dague-fourbesque
p354
aV/fr/mmorpg/encyclopedie/armes/7168-baguette-hylique
p355
aV/fr/mmorpg/encyclopedie/armes/7256-dagues-aerdala
p356
aV/fr/mmorpg/encyclopedie/armes/515-boulgourde-clairieres
p357
aV/fr/mmorpg/encyclopedie/armes/8617-hache-ebbah
p358
aV/fr/mmorpg/encyclopedie/armes/7205-baton-nidanwa
p359
aV/fr/mmorpg/encyclopedie/armes/620-decoupeuse-kralamoure
p360
aV/fr/mmorpg/encyclopedie/armes/8005-arc-koalak
p361
aV/fr/mmorpg/encyclopedie/armes/1144-baguette-meneuse
p362
aV/fr/mmorpg/encyclopedie/armes/11421-sarbacane-kabroule
p363
aV/fr/mmorpg/encyclopedie/armes/9709-epee-rnoh-hel
p364
aV/fr/mmorpg/encyclopedie/armes/9716-dague-haih-ri-don
p365
aV/fr/mmorpg/encyclopedie/armes/1433-pelle-secutrice
p366
aV/fr/mmorpg/encyclopedie/armes/1162-excellent-baton-rois
p367
aV/fr/mmorpg/encyclopedie/armes/17509-epee-julith
p368
aV/fr/mmorpg/encyclopedie/armes/9748-baguette-ta-lay
p369
aV/fr/mmorpg/encyclopedie/armes/6492-baton-wobot
p370
aV/fr/mmorpg/encyclopedie/armes/1574-decoupeuse-yench
p371
aV/fr/mmorpg/encyclopedie/armes/970-baton-wa-wabbit
p372
aV/fr/mmorpg/encyclopedie/armes/1126-arc-roi-borins
p373
aV/fr/mmorpg/encyclopedie/armes/17493-nunchaku-1001-griffes
p374
aV/fr/mmorpg/encyclopedie/armes/9727-pelle-rail-zeur
p375
aV/fr/mmorpg/encyclopedie/armes/9758-baton-lav-heur
p376
aV/fr/mmorpg/encyclopedie/armes/1475-zulie-lame
p377
aV/fr/mmorpg/encyclopedie/armes/9735-marteau-bo-gan
p378
aV/fr/mmorpg/encyclopedie/armes/9743-arc-heub-huz
p379
aV/fr/mmorpg/encyclopedie/armes/1081-marteau-pospodrol
p380
aV/fr/mmorpg/encyclopedie/armes/1431-grande-pelle-mechba
p381
aV/fr/mmorpg/encyclopedie/armes/9753-hache-hev-leu
p382
aV/fr/mmorpg/encyclopedie/armes/7209-hache-nidanwa
p383
aV/fr/mmorpg/encyclopedie/armes/8118-baguette-scarabosse-dore
p384
aV/fr/mmorpg/encyclopedie/armes/1359-tison-fute
p385
aV/fr/mmorpg/encyclopedie/armes/1052-grande-pelle-woukuis
p386
aV/fr/mmorpg/encyclopedie/armes/270-xaveur
p387
aV/fr/mmorpg/encyclopedie/armes/1650-grand-cutter
p388
aV/fr/mmorpg/encyclopedie/armes/335-baton-bwork-mage
p389
aV/fr/mmorpg/encyclopedie/armes/1037-dague-fourbesque
p390
aV/fr/mmorpg/encyclopedie/armes/6491-tronknydum
p391
aV/fr/mmorpg/encyclopedie/armes/2601-hache-darsson
p392
aV/fr/mmorpg/encyclopedie/armes/11365-baton-piggy-paupe
p393
aV/fr/mmorpg/encyclopedie/armes/6503-marteau-polpoulette
p394
aV/fr/mmorpg/encyclopedie/armes/12673-faux-danioule
p395
aV/fr/mmorpg/encyclopedie/armes/1124-arc-cristal-pur
p396
aV/fr/mmorpg/encyclopedie/armes/12018-kwakwalame
p397
aV/fr/mmorpg/encyclopedie/armes/1035-puissante-lame-fon
p398
aV/fr/mmorpg/encyclopedie/armes/1143-petite-baguette-meneuse
p399
aV/fr/mmorpg/encyclopedie/armes/657-baton-maitre-tofus
p400
aV/fr/mmorpg/encyclopedie/armes/201-hook
p401
aV/fr/mmorpg/encyclopedie/armes/1427-pelle-zebuth
p402
aV/fr/mmorpg/encyclopedie/armes/12505-baton-pandalida
p403
aV/fr/mmorpg/encyclopedie/armes/1140-traumatisante-baguette-houvette
p404
aV/fr/mmorpg/encyclopedie/armes/11349-epee-ougicle
p405
aV/fr/mmorpg/encyclopedie/armes/7040-arc-kuri
p406
aV/fr/mmorpg/encyclopedie/armes/1080-petit-marteau-pospodrol
p407
aV/fr/mmorpg/encyclopedie/armes/1383-marteau-re-thu
p408
aV/fr/mmorpg/encyclopedie/armes/6513-marteau-refacteur
p409
aV/fr/mmorpg/encyclopedie/armes/8130-hache-mulou
p410
aV/fr/mmorpg/encyclopedie/armes/6524-racine-sauvageonne
p411
aV/fr/mmorpg/encyclopedie/armes/1125-petit-arc-roi-borins
p412
aV/fr/mmorpg/encyclopedie/armes/11077-marteau-lonne
p413
aV/fr/mmorpg/encyclopedie/armes/12026-marteau-mirh
p414
aV/fr/mmorpg/encyclopedie/armes/1051-pelle-woukuis
p415
aV/fr/mmorpg/encyclopedie/armes/2597-hache-breche
p416
aV/fr/mmorpg/encyclopedie/armes/1393-matronome
p417
aV/fr/mmorpg/encyclopedie/armes/12038-dagues-hichete
p418
aV/fr/mmorpg/encyclopedie/armes/1054-cruelle-pelle-truelle
p419
aV/fr/mmorpg/encyclopedie/armes/2066-baton-kanigrou
p420
aV/fr/mmorpg/encyclopedie/armes/10858-baguette-kloug
p421
aV/fr/mmorpg/encyclopedie/armes/1036-petite-dague-fourbesque
p422
aV/fr/mmorpg/encyclopedie/armes/13019-megarteau-feline
p423
aV/fr/mmorpg/encyclopedie/armes/202-razielle
p424
aV/fr/mmorpg/encyclopedie/armes/1131-imposante-baguette-eglise
p425
aV/fr/mmorpg/encyclopedie/armes/1164-grand-baton-rois
p426
aV/fr/mmorpg/encyclopedie/armes/1639-immortelle-etoile-soir
p427
aV/fr/mmorpg/encyclopedie/armes/3356-pelle-doudesque
p428
aV/fr/mmorpg/encyclopedie/armes/1034-grande-lame-fon
p429
aV/fr/mmorpg/encyclopedie/armes/6527-pelle-musicale
p430
aV/fr/mmorpg/encyclopedie/armes/1352-arc-boo
p431
aV/fr/mmorpg/encyclopedie/armes/1641-cutter
p432
aV/fr/mmorpg/encyclopedie/armes/12030-baton-logram
p433
aV/fr/mmorpg/encyclopedie/armes/10857-marteau-klueme
p434
aV/fr/mmorpg/encyclopedie/armes/1079-puissante-masse-aj-taye
p435
aV/fr/mmorpg/encyclopedie/armes/181-baguette-cieux
p436
aV/fr/mmorpg/encyclopedie/armes/2595-hache-pierre
p437
aV/fr/mmorpg/encyclopedie/armes/11353-baton-karotz
p438
aV/fr/mmorpg/encyclopedie/armes/6508-marteau-pinambour
p439
aV/fr/mmorpg/encyclopedie/armes/9747-baguette-dar
p440
aV/fr/mmorpg/encyclopedie/armes/1123-arc-cristal-translucide
p441
aV/fr/mmorpg/encyclopedie/armes/333-baguette-deuh-pain
p442
aV/fr/mmorpg/encyclopedie/armes/9731-marteau-reuh-deuh-piz
p443
aV/fr/mmorpg/encyclopedie/armes/13089-pelle-stroud
p444
aV/fr/mmorpg/encyclopedie/armes/1132-baguette-ninnin
p445
aV/fr/mmorpg/encyclopedie/armes/1049-puissante-pelle-melle
p446
aV/fr/mmorpg/encyclopedie/armes/1157-omniscient-baton-boule-voyante
p447
aV/fr/mmorpg/encyclopedie/armes/1436-pelle-ikan
p448
aV/fr/mmorpg/encyclopedie/armes/9726-pelle-ag-heuze
p449
aV/fr/mmorpg/encyclopedie/armes/9757-baton-boh
p450
aV/fr/mmorpg/encyclopedie/armes/9742-arc-tar-huss
p451
aV/fr/mmorpg/encyclopedie/armes/10899-baton-manitou-zoth
p452
aV/fr/mmorpg/encyclopedie/armes/12864-epee-glutine-nowel
p453
aV/fr/mmorpg/encyclopedie/armes/9713-dague-hi-mov
p454
aV/fr/mmorpg/encyclopedie/armes/9752-hache-pi-veuh-nin
p455
aV/fr/mmorpg/encyclopedie/armes/1139-grande-baguette-houvette
p456
aV/fr/mmorpg/encyclopedie/armes/9708-epee-dal-douss
p457
aV/fr/mmorpg/encyclopedie/armes/11857-pelle-stroud-emoussee
p458
aV/fr/mmorpg/encyclopedie/armes/12203-marteau-percimol
p459
aV/fr/mmorpg/encyclopedie/armes/3357-marteau-tape-doigts
p460
aV/fr/mmorpg/encyclopedie/armes/1050-petite-pelle-woukuis
p461
aV/fr/mmorpg/encyclopedie/armes/11306-epee-tillante
p462
aV/fr/mmorpg/encyclopedie/armes/1354-arc-hick
p463
aV/fr/mmorpg/encyclopedie/armes/1638-brillante-etoile-soir
p464
aV/fr/mmorpg/encyclopedie/armes/1033-lame-fon
p465
aV/fr/mmorpg/encyclopedie/armes/1360-hyldegarde
p466
aV/fr/mmorpg/encyclopedie/armes/1075-imposant-marteau-outar
p467
aV/fr/mmorpg/encyclopedie/armes/1116-arc-dit-keha-nouvelle-version
p468
aV/fr/mmorpg/encyclopedie/armes/10856-hache-hulkrap
p469
aV/fr/mmorpg/encyclopedie/armes/1078-grande-masse-aj-taye
p470
aV/fr/mmorpg/encyclopedie/armes/11983-sceptre-kanniboul-ebil
p471
aV/fr/mmorpg/encyclopedie/armes/12886-gladiaton
p472
aV/fr/mmorpg/encyclopedie/armes/12042-baton-haku
p473
aV/fr/mmorpg/encyclopedie/armes/478-elagueuse-charme
p474
aV/fr/mmorpg/encyclopedie/armes/13296-pelle-perpote
p475
aV/fr/mmorpg/encyclopedie/armes/341-dagues-eurfolles
p476
aV/fr/mmorpg/encyclopedie/armes/1048-grande-pelle-melle
p477
aV/fr/mmorpg/encyclopedie/armes/1163-baton-rois
p478
aV/fr/mmorpg/encyclopedie/armes/6982-dagues-honies
p479
aV/fr/mmorpg/encyclopedie/armes/7204-baton-shodanwa
p480
aV/fr/mmorpg/encyclopedie/armes/640-arc-rivages
p481
aV/fr/mmorpg/encyclopedie/armes/1479-twote-carton
p482
aV/fr/mmorpg/encyclopedie/armes/1640-petit-cutter
p483
aV/fr/mmorpg/encyclopedie/armes/1108-lourde-baguette-eglise
p484
aV/fr/mmorpg/encyclopedie/armes/2544-corbalame
p485
aV/fr/mmorpg/encyclopedie/armes/11357-dague-grouillot
p486
aV/fr/mmorpg/encyclopedie/armes/2417-abraton
p487
aV/fr/mmorpg/encyclopedie/armes/928-lame-ogralimde
p488
aV/fr/mmorpg/encyclopedie/armes/1136-indispensable-baguette-pans
p489
aV/fr/mmorpg/encyclopedie/armes/1430-pelle-mechba
p490
aV/fr/mmorpg/encyclopedie/armes/1138-baguette-houvette
p491
aV/fr/mmorpg/encyclopedie/armes/12022-epee-tracon
p492
aV/fr/mmorpg/encyclopedie/armes/1372-dagues-aj-deh
p493
aV/fr/mmorpg/encyclopedie/armes/1637-etoile-soir
p494
aV/fr/mmorpg/encyclopedie/armes/16071-baton-pain-epice
p495
aV/fr/mmorpg/encyclopedie/armes/1032-petite-lame-fon
p496
aV/fr/mmorpg/encyclopedie/armes/1074-grand-marteau-outar
p497
aV/fr/mmorpg/encyclopedie/armes/1122-arc-cristal
p498
aV/fr/mmorpg/encyclopedie/armes/13295-baton-rouge
p499
aV/fr/mmorpg/encyclopedie/armes/1077-masse-aj-taye
p500
aV/fr/mmorpg/encyclopedie/armes/10630-baton-gobeuf
p501
aV/fr/mmorpg/encyclopedie/armes/11361-arc-kubitus
p502
aV/fr/mmorpg/encyclopedie/armes/7254-baton-akwadala
p503
aV/fr/mmorpg/encyclopedie/armes/1071-redoutable-masse-tmosfer
p504
aV/fr/mmorpg/encyclopedie/armes/13092-marteau-chafer-draugr
p505
aV/fr/mmorpg/encyclopedie/armes/7167-baguette-cetera
p506
aV/fr/mmorpg/encyclopedie/armes/1361-baguette-sylvien
p507
aV/fr/mmorpg/encyclopedie/armes/1045-magnifique-pelle-bois-dormant
p508
aV/fr/mmorpg/encyclopedie/armes/1115-arc-dit-keha-version-speciale
p509
aV/fr/mmorpg/encyclopedie/armes/1154-grand-baton-boule-voyante
p510
aV/fr/mmorpg/encyclopedie/armes/1047-pelle-melle
p511
aV/fr/mmorpg/encyclopedie/armes/9657-baton-poupinateur
p512
aV/fr/mmorpg/encyclopedie/armes/2593-elagueuse-oliviolet
p513
aV/fr/mmorpg/encyclopedie/armes/10622-epee-gruet
p514
aV/fr/mmorpg/encyclopedie/armes/1161-simple-baton-rois
p515
aV/fr/mmorpg/encyclopedie/armes/7882-marteau-boufcoul
p516
aV/fr/mmorpg/encyclopedie/armes/2415-kwaklame-flammes
p517
aV/fr/mmorpg/encyclopedie/armes/10626-epee-kocksis
p518
aV/fr/mmorpg/encyclopedie/armes/6750-kwaklame-glace
p519
aV/fr/mmorpg/encyclopedie/armes/10634-arc-laikteur
p520
aV/fr/mmorpg/encyclopedie/armes/12034-epee-kalkaneus
p521
aV/fr/mmorpg/encyclopedie/armes/10642-pioche-grizou
p522
aV/fr/mmorpg/encyclopedie/armes/6751-kwaklame-terre
p523
aV/fr/mmorpg/encyclopedie/armes/6752-kwaklame-vent
p524
aV/fr/mmorpg/encyclopedie/armes/1029-large-couteau-stek
p525
aV/fr/mmorpg/encyclopedie/armes/1353-arc-poulie-sciee
p526
aV/fr/mmorpg/encyclopedie/armes/10187-dagues-noke
p527
aV/fr/mmorpg/encyclopedie/armes/1107-baguette-eglise
p528
aV/fr/mmorpg/encyclopedie/armes/10638-epee-rekto-topi
p529
aV/fr/mmorpg/encyclopedie/armes/9730-marteau-mah-turj
p530
aV/fr/mmorpg/encyclopedie/armes/1363-baton-tont-ata
p531
aV/fr/mmorpg/encyclopedie/armes/1371-dagues-eulasse
p532
aV/fr/mmorpg/encyclopedie/armes/1636-petite-etoile-soir
p533
aV/fr/mmorpg/encyclopedie/armes/15990-baguette-rikiki
p534
aV/fr/mmorpg/encyclopedie/armes/8513-scalpel-bworknroll
p535
aV/fr/mmorpg/encyclopedie/armes/9725-pelle-ass-tik
p536
aV/fr/mmorpg/encyclopedie/armes/9756-baton-bouk-tou
p537
aV/fr/mmorpg/encyclopedie/armes/7200-sabre-shodanwa
p538
aV/fr/mmorpg/encyclopedie/armes/1031-dagues-cruelles-elorie-entuwan
p539
aV/fr/mmorpg/encyclopedie/armes/16033-epee-halouine
p540
aV/fr/mmorpg/encyclopedie/armes/17492-baton-monarque
p541
aV/fr/mmorpg/encyclopedie/armes/1070-longue-masse-tmosfer
p542
aV/fr/mmorpg/encyclopedie/armes/9741-arc-hord-eon
p543
aV/fr/mmorpg/encyclopedie/armes/320-baton-puissant-tabi
p544
aV/fr/mmorpg/encyclopedie/armes/1367-baton-dina-dit-mythe
p545
aV/fr/mmorpg/encyclopedie/armes/65-goultard
p546
aV/fr/mmorpg/encyclopedie/armes/1135-grande-baguette-pans
p547
aV/fr/mmorpg/encyclopedie/armes/10829-kamapeche
p548
aV/fr/mmorpg/encyclopedie/armes/1073-marteau-outar
p549
aV/fr/mmorpg/encyclopedie/armes/11366-epee-rapiat
p550
aV/fr/mmorpg/encyclopedie/armes/7110-baguette-larvesque
p551
aV/fr/mmorpg/encyclopedie/armes/9712-dague-hi-bol
p552
aV/fr/mmorpg/encyclopedie/armes/9751-hache-pira-teur
p553
aV/fr/mmorpg/encyclopedie/armes/1137-discrete-baguette-houvette
p554
aV/fr/mmorpg/encyclopedie/armes/347-rhizome-dore
p555
aV/fr/mmorpg/encyclopedie/armes/11041-epee-hondbaz
p556
aV/fr/mmorpg/encyclopedie/armes/9707-epee-hi-zan
p557
aV/fr/mmorpg/encyclopedie/armes/1044-grande-pelle-bois-dormant
p558
aV/fr/mmorpg/encyclopedie/armes/1355-arc-hidsad
p559
aV/fr/mmorpg/encyclopedie/armes/9690-gigantesque-pierre-ame-parfaite
p560
aV/fr/mmorpg/encyclopedie/armes/9746-baguette-stror-di-ner
p561
aV/fr/mmorpg/encyclopedie/armes/9926-hache-tereau-hache
p562
aV/fr/mmorpg/encyclopedie/armes/900-puissantes-dagues-eguisees
p563
aV/fr/mmorpg/encyclopedie/armes/1620-abrarc
p564
aV/fr/mmorpg/encyclopedie/armes/2592-coupeuse-bombu
p565
aV/fr/mmorpg/encyclopedie/armes/10959-pik-epik-corbeau-noir
p566
aV/fr/mmorpg/encyclopedie/armes/1114-arc-dit-keha-version-standard
p567
aV/fr/mmorpg/encyclopedie/armes/1076-petite-masse-aj-taye
p568
aV/fr/mmorpg/encyclopedie/armes/1046-petite-pelle-melle
p569
aV/fr/mmorpg/encyclopedie/armes/17494-epee-garde-royal
p570
aV/fr/mmorpg/encyclopedie/armes/1028-grand-couteau-stek
p571
aV/fr/mmorpg/encyclopedie/armes/1112-arc-royal-corne-bouftou
p572
aV/fr/mmorpg/encyclopedie/armes/9938-sabroh
p573
aV/fr/mmorpg/encyclopedie/armes/6957-lame-craqueleur
p574
aV/fr/mmorpg/encyclopedie/armes/319-baton-grand-tabi
p575
aV/fr/mmorpg/encyclopedie/armes/9939-chaplanne
p576
aV/fr/mmorpg/encyclopedie/armes/1043-pelle-bois-dormant
p577
aV/fr/mmorpg/encyclopedie/armes/1151-enorme-baton-dakn
p578
aV/fr/mmorpg/encyclopedie/armes/1121-arc-cristal-opaque
p579
aV/fr/mmorpg/encyclopedie/armes/1069-masse-tmosfer
p580
aV/fr/mmorpg/encyclopedie/armes/7208-hache-shodanwa
p581
aV/fr/mmorpg/encyclopedie/armes/592-corde-ivan-nowe
p582
aV/fr/mmorpg/encyclopedie/armes/1072-petit-marteau-outar
p583
aV/fr/mmorpg/encyclopedie/armes/1105-petite-baguette-eglise
p584
aV/fr/mmorpg/encyclopedie/armes/899-grandes-dagues-eguisees
p585
aV/fr/mmorpg/encyclopedie/armes/1147-baton-fausse-magie
p586
aV/fr/mmorpg/encyclopedie/armes/1357-daguette
p587
aV/fr/mmorpg/encyclopedie/armes/1404-marteau-toh-lo
p588
aV/fr/mmorpg/encyclopedie/armes/1134-baguette-pans
p589
aV/fr/mmorpg/encyclopedie/armes/1027-couteau-stek
p590
aV/fr/mmorpg/encyclopedie/armes/1041-epee-cassee-chevalier-malchanceux
p591
aV/fr/mmorpg/encyclopedie/armes/9191-epee-pym
p592
aV/fr/mmorpg/encyclopedie/armes/1376-hache-heuvante
p593
aV/fr/mmorpg/encyclopedie/armes/1098-arc-lourd-corne-bouftou
p594
aV/fr/mmorpg/encyclopedie/armes/1153-baton-boule-voyante
p595
aV/fr/mmorpg/encyclopedie/armes/1379-scrounnchhh
p596
aV/fr/mmorpg/encyclopedie/armes/2637-griffe
p597
aV/fr/mmorpg/encyclopedie/armes/791-abraknydi-vivitus
p598
aV/fr/mmorpg/encyclopedie/armes/919-dagues-ancestrales
p599
aV/fr/mmorpg/encyclopedie/armes/1058-effrayante-pelle-koutoulou
p600
aV/fr/mmorpg/encyclopedie/armes/1042-petite-pelle-bois-dormant
p601
aV/fr/mmorpg/encyclopedie/armes/1113-arc-dit-keha-version-soldee
p602
aV/fr/mmorpg/encyclopedie/armes/658-baton-maitre-tabis
p603
aV/fr/mmorpg/encyclopedie/armes/1068-petite-masse-tmosfer
p604
aV/fr/mmorpg/encyclopedie/armes/318-baton-tabi
p605
aV/fr/mmorpg/encyclopedie/armes/469-baguette-racine-abraknyde
p606
aV/fr/mmorpg/encyclopedie/armes/66-criniere-badoul
p607
aV/fr/mmorpg/encyclopedie/armes/10975-epee-phong-huss
p608
aV/fr/mmorpg/encyclopedie/armes/1150-gros-baton-dakn
p609
aV/fr/mmorpg/encyclopedie/armes/1369-lames-table
p610
aV/fr/mmorpg/encyclopedie/armes/1120-arc-ecologique
p611
aV/fr/mmorpg/encyclopedie/armes/456-tueuse-chenes
p612
aV/fr/mmorpg/encyclopedie/armes/898-dagues-eguisees
p613
aV/fr/mmorpg/encyclopedie/armes/674-fendeuse-merisier
p614
aV/fr/mmorpg/encyclopedie/armes/336-baton-grand-pa-wabbit
p615
aV/fr/mmorpg/encyclopedie/armes/9417-pailleton
p616
aV/fr/mmorpg/encyclopedie/armes/1026-petit-couteau-stek
p617
aV/fr/mmorpg/encyclopedie/armes/1097-arc-corne-bouftou
p618
aV/fr/mmorpg/encyclopedie/armes/273-corde-yamato
p619
aV/fr/mmorpg/encyclopedie/armes/1057-grande-pelle-koutoulou
p620
aV/fr/mmorpg/encyclopedie/armes/484-puissante-pelle-teuze
p621
aV/fr/mmorpg/encyclopedie/armes/10127-baton-bandit-baroudeur
p622
aV/fr/mmorpg/encyclopedie/armes/1364-baton-oubli
p623
aV/fr/mmorpg/encyclopedie/armes/1504-dagues-o-bert
p624
aV/fr/mmorpg/encyclopedie/armes/9724-pelle-rin
p625
aV/fr/mmorpg/encyclopedie/armes/9755-baton-bah-pik
p626
aV/fr/mmorpg/encyclopedie/armes/436-baton-racine-abraknyde
p627
aV/fr/mmorpg/encyclopedie/armes/1133-petite-baguette-pans
p628
aV/fr/mmorpg/encyclopedie/armes/1373-rasoir-infernal
p629
aV/fr/mmorpg/encyclopedie/armes/1429-petite-pelle-mechba
p630
aV/fr/mmorpg/encyclopedie/armes/17525-bouquet-roses-demoniaques
p631
aV/fr/mmorpg/encyclopedie/armes/9688-grande-pierre-ame-parfaite
p632
aV/fr/mmorpg/encyclopedie/armes/1374-dagues-tylo
p633
aV/fr/mmorpg/encyclopedie/armes/2640-baton-carnivore
p634
aV/fr/mmorpg/encyclopedie/armes/1104-baguette-heure
p635
aV/fr/mmorpg/encyclopedie/armes/1351-arc-xueluom
p636
aV/fr/mmorpg/encyclopedie/armes/9711-dague-hi-don
p637
aV/fr/mmorpg/encyclopedie/armes/17287-pelle-agence-touriste
p638
aV/fr/mmorpg/encyclopedie/armes/9729-marteau-stoye
p639
aV/fr/mmorpg/encyclopedie/armes/9750-hache-hich-ke-bab
p640
aV/fr/mmorpg/encyclopedie/armes/9706-epee-ta-rad
p641
aV/fr/mmorpg/encyclopedie/armes/897-petites-dagues-eguisees
p642
aV/fr/mmorpg/encyclopedie/armes/1067-imposant-marteau-r-unique
p643
aV/fr/mmorpg/encyclopedie/armes/10125-arc-bandit-archer
p644
aV/fr/mmorpg/encyclopedie/armes/9745-baguette-hoh
p645
aV/fr/mmorpg/encyclopedie/armes/317-baton-petit-tabi
p646
aV/fr/mmorpg/encyclopedie/armes/332-arc-jeanne
p647
aV/fr/mmorpg/encyclopedie/armes/9739-arc-plass-tik
p648
aV/fr/mmorpg/encyclopedie/armes/10126-epee-bandit-fine-lame
p649
aV/fr/mmorpg/encyclopedie/armes/10133-baguette-bandit-ensorceleur
p650
aV/fr/mmorpg/encyclopedie/armes/10962-baton-rapine
p651
aV/fr/mmorpg/encyclopedie/armes/10979-marteau-hectaupe
p652
aV/fr/mmorpg/encyclopedie/armes/218-bashers
p653
aV/fr/mmorpg/encyclopedie/armes/296-pelle-craqueleur
p654
aV/fr/mmorpg/encyclopedie/armes/1149-baton-dakn
p655
aV/fr/mmorpg/encyclopedie/armes/483-grande-pelle-teuze
p656
aV/fr/mmorpg/encyclopedie/armes/832-baguette-intelligence
p657
aV/fr/mmorpg/encyclopedie/armes/1096-petit-arc-corne-bouftou
p658
aV/fr/mmorpg/encyclopedie/armes/1368-lance-110
p659
aV/fr/mmorpg/encyclopedie/armes/742-baton-cornu
p660
aV/fr/mmorpg/encyclopedie/armes/272-nomoon
p661
aV/fr/mmorpg/encyclopedie/armes/1056-pelle-koutoulou
p662
aV/fr/mmorpg/encyclopedie/armes/1152-petit-baton-boule-voyante
p663
aV/fr/mmorpg/encyclopedie/armes/1378-francisque-breles
p664
aV/fr/mmorpg/encyclopedie/armes/782-agride
p665
aV/fr/mmorpg/encyclopedie/armes/329-arc-triomphe
p666
aV/fr/mmorpg/encyclopedie/armes/482-pelle-teuze
p667
aV/fr/mmorpg/encyclopedie/armes/237-sargasse
p668
aV/fr/mmorpg/encyclopedie/armes/339-lame-chafer
p669
aV/fr/mmorpg/encyclopedie/armes/896-dagues-sylvestres
p670
aV/fr/mmorpg/encyclopedie/armes/1066-grand-marteau-r-unique
p671
aV/fr/mmorpg/encyclopedie/armes/7173-baguette-rangleuse
p672
aV/fr/mmorpg/encyclopedie/armes/9403-masse-o-dard
p673
aV/fr/mmorpg/encyclopedie/armes/7173-baguette-rangleuse
p674
aV/fr/mmorpg/encyclopedie/armes/55-puissante-epee-alle
p675
aV/fr/mmorpg/encyclopedie/armes/824-epee-puissant-chevalier
p676
aV/fr/mmorpg/encyclopedie/armes/827-lame-puissant-bwork
p677
aV/fr/mmorpg/encyclopedie/armes/455-marteau-aurore
p678
aV/fr/mmorpg/encyclopedie/armes/7212-trancheuse-bambou
p679
aV/fr/mmorpg/encyclopedie/armes/1030-queues-chatons
p680
aV/fr/mmorpg/encyclopedie/armes/676-mangeuse-erable
p681
aV/fr/mmorpg/encyclopedie/armes/1055-petite-pelle-koutoulou
p682
aV/fr/mmorpg/encyclopedie/armes/8110-baguette-tofu
p683
aV/fr/mmorpg/encyclopedie/armes/345-petite-pelle-teuze
p684
aV/fr/mmorpg/encyclopedie/armes/354-klebik
p685
aV/fr/mmorpg/encyclopedie/armes/462-arc-racine-abraknyde
p686
aV/fr/mmorpg/encyclopedie/armes/1426-pelle-thart
p687
aV/fr/mmorpg/encyclopedie/armes/54-grande-epee-alle
p688
aV/fr/mmorpg/encyclopedie/armes/1148-petit-baton-dakn
p689
aV/fr/mmorpg/encyclopedie/armes/823-epee-grand-chevalier
p690
aV/fr/mmorpg/encyclopedie/armes/1063-masse
p691
aV/fr/mmorpg/encyclopedie/armes/1095-arc-buse
p692
aV/fr/mmorpg/encyclopedie/armes/826-lame-grand-bwork
p693
aV/fr/mmorpg/encyclopedie/armes/1065-marteau-r-unique
p694
aV/fr/mmorpg/encyclopedie/armes/822-epee-chevalier
p695
aV/fr/mmorpg/encyclopedie/armes/1403-marteau-tau
p696
aV/fr/mmorpg/encyclopedie/armes/825-lame-bwork
p697
aV/fr/mmorpg/encyclopedie/armes/236-barabas
p698
aV/fr/mmorpg/encyclopedie/armes/67-tranchant-infernal
p699
aV/fr/mmorpg/encyclopedie/armes/1377-hache-hure
p700
aV/fr/mmorpg/encyclopedie/armes/331-arc-hancihaile
p701
aV/fr/mmorpg/encyclopedie/armes/53-epee-alle
p702
aV/fr/mmorpg/encyclopedie/armes/271-marteau-chafer
p703
aV/fr/mmorpg/encyclopedie/armes/358-queue-infernale
p704
aV/fr/mmorpg/encyclopedie/armes/675-trancheuse-noyer
p705
aV/fr/mmorpg/encyclopedie/armes/1064-petit-marteau-r-unique
p706
aV/fr/mmorpg/encyclopedie/armes/58-triste-lame
p707
aV/fr/mmorpg/encyclopedie/armes/338-lame-petit-bwork
p708
aV/fr/mmorpg/encyclopedie/armes/353-epee-petit-chevalier
p709
aV/fr/mmorpg/encyclopedie/armes/51-petite-epee-alle
p710
aV/fr/mmorpg/encyclopedie/armes/1432-pelle-houze
p711
aV/fr/mmorpg/encyclopedie/armes/1370-ergot-mina
p712
aV/fr/mmorpg/encyclopedie/armes/6725-baton-homme-ours
p713
aV/fr/mmorpg/encyclopedie/armes/334-baguette-liriel
p714
aV/fr/mmorpg/encyclopedie/armes/1365-canne-hete
p715
aV/fr/mmorpg/encyclopedie/armes/9687-moyenne-pierre-ame-parfaite
p716
aV/fr/mmorpg/encyclopedie/armes/15125-marteau-ballotin
p717
aV/fr/mmorpg/encyclopedie/armes/337-arc-bwork-archer
p718
aV/fr/mmorpg/encyclopedie/armes/2416-marteau-bouftou
p719
aV/fr/mmorpg/encyclopedie/armes/251-barbe-grise
p720
aV/fr/mmorpg/encyclopedie/armes/7102-epee-chevalier-glace
p721
aV/fr/mmorpg/encyclopedie/armes/8255-pelle-mousse
p722
aV/fr/mmorpg/encyclopedie/armes/267-arc-deroutant
p723
aV/fr/mmorpg/encyclopedie/armes/230-marteau-ivoire
p724
aV/fr/mmorpg/encyclopedie/armes/247-pelle-rapage
p725
aV/fr/mmorpg/encyclopedie/armes/328-koupe-koupe
p726
aV/fr/mmorpg/encyclopedie/armes/342-marteau-pickeur
p727
aV/fr/mmorpg/encyclopedie/armes/821-epee-sacree
p728
aV/fr/mmorpg/encyclopedie/armes/62-epee
p729
aV/fr/mmorpg/encyclopedie/armes/241-pelle-crapouille
p730
aV/fr/mmorpg/encyclopedie/armes/8127-faux-usee-paysan
p731
aV/fr/mmorpg/encyclopedie/armes/214-dagues-croclage
p732
aV/fr/mmorpg/encyclopedie/armes/502-trancheuse-if
p733
aV/fr/mmorpg/encyclopedie/armes/194-baton-spirituel
p734
aV/fr/mmorpg/encyclopedie/armes/327-lame-chevaucheur-karne
p735
aV/fr/mmorpg/encyclopedie/armes/235-cerberus
p736
aV/fr/mmorpg/encyclopedie/armes/49-epee-fouraille
p737
aV/fr/mmorpg/encyclopedie/armes/1375-hache-terophyle
p738
aV/fr/mmorpg/encyclopedie/armes/1399-maillet-aclou
p739
aV/fr/mmorpg/encyclopedie/armes/1059-pelle-champs
p740
aV/fr/mmorpg/encyclopedie/armes/6792-plantouze-champs
p741
aV/fr/mmorpg/encyclopedie/armes/224-marteau-raclage
p742
aV/fr/mmorpg/encyclopedie/armes/357-queue
p743
aV/fr/mmorpg/encyclopedie/armes/1350-arc-holic
p744
aV/fr/mmorpg/encyclopedie/armes/208-dagues-fouraille
p745
aV/fr/mmorpg/encyclopedie/armes/765-faux-farle-ingalsse
p746
aV/fr/mmorpg/encyclopedie/armes/6786-pelle-initie
p747
aV/fr/mmorpg/encyclopedie/armes/340-leurnettes
p748
aV/fr/mmorpg/encyclopedie/armes/10818-hache-initie
p749
aV/fr/mmorpg/encyclopedie/armes/2590-hache-om
p750
aV/fr/mmorpg/encyclopedie/armes/1366-baton-bouftier
p751
aV/fr/mmorpg/encyclopedie/armes/6780-epee-initie
p752
aV/fr/mmorpg/encyclopedie/armes/6781-baguette-initie
p753
aV/fr/mmorpg/encyclopedie/armes/6782-baton-initie
p754
aV/fr/mmorpg/encyclopedie/armes/183-baton-feuillu
p755
aV/fr/mmorpg/encyclopedie/armes/6783-arc-initie
p756
aV/fr/mmorpg/encyclopedie/armes/6784-dagues-initie
p757
aV/fr/mmorpg/encyclopedie/armes/6924-dagues-bandit
p758
aV/fr/mmorpg/encyclopedie/armes/6785-marteau-initie
p759
aV/fr/mmorpg/encyclopedie/armes/165-baguette-glace
p760
aV/fr/mmorpg/encyclopedie/armes/6914-trancheuse-arakne
p761
aV/fr/mmorpg/encyclopedie/armes/828-arc-sifflant
p762
aV/fr/mmorpg/encyclopedie/armes/14802-sabre-n\u014d
p763
aV/fr/mmorpg/encyclopedie/armes/1503-baguette-feu-follesque
p764
aV/fr/mmorpg/encyclopedie/armes/14618-ninjarteau
p765
aV/fr/mmorpg/encyclopedie/armes/12752-pellong
p766
aV/fr/mmorpg/encyclopedie/armes/14594-batomen-tengu
p767
aV/fr/mmorpg/encyclopedie/armes/14602-dagwaii
p768
aV/fr/mmorpg/encyclopedie/armes/14626-pelluvet
p769
aV/fr/mmorpg/encyclopedie/armes/9686-petite-pierre-ame-parfaite
p770
aV/fr/mmorpg/encyclopedie/armes/14610-kouinkaton-noir
p771
aV/fr/mmorpg/encyclopedie/armes/14634-dagoune-rose
p772
aV/fr/mmorpg/encyclopedie/armes/2361-arc-mulic-bere
p773
aV/fr/mmorpg/encyclopedie/armes/14643-soubreguette
p774
aV/fr/mmorpg/encyclopedie/armes/14799-sabre-samourai
p775
aV/fr/mmorpg/encyclopedie/armes/14807-martolita
p776
aV/fr/mmorpg/encyclopedie/armes/12422-marteau-tetriste
p777
aV/fr/mmorpg/encyclopedie/armes/12600-baton-envahisseur
p778
aV/fr/mmorpg/encyclopedie/armes/14598-hashincha
p779
aV/fr/mmorpg/encyclopedie/armes/14606-geishache
p780
aV/fr/mmorpg/encyclopedie/armes/14614-kouinkaguette-jaune
p781
aV/fr/mmorpg/encyclopedie/armes/12758-pacmadagues
p782
aV/fr/mmorpg/encyclopedie/armes/14590-arculotte
p783
aV/fr/mmorpg/encyclopedie/armes/14622-ninjache
p784
aV/fr/mmorpg/encyclopedie/armes/14630-makipee
p785
aV/fr/mmorpg/encyclopedie/armes/140-baton-boisaille
p786
aV/fr/mmorpg/encyclopedie/armes/188-baton-kouyu
p787
aV/fr/mmorpg/encyclopedie/armes/771-mangeuse-frene
p788
aV/fr/mmorpg/encyclopedie/armes/16527-marteau-hargnok
p789
aV/fr/mmorpg/encyclopedie/armes/673-mangeuse-chataignier
p790
aV/fr/mmorpg/encyclopedie/armes/97-dagues-boisaille
p791
aV/fr/mmorpg/encyclopedie/armes/44-epee-boisaille
p792
aV/fr/mmorpg/encyclopedie/armes/91-arc-boisaille
p793
aV/fr/mmorpg/encyclopedie/armes/1439-mauvaise-pioche
p794
aV/fr/mmorpg/encyclopedie/armes/153-pelle-boisaille
p795
aV/fr/mmorpg/encyclopedie/armes/147-marteau-boisaille
p796
aV/fr/mmorpg/encyclopedie/armes/2589-hachette-hevlalav
p797
aV/fr/mmorpg/encyclopedie/armes/829-arc-hade
p798
aV/fr/mmorpg/encyclopedie/armes/134-baguette-boisaille
p799
aV/fr/mmorpg/encyclopedie/armes/9972-marteau-forgeur-grattoir
p800
aV/fr/mmorpg/encyclopedie/armes/9974-tailladeuse-manche
p801
aV/fr/mmorpg/encyclopedie/armes/6661-canne-koinkoin
p802
aV/fr/mmorpg/encyclopedie/armes/6856-ciseaux-rose-demoniaque
p803
aV/fr/mmorpg/encyclopedie/armes/7006-enorme-pierre-ame-hasardeuse
p804
aV/fr/mmorpg/encyclopedie/armes/9475-sublime-pierre-ame
p805
aV/fr/mmorpg/encyclopedie/armes/1356-demi-baguette
p806
aV/fr/mmorpg/encyclopedie/armes/489-loupe
p807
aV/fr/mmorpg/encyclopedie/armes/9476-sublime-pierre-ame-heureuse
p808
aV/fr/mmorpg/encyclopedie/armes/6840-epee-yanguru
p809
aV/fr/mmorpg/encyclopedie/armes/7007-petite-pierre-ame
p810
aV/fr/mmorpg/encyclopedie/armes/7331-enorme-pierre-ame
p811
aV/fr/mmorpg/encyclopedie/armes/7008-moyenne-pierre-ame
p812
aV/fr/mmorpg/encyclopedie/armes/7332-petite-pierre-ame-heureuse
p813
aV/fr/mmorpg/encyclopedie/armes/9718-gargantuesque-pierre-ame-parfaite
p814
aV/fr/mmorpg/encyclopedie/armes/1505-flute
p815
aV/fr/mmorpg/encyclopedie/armes/16343-pinceau
p816
aV/fr/mmorpg/encyclopedie/armes/2376-hache-hemal
p817
aV/fr/mmorpg/encyclopedie/armes/7009-grande-pierre-ame
p818
aV/fr/mmorpg/encyclopedie/armes/7333-moyenne-pierre-ame-heureuse
p819
aV/fr/mmorpg/encyclopedie/armes/7334-grande-pierre-ame-heureuse
p820
aV/fr/mmorpg/encyclopedie/armes/2587-hachette-bucheron
p821
aV/fr/mmorpg/encyclopedie/armes/9689-enorme-pierre-ame-parfaite
p822
aV/fr/mmorpg/encyclopedie/armes/10797-epee-tulante
p823
aV/fr/mmorpg/encyclopedie/armes/7335-enorme-pierre-ame-heureuse
p824
aV/fr/mmorpg/encyclopedie/armes/8338-epee-nowel
p825
aV/fr/mmorpg/encyclopedie/armes/7336-giga-pierre-ame-hasardeuse
p826
aV/fr/mmorpg/encyclopedie/armes/1934-couteau-chasse
p827
aV/fr/mmorpg/encyclopedie/armes/6839-epee-yingnitie
p828
aV/fr/mmorpg/encyclopedie/armes/7337-giga-pierre-ame
p829
aV/fr/mmorpg/encyclopedie/armes/1942-arc-chasse
p830
aV/fr/mmorpg/encyclopedie/armes/7004-moyenne-pierre-ame-hasardeuse
p831
aV/fr/mmorpg/encyclopedie/armes/7338-giga-pierre-ame-heureuse
p832
aV/fr/mmorpg/encyclopedie/armes/9961-marteau-martel
p833
aV/fr/mmorpg/encyclopedie/armes/6987-petite-pierre-ame-hasardeuse
p834
aV/fr/mmorpg/encyclopedie/armes/7005-grande-pierre-ame-hasardeuse
p835
aV/fr/mmorpg/encyclopedie/armes/9474-sublime-pierre-ame-hasardeuse
p836
a.