(lp0
V/fr/mmorpg/encyclopedie/consommables/14150-bouteille-cocalane
p1
aV/fr/mmorpg/encyclopedie/consommables/15401-coffre-gein
p2
aV/fr/mmorpg/encyclopedie/consommables/15982-potion-amelioration-blokus
p3
aV/fr/mmorpg/encyclopedie/consommables/17205-saucisse-fumee
p4
aV/fr/mmorpg/encyclopedie/consommables/14151-serviette-egaree
p5
aV/fr/mmorpg/encyclopedie/consommables/17206-saucisse-fumee-fortifiante
p6
aV/fr/mmorpg/encyclopedie/consommables/11503-pain-frostiz
p7
aV/fr/mmorpg/encyclopedie/consommables/11510-poisskaille-fricassee
p8
aV/fr/mmorpg/encyclopedie/consommables/15473-potion-amelioration-homlett
p9
aV/fr/mmorpg/encyclopedie/consommables/15567-boite-fragments-magistrale
p10
aV/fr/mmorpg/encyclopedie/consommables/11504-pain-frostiz-souffle
p11
aV/fr/mmorpg/encyclopedie/consommables/11511-poisskaille-givre-fricassee
p12
aV/fr/mmorpg/encyclopedie/consommables/13276-poisskaille-givre-ragout
p13
aV/fr/mmorpg/encyclopedie/consommables/17704-potion-amelioration-chaperlipopette
p14
aV/fr/mmorpg/encyclopedie/consommables/11505-potion-torboyo
p15
aV/fr/mmorpg/encyclopedie/consommables/17231-coffre-kongoku
p16
aV/fr/mmorpg/encyclopedie/consommables/16045-coffre-hyperscampe
p17
aV/fr/mmorpg/encyclopedie/consommables/16944-buche-tremble
p18
aV/fr/mmorpg/encyclopedie/consommables/11507-potion-etoilee
p19
aV/fr/mmorpg/encyclopedie/consommables/15269-coffre-magistral
p20
aV/fr/mmorpg/encyclopedie/consommables/17241-coffre-voldelor
p21
aV/fr/mmorpg/encyclopedie/consommables/17653-coffre-atcham
p22
aV/fr/mmorpg/encyclopedie/consommables/14718-abreuvoir-merkator
p23
aV/fr/mmorpg/encyclopedie/consommables/14756-dragofesse-klime
p24
aV/fr/mmorpg/encyclopedie/consommables/14770-caresseur-nileza
p25
aV/fr/mmorpg/encyclopedie/consommables/14757-dragofesse-missiz-frizz
p26
aV/fr/mmorpg/encyclopedie/consommables/14771-caresseur-merkator
p27
aV/fr/mmorpg/encyclopedie/consommables/15706-foudroyeur-protozorreur
p28
aV/fr/mmorpg/encyclopedie/consommables/17740-mangeoire-chaloeil
p29
aV/fr/mmorpg/encyclopedie/consommables/14742-baffeur-sylargh
p30
aV/fr/mmorpg/encyclopedie/consommables/15707-caresseur-reine-voleurs
p31
aV/fr/mmorpg/encyclopedie/consommables/14743-baffeur-nileza
p32
aV/fr/mmorpg/encyclopedie/consommables/14783-mangeoire-comte-harebourg
p33
aV/fr/mmorpg/encyclopedie/consommables/16291-baffeur-vortex
p34
aV/fr/mmorpg/encyclopedie/consommables/14784-mangeoire-sylargh
p35
aV/fr/mmorpg/encyclopedie/consommables/15275-dragofesse-roi-nidas
p36
aV/fr/mmorpg/encyclopedie/consommables/14730-foudroyeur-klime
p37
aV/fr/mmorpg/encyclopedie/consommables/14553-potion-invocation-percepteur
p38
aV/fr/mmorpg/encyclopedie/consommables/14717-abreuvoir-missiz-frizz
p39
aV/fr/mmorpg/encyclopedie/consommables/14731-foudroyeur-comte-harebourg
p40
aV/fr/mmorpg/encyclopedie/consommables/11975-potion-amelioration-bisouglours
p41
aV/fr/mmorpg/encyclopedie/consommables/16485-espadon-poele
p42
aV/fr/mmorpg/encyclopedie/consommables/11506-potion-raide-reve
p43
aV/fr/mmorpg/encyclopedie/consommables/16486-espadon-quichotte-poele
p44
aV/fr/mmorpg/encyclopedie/consommables/16943-buche-bambou-sacre
p45
aV/fr/mmorpg/encyclopedie/consommables/17203-andouillette-gibier
p46
aV/fr/mmorpg/encyclopedie/consommables/743-brioche-doree
p47
aV/fr/mmorpg/encyclopedie/consommables/17204-andouillette-gibier-fortifiante
p48
aV/fr/mmorpg/encyclopedie/consommables/14727-foudroyeur-grolloum
p49
aV/fr/mmorpg/encyclopedie/consommables/14729-foudroyeur-kolosso
p50
aV/fr/mmorpg/encyclopedie/consommables/14767-caresseur-fuji-givrefoux
p51
aV/fr/mmorpg/encyclopedie/consommables/14976-dragofesse-ombre
p52
aV/fr/mmorpg/encyclopedie/consommables/13479-fiole-chichala
p53
aV/fr/mmorpg/encyclopedie/consommables/14782-mangeoire-kolosso
p54
aV/fr/mmorpg/encyclopedie/consommables/14714-abreuvoir-fuji-givrefoux
p55
aV/fr/mmorpg/encyclopedie/consommables/14715-abreuvoir-glourseleste
p56
aV/fr/mmorpg/encyclopedie/consommables/14753-dragofesse-glourseleste
p57
aV/fr/mmorpg/encyclopedie/consommables/14755-dragofesse-grolloum
p58
aV/fr/mmorpg/encyclopedie/consommables/7789-foudroyeur-bambou-sacre
p59
aV/fr/mmorpg/encyclopedie/consommables/7766-baffeur-bambou-sacre
p60
aV/fr/mmorpg/encyclopedie/consommables/14765-caresseur-plume-serpiplume
p61
aV/fr/mmorpg/encyclopedie/consommables/7604-abreuvoir-bambou-sacre
p62
aV/fr/mmorpg/encyclopedie/consommables/15566-boite-fragments-impressionnante
p63
aV/fr/mmorpg/encyclopedie/consommables/16483-tanche-matelote
p64
aV/fr/mmorpg/encyclopedie/consommables/16439-fouee
p65
aV/fr/mmorpg/encyclopedie/consommables/16484-tanche-hantee-matelote
p66
aV/fr/mmorpg/encyclopedie/consommables/7621-mangeoire-bambou-sacre
p67
aV/fr/mmorpg/encyclopedie/consommables/14751-dragofesse-cuir-maho-givrefoux
p68
aV/fr/mmorpg/encyclopedie/consommables/16942-buche-orme
p69
aV/fr/mmorpg/encyclopedie/consommables/17248-coffre-guerrier-k-o
p70
aV/fr/mmorpg/encyclopedie/consommables/16417-potion-revitalisante
p71
aV/fr/mmorpg/encyclopedie/consommables/17201-quenelle-tijan
p72
aV/fr/mmorpg/encyclopedie/consommables/15268-coffre-impressionnant
p73
aV/fr/mmorpg/encyclopedie/consommables/16418-potion-fromagere
p74
aV/fr/mmorpg/encyclopedie/consommables/17202-quenelle-tijan-fortifiante
p75
aV/fr/mmorpg/encyclopedie/consommables/11970-potion-amelioration-blerodoudou
p76
aV/fr/mmorpg/encyclopedie/consommables/2636-pain-tahde
p77
aV/fr/mmorpg/encyclopedie/consommables/15486-coffre-dremoan
p78
aV/fr/mmorpg/encyclopedie/consommables/11965-potion-amelioration-bulbisou
p79
aV/fr/mmorpg/encyclopedie/consommables/14740-baffeur-kralamoure-geant
p80
aV/fr/mmorpg/encyclopedie/consommables/14741-baffeur-bworker
p81
aV/fr/mmorpg/encyclopedie/consommables/14781-mangeoire-korriandre
p82
aV/fr/mmorpg/encyclopedie/consommables/15708-baffeur-toxoliath
p83
aV/fr/mmorpg/encyclopedie/consommables/14738-baffeur-ougah
p84
aV/fr/mmorpg/encyclopedie/consommables/14769-caresseur-ougah
p85
aV/fr/mmorpg/encyclopedie/consommables/14739-baffeur-korriandre
p86
aV/fr/mmorpg/encyclopedie/consommables/14779-mangeoire-bworker
p87
aV/fr/mmorpg/encyclopedie/consommables/11789-potion-amelioration-givrefoux
p88
aV/fr/mmorpg/encyclopedie/consommables/16481-estouffade-morue
p89
aV/fr/mmorpg/encyclopedie/consommables/16722-potion-axel-raide
p90
aV/fr/mmorpg/encyclopedie/consommables/1737-pain-champs
p91
aV/fr/mmorpg/encyclopedie/consommables/16482-estouffade-morue-barbue
p92
aV/fr/mmorpg/encyclopedie/consommables/17199-filet-mignon
p93
aV/fr/mmorpg/encyclopedie/consommables/16941-buche-bambou-sombre
p94
aV/fr/mmorpg/encyclopedie/consommables/17200-filet-mignon-fortifiant
p95
aV/fr/mmorpg/encyclopedie/consommables/14275-eau-fontaine-noffoub
p96
aV/fr/mmorpg/encyclopedie/consommables/14728-foudroyeur-tengu-givrefoux
p97
aV/fr/mmorpg/encyclopedie/consommables/14780-mangeoire-tengu-givrefoux
p98
aV/fr/mmorpg/encyclopedie/consommables/14768-caresseur-tengu-givrefoux
p99
aV/fr/mmorpg/encyclopedie/consommables/16290-dragofesse-xlii
p100
aV/fr/mmorpg/encyclopedie/consommables/11036-potion-amelioration-tifoux-tigre
p101
aV/fr/mmorpg/encyclopedie/consommables/17197-mijote-recreatif
p102
aV/fr/mmorpg/encyclopedie/consommables/15565-boite-fragments-imposante
p103
aV/fr/mmorpg/encyclopedie/consommables/17198-mijote-recreatif-fortifiant
p104
aV/fr/mmorpg/encyclopedie/consommables/12149-potion-amelioration-serpete
p105
aV/fr/mmorpg/encyclopedie/consommables/16437-tortilla
p106
aV/fr/mmorpg/encyclopedie/consommables/1809-bar-grille
p107
aV/fr/mmorpg/encyclopedie/consommables/16438-burrito
p108
aV/fr/mmorpg/encyclopedie/consommables/16940-buche-charme
p109
aV/fr/mmorpg/encyclopedie/consommables/15258-potion-amelioration-phortiche
p110
aV/fr/mmorpg/encyclopedie/consommables/16415-larme-eniripsa
p111
aV/fr/mmorpg/encyclopedie/consommables/16416-potion-donzelle
p112
aV/fr/mmorpg/encyclopedie/consommables/17255-coffre-anatak
p113
aV/fr/mmorpg/encyclopedie/consommables/15267-coffre-imposant
p114
aV/fr/mmorpg/encyclopedie/consommables/10776-potion-amelioration-miniminotot
p115
aV/fr/mmorpg/encyclopedie/consommables/1828-bar-iton-grille
p116
aV/fr/mmorpg/encyclopedie/consommables/15114-potion-amelioration-chachyene
p117
aV/fr/mmorpg/encyclopedie/consommables/9980-plat-gravette
p118
aV/fr/mmorpg/encyclopedie/consommables/9982-salade-houbee
p119
aV/fr/mmorpg/encyclopedie/consommables/14726-foudroyeur-obsidiantre
p120
aV/fr/mmorpg/encyclopedie/consommables/14766-caresseur-obsidiantre
p121
aV/fr/mmorpg/encyclopedie/consommables/14713-abreuvoir-kimbo
p122
aV/fr/mmorpg/encyclopedie/consommables/15096-baffeur-kanigroula
p123
aV/fr/mmorpg/encyclopedie/consommables/14754-dragofesse-kimbo
p124
aV/fr/mmorpg/encyclopedie/consommables/17739-caresseur-ush
p125
aV/fr/mmorpg/encyclopedie/consommables/10083-salace-poissons
p126
aV/fr/mmorpg/encyclopedie/consommables/10778-potion-amelioration-chauffe-souris
p127
aV/fr/mmorpg/encyclopedie/consommables/17539-potion-amelioration-dragoune
p128
aV/fr/mmorpg/encyclopedie/consommables/1838-aileron-requin
p129
aV/fr/mmorpg/encyclopedie/consommables/16414-potion-raide-izdaide
p130
aV/fr/mmorpg/encyclopedie/consommables/11782-potion-amelioration-ecumouth
p131
aV/fr/mmorpg/encyclopedie/consommables/17533-potion-amelioration-minimino
p132
aV/fr/mmorpg/encyclopedie/consommables/17540-potion-amelioration-tifoux
p133
aV/fr/mmorpg/encyclopedie/consommables/11954-potion-amelioration-kanigloups
p134
aV/fr/mmorpg/encyclopedie/consommables/17541-potion-amelioration-bouloute
p135
aV/fr/mmorpg/encyclopedie/consommables/10750-potion-amelioration-atouin
p136
aV/fr/mmorpg/encyclopedie/consommables/16121-potion-amelioration-eliome
p137
aV/fr/mmorpg/encyclopedie/consommables/17256-coffre-zatoishwan
p138
aV/fr/mmorpg/encyclopedie/consommables/17542-potion-amelioration-fotome
p139
aV/fr/mmorpg/encyclopedie/consommables/1840-aileron-requin-marche-libre
p140
aV/fr/mmorpg/encyclopedie/consommables/17543-potion-amelioration-abra-kadabra
p141
aV/fr/mmorpg/encyclopedie/consommables/17195-daube-epices
p142
aV/fr/mmorpg/encyclopedie/consommables/17537-potion-amelioration-scarador
p143
aV/fr/mmorpg/encyclopedie/consommables/16939-buche-kaliptus
p144
aV/fr/mmorpg/encyclopedie/consommables/17196-daube-fortifiante-epices
p145
aV/fr/mmorpg/encyclopedie/consommables/17538-potion-amelioration-croum
p146
aV/fr/mmorpg/encyclopedie/consommables/527-mantou
p147
aV/fr/mmorpg/encyclopedie/consommables/14725-foudroyeur-ben-ripate
p148
aV/fr/mmorpg/encyclopedie/consommables/14712-abreuvoir-sphincter-cell
p149
aV/fr/mmorpg/encyclopedie/consommables/14752-dragofesse-minotot
p150
aV/fr/mmorpg/encyclopedie/consommables/14716-abreuvoir-minotot
p151
aV/fr/mmorpg/encyclopedie/consommables/15277-baffeur-phossile
p152
aV/fr/mmorpg/encyclopedie/consommables/10886-potion-amelioration-pykur
p153
aV/fr/mmorpg/encyclopedie/consommables/15564-boite-fragments-etincelante
p154
aV/fr/mmorpg/encyclopedie/consommables/16480-salace-glotte
p155
aV/fr/mmorpg/encyclopedie/consommables/16436-pain-prenelle
p156
aV/fr/mmorpg/encyclopedie/consommables/13678-potion-amelioration-kokulte
p157
aV/fr/mmorpg/encyclopedie/consommables/16413-potion-goku
p158
aV/fr/mmorpg/encyclopedie/consommables/7611-mangeoire-orme
p159
aV/fr/mmorpg/encyclopedie/consommables/7743-caresseur-plume-dernier-poolay
p160
aV/fr/mmorpg/encyclopedie/consommables/10763-potion-amelioration-leopardo
p161
aV/fr/mmorpg/encyclopedie/consommables/11776-potion-amelioration-medugivre
p162
aV/fr/mmorpg/encyclopedie/consommables/15266-coffre-etincelant
p163
aV/fr/mmorpg/encyclopedie/consommables/7599-abreuvoir-orme
p164
aV/fr/mmorpg/encyclopedie/consommables/10766-potion-amelioration-peki
p165
aV/fr/mmorpg/encyclopedie/consommables/16479-salace-lotte
p166
aV/fr/mmorpg/encyclopedie/consommables/17193-boudin-noir
p167
aV/fr/mmorpg/encyclopedie/consommables/2635-pain-gre
p168
aV/fr/mmorpg/encyclopedie/consommables/7779-foudroyeur-orme
p169
aV/fr/mmorpg/encyclopedie/consommables/17194-boudin-noir-fortifiant
p170
aV/fr/mmorpg/encyclopedie/consommables/10079-pain-trepide
p171
aV/fr/mmorpg/encyclopedie/consommables/16938-buche-ebene
p172
aV/fr/mmorpg/encyclopedie/consommables/7756-baffeur-orme
p173
aV/fr/mmorpg/encyclopedie/consommables/8913-potion-bulbique
p174
aV/fr/mmorpg/encyclopedie/consommables/14748-dragofesse-cuir-sanglacier
p175
aV/fr/mmorpg/encyclopedie/consommables/14750-dragofesse-tynril
p176
aV/fr/mmorpg/encyclopedie/consommables/14737-baffeur-mansot-royal
p177
aV/fr/mmorpg/encyclopedie/consommables/14790-foudroyeur-chene-mou
p178
aV/fr/mmorpg/encyclopedie/consommables/14792-dragofesse-peki-peki
p179
aV/fr/mmorpg/encyclopedie/consommables/16412-potion-raide-emption
p180
aV/fr/mmorpg/encyclopedie/consommables/16127-potion-amelioration-drakopin
p181
aV/fr/mmorpg/encyclopedie/consommables/520-borodinski
p182
aV/fr/mmorpg/encyclopedie/consommables/1815-aile-raie
p183
aV/fr/mmorpg/encyclopedie/consommables/13478-potion-amelioration-sakochere
p184
aV/fr/mmorpg/encyclopedie/consommables/17191-marinade-sucree-salee
p185
aV/fr/mmorpg/encyclopedie/consommables/1831-aile-raie-farle
p186
aV/fr/mmorpg/encyclopedie/consommables/17192-marinade-sucree-salee-fortifiante
p187
aV/fr/mmorpg/encyclopedie/consommables/10751-potion-amelioration-bebe-pandawa
p188
aV/fr/mmorpg/encyclopedie/consommables/16937-buche-noisetier
p189
aV/fr/mmorpg/encyclopedie/consommables/16046-coffre-panteroz
p190
aV/fr/mmorpg/encyclopedie/consommables/14764-caresseur-tanukoui-san
p191
aV/fr/mmorpg/encyclopedie/consommables/15363-dragofesse-haute-truche
p192
aV/fr/mmorpg/encyclopedie/consommables/10761-potion-amelioration-koalak-sanguin
p193
aV/fr/mmorpg/encyclopedie/consommables/13607-potion-amelioration-balafreux
p194
aV/fr/mmorpg/encyclopedie/consommables/15540-coffre-ali-grothor
p195
aV/fr/mmorpg/encyclopedie/consommables/16411-potion-trois
p196
aV/fr/mmorpg/encyclopedie/consommables/16435-faluche
p197
aV/fr/mmorpg/encyclopedie/consommables/10779-potion-amelioration-dragoune-noire
p198
aV/fr/mmorpg/encyclopedie/consommables/1822-perche-sautee
p199
aV/fr/mmorpg/encyclopedie/consommables/17190-grillade-brakmarienne-fortifiante
p200
aV/fr/mmorpg/encyclopedie/consommables/12993-potion-amelioration-scarakiri
p201
aV/fr/mmorpg/encyclopedie/consommables/10758-potion-amelioration-crocodaille
p202
aV/fr/mmorpg/encyclopedie/consommables/15265-coffre-lourd
p203
aV/fr/mmorpg/encyclopedie/consommables/1824-chaton-perche-saute
p204
aV/fr/mmorpg/encyclopedie/consommables/10767-potion-amelioration-petit-chacha-blanc
p205
aV/fr/mmorpg/encyclopedie/consommables/10781-potion-amelioration-gelutin
p206
aV/fr/mmorpg/encyclopedie/consommables/16936-buche-merisier
p207
aV/fr/mmorpg/encyclopedie/consommables/526-pain-cereales
p208
aV/fr/mmorpg/encyclopedie/consommables/15563-boite-fragments-lourde
p209
aV/fr/mmorpg/encyclopedie/consommables/16410-sang-trooll
p210
aV/fr/mmorpg/encyclopedie/consommables/17189-grillade-brakmarienne
p211
aV/fr/mmorpg/encyclopedie/consommables/10809-potion-amelioration-dragoune-doree
p212
aV/fr/mmorpg/encyclopedie/consommables/11770-potion-amelioration-cromeugnon
p213
aV/fr/mmorpg/encyclopedie/consommables/14763-caresseur-royalmouth
p214
aV/fr/mmorpg/encyclopedie/consommables/14794-mangeoire-skeunk
p215
aV/fr/mmorpg/encyclopedie/consommables/16289-caresseur-fraktale
p216
aV/fr/mmorpg/encyclopedie/consommables/14789-abreuvoir-blop-multicolore-royal
p217
aV/fr/mmorpg/encyclopedie/consommables/15413-potion-apisaphe
p218
aV/fr/mmorpg/encyclopedie/consommables/15709-abreuvoir-capitaine-ekarlatte
p219
aV/fr/mmorpg/encyclopedie/consommables/14777-mangeoire-maitre-pandore
p220
aV/fr/mmorpg/encyclopedie/consommables/14791-baffeur-minotoror
p221
aV/fr/mmorpg/encyclopedie/consommables/14778-mangeoire-crocabulia
p222
aV/fr/mmorpg/encyclopedie/consommables/14793-caresseur-tofu-royal
p223
aV/fr/mmorpg/encyclopedie/consommables/17027-potion-amelioration-bontique
p224
aV/fr/mmorpg/encyclopedie/consommables/1738-pain-villes
p225
aV/fr/mmorpg/encyclopedie/consommables/18092-potion-amelioration-kougnard
p226
aV/fr/mmorpg/encyclopedie/consommables/16477-dorade-four
p227
aV/fr/mmorpg/encyclopedie/consommables/16409-potion-jeud-raide
p228
aV/fr/mmorpg/encyclopedie/consommables/16478-dorade-royale-four
p229
aV/fr/mmorpg/encyclopedie/consommables/16935-buche-bambou
p230
aV/fr/mmorpg/encyclopedie/consommables/17837-potion-amelioration-titcham
p231
aV/fr/mmorpg/encyclopedie/consommables/17187-pemmican-haricots
p232
aV/fr/mmorpg/encyclopedie/consommables/17032-potion-amelioration-brakarien
p233
aV/fr/mmorpg/encyclopedie/consommables/17188-pemmican-fortifiant-haricots
p234
aV/fr/mmorpg/encyclopedie/consommables/10885-potion-amelioration-tofoudre
p235
aV/fr/mmorpg/encyclopedie/consommables/14749-dragofesse-rat-noir
p236
aV/fr/mmorpg/encyclopedie/consommables/14711-abreuvoir-rasboul-majeur
p237
aV/fr/mmorpg/encyclopedie/consommables/14736-baffeur-rat-blanc
p238
aV/fr/mmorpg/encyclopedie/consommables/17738-foudroyeur-pounicheur
p239
aV/fr/mmorpg/encyclopedie/consommables/14747-dragofesse-abraknyde-ancestral
p240
aV/fr/mmorpg/encyclopedie/consommables/14724-foudroyeur-maitre-corbac
p241
aV/fr/mmorpg/encyclopedie/consommables/7765-baffeur-bambou-sombre
p242
aV/fr/mmorpg/encyclopedie/consommables/7603-abreuvoir-bambou-sombre
p243
aV/fr/mmorpg/encyclopedie/consommables/15611-potion-amelioration-tatouf
p244
aV/fr/mmorpg/encyclopedie/consommables/17383-potion-amelioration-titard
p245
aV/fr/mmorpg/encyclopedie/consommables/14758-caresseur-plume-fesse-kido
p246
aV/fr/mmorpg/encyclopedie/consommables/16273-potion-amelioration-tanuk
p247
aV/fr/mmorpg/encyclopedie/consommables/16280-potion-amelioration-bloalak
p248
aV/fr/mmorpg/encyclopedie/consommables/16475-anguille-rotie
p249
aV/fr/mmorpg/encyclopedie/consommables/11038-potion-amelioration-kouin-kouin-noir
p250
aV/fr/mmorpg/encyclopedie/consommables/7698-dragofesse-cuir-noir
p251
aV/fr/mmorpg/encyclopedie/consommables/8507-plat-filtounga
p252
aV/fr/mmorpg/encyclopedie/consommables/15264-coffre-solide
p253
aV/fr/mmorpg/encyclopedie/consommables/16476-anguille-souroche-rotie
p254
aV/fr/mmorpg/encyclopedie/consommables/10771-potion-amelioration-vilain-petit-corbac
p255
aV/fr/mmorpg/encyclopedie/consommables/12545-potion-amelioration-dragouf
p256
aV/fr/mmorpg/encyclopedie/consommables/13005-potion-amelioration-meulourd
p257
aV/fr/mmorpg/encyclopedie/consommables/7620-mangeoire-bambou-sombre
p258
aV/fr/mmorpg/encyclopedie/consommables/10765-potion-amelioration-nomoon
p259
aV/fr/mmorpg/encyclopedie/consommables/16408-potion-marguerite
p260
aV/fr/mmorpg/encyclopedie/consommables/16934-buche-if
p261
aV/fr/mmorpg/encyclopedie/consommables/539-pain-seigle
p262
aV/fr/mmorpg/encyclopedie/consommables/1406-sang-likrone
p263
aV/fr/mmorpg/encyclopedie/consommables/11790-coffre-vorace-endormi
p264
aV/fr/mmorpg/encyclopedie/consommables/17185-poelee-paysanne
p265
aV/fr/mmorpg/encyclopedie/consommables/10774-potion-amelioration-willy-relou
p266
aV/fr/mmorpg/encyclopedie/consommables/11133-plume-vibrante-mansot
p267
aV/fr/mmorpg/encyclopedie/consommables/17186-poelee-paysanne-fortifiante
p268
aV/fr/mmorpg/encyclopedie/consommables/10768-potion-amelioration-petit-chienchien-noir
p269
aV/fr/mmorpg/encyclopedie/consommables/10775-potion-amelioration-marcassin
p270
aV/fr/mmorpg/encyclopedie/consommables/13666-potion-amelioration-kafarce
p271
aV/fr/mmorpg/encyclopedie/consommables/15562-boite-fragments-solide
p272
aV/fr/mmorpg/encyclopedie/consommables/16433-gaufre
p273
aV/fr/mmorpg/encyclopedie/consommables/15253-potion-amelioration-snouffle
p274
aV/fr/mmorpg/encyclopedie/consommables/16434-gaufre
p275
aV/fr/mmorpg/encyclopedie/consommables/2031-pain-seigle-resistant
p276
aV/fr/mmorpg/encyclopedie/consommables/7788-foudroyeur-bambou-sombre
p277
aV/fr/mmorpg/encyclopedie/consommables/14787-dragofesse-dramak
p278
aV/fr/mmorpg/encyclopedie/consommables/14788-mangeoire-dragon-cochon
p279
aV/fr/mmorpg/encyclopedie/consommables/14710-abreuvoir-moon
p280
aV/fr/mmorpg/encyclopedie/consommables/14735-baffeur-koulosse
p281
aV/fr/mmorpg/encyclopedie/consommables/14723-foudroyeur-meulou
p282
aV/fr/mmorpg/encyclopedie/consommables/15276-foudroyeur-mallefisk
p283
aV/fr/mmorpg/encyclopedie/consommables/17515-potion-amelioration-minikrone
p284
aV/fr/mmorpg/encyclopedie/consommables/1820-kralamoure-grille
p285
aV/fr/mmorpg/encyclopedie/consommables/1713-potion-raide-boule
p286
aV/fr/mmorpg/encyclopedie/consommables/16933-buche-oliviolet
p287
aV/fr/mmorpg/encyclopedie/consommables/17183-pot-feu-goutu
p288
aV/fr/mmorpg/encyclopedie/consommables/17184-pot-feu-goutu-fortifiant
p289
aV/fr/mmorpg/encyclopedie/consommables/16432-pain-epices
p290
aV/fr/mmorpg/encyclopedie/consommables/1859-kralamoure-unique-grille
p291
aV/fr/mmorpg/encyclopedie/consommables/17817-potion-amelioration-glub
p292
aV/fr/mmorpg/encyclopedie/consommables/17416-caresseur-chouque
p293
aV/fr/mmorpg/encyclopedie/consommables/16287-abreuvoir-reine-nyee
p294
aV/fr/mmorpg/encyclopedie/consommables/1837-brochet-tupe-halett-farci
p295
aV/fr/mmorpg/encyclopedie/consommables/15262-coffre-surprenant
p296
aV/fr/mmorpg/encyclopedie/consommables/17181-terrine-bontarienne
p297
aV/fr/mmorpg/encyclopedie/consommables/16932-buche-erable
p298
aV/fr/mmorpg/encyclopedie/consommables/17182-terrine-bontarienne-fortifiante
p299
aV/fr/mmorpg/encyclopedie/consommables/1405-potion-eau-fee
p300
aV/fr/mmorpg/encyclopedie/consommables/2028-pain-gouin
p301
aV/fr/mmorpg/encyclopedie/consommables/16407-potion-geniale
p302
aV/fr/mmorpg/encyclopedie/consommables/522-biscotte
p303
aV/fr/mmorpg/encyclopedie/consommables/14550-potion-amelioration-fosfo
p304
aV/fr/mmorpg/encyclopedie/consommables/15237-potion-voyageur-dimensionnel
p305
aV/fr/mmorpg/encyclopedie/consommables/15561-boite-fragments-surprenante
p306
aV/fr/mmorpg/encyclopedie/consommables/15137-potion-amelioration-black-tiwabbit
p307
aV/fr/mmorpg/encyclopedie/consommables/1835-brochet-farci
p308
aV/fr/mmorpg/encyclopedie/consommables/14776-mangeoire-daigoro
p309
aV/fr/mmorpg/encyclopedie/consommables/10673-potion-hmmmmm
p310
aV/fr/mmorpg/encyclopedie/consommables/14746-dragofesse-gourlo-terrible
p311
aV/fr/mmorpg/encyclopedie/consommables/14762-caresseur-wa-wobot
p312
aV/fr/mmorpg/encyclopedie/consommables/17180-parmentier-fortifiant-oignon
p313
aV/fr/mmorpg/encyclopedie/consommables/1712-potion-pahoa-raide
p314
aV/fr/mmorpg/encyclopedie/consommables/11037-potion-amelioration-chienchien-tigre
p315
aV/fr/mmorpg/encyclopedie/consommables/16931-buche-bombu
p316
aV/fr/mmorpg/encyclopedie/consommables/692-pain-consistant
p317
aV/fr/mmorpg/encyclopedie/consommables/1825-sardine-etouffee
p318
aV/fr/mmorpg/encyclopedie/consommables/17179-parmentier-oignon
p319
aV/fr/mmorpg/encyclopedie/consommables/1827-sardine-sombre-etouffee
p320
aV/fr/mmorpg/encyclopedie/consommables/14761-caresseur-craqueleur-legendaire
p321
aV/fr/mmorpg/encyclopedie/consommables/14786-baffeur-nelween
p322
aV/fr/mmorpg/encyclopedie/consommables/10669-potion-crapaud-mufle
p323
aV/fr/mmorpg/encyclopedie/consommables/7602-abreuvoir-bambou
p324
aV/fr/mmorpg/encyclopedie/consommables/7619-mangeoire-bambou
p325
aV/fr/mmorpg/encyclopedie/consommables/15261-coffre-intrigant
p326
aV/fr/mmorpg/encyclopedie/consommables/16930-buche-chene
p327
aV/fr/mmorpg/encyclopedie/consommables/2025-briochette-magique
p328
aV/fr/mmorpg/encyclopedie/consommables/7696-dragofesse-cuir-violet-bwork
p329
aV/fr/mmorpg/encyclopedie/consommables/10770-potion-amelioration-ross
p330
aV/fr/mmorpg/encyclopedie/consommables/9035-potion-enclos-guilde
p331
aV/fr/mmorpg/encyclopedie/consommables/16406-potion-religieuse
p332
aV/fr/mmorpg/encyclopedie/consommables/7737-caresseur-plume-tofu-malefique
p333
aV/fr/mmorpg/encyclopedie/consommables/7799-saut-sifflard
p334
aV/fr/mmorpg/encyclopedie/consommables/10764-potion-amelioration-mini-wa
p335
aV/fr/mmorpg/encyclopedie/consommables/11039-potion-amelioration-chauffe-souris-delavee
p336
aV/fr/mmorpg/encyclopedie/consommables/10772-potion-amelioration-wabbit
p337
aV/fr/mmorpg/encyclopedie/consommables/1817-carpette-vapeur
p338
aV/fr/mmorpg/encyclopedie/consommables/17177-friture-amakneenne
p339
aV/fr/mmorpg/encyclopedie/consommables/1818-carpe-vapeur
p340
aV/fr/mmorpg/encyclopedie/consommables/17178-friture-amakneenne-fortifiante
p341
aV/fr/mmorpg/encyclopedie/consommables/282-potion-soin-superieure
p342
aV/fr/mmorpg/encyclopedie/consommables/996-multygely
p343
aV/fr/mmorpg/encyclopedie/consommables/15560-boite-fragments-intrigante
p344
aV/fr/mmorpg/encyclopedie/consommables/7762-baffeur-bambou
p345
aV/fr/mmorpg/encyclopedie/consommables/10752-potion-amelioration-bilby
p346
aV/fr/mmorpg/encyclopedie/consommables/11010-potion-amelioration-chacha-glaces
p347
aV/fr/mmorpg/encyclopedie/consommables/7787-foudroyeur-bambou
p348
aV/fr/mmorpg/encyclopedie/consommables/16047-coffre-brumen
p349
aV/fr/mmorpg/encyclopedie/consommables/10777-potion-amelioration-tiwabbit-kiafin
p350
aV/fr/mmorpg/encyclopedie/consommables/2024-briochette
p351
aV/fr/mmorpg/encyclopedie/consommables/994-rougely
p352
aV/fr/mmorpg/encyclopedie/consommables/993-vertgely
p353
aV/fr/mmorpg/encyclopedie/consommables/14734-baffeur-gelee-royale
p354
aV/fr/mmorpg/encyclopedie/consommables/14775-mangeoire-kanniboul-ebil
p355
aV/fr/mmorpg/encyclopedie/consommables/14722-foudroyeur-blop-royal
p356
aV/fr/mmorpg/encyclopedie/consommables/995-blugely
p357
aV/fr/mmorpg/encyclopedie/consommables/10754-potion-amelioration-bworky
p358
aV/fr/mmorpg/encyclopedie/consommables/13234-potion-amelioration-krolimea
p359
aV/fr/mmorpg/encyclopedie/consommables/580-potion-ghetto-raide
p360
aV/fr/mmorpg/encyclopedie/consommables/12193-potion-amelioration-phenix
p361
aV/fr/mmorpg/encyclopedie/consommables/13684-potion-amelioration-toukancre
p362
aV/fr/mmorpg/encyclopedie/consommables/1752-poisson-pane-frit
p363
aV/fr/mmorpg/encyclopedie/consommables/17175-salade-sufokienne
p364
aV/fr/mmorpg/encyclopedie/consommables/17176-salade-sufokienne-fortifiante
p365
aV/fr/mmorpg/encyclopedie/consommables/10811-potion-amelioration-chercheur-ogrines
p366
aV/fr/mmorpg/encyclopedie/consommables/14426-potion-vigile
p367
aV/fr/mmorpg/encyclopedie/consommables/1677-potion-dantegoulesque
p368
aV/fr/mmorpg/encyclopedie/consommables/10759-potion-amelioration-ecureuil-chenapan
p369
aV/fr/mmorpg/encyclopedie/consommables/13076-potion-amelioration-mekrabe
p370
aV/fr/mmorpg/encyclopedie/consommables/13672-potion-amelioration-bulbouture
p371
aV/fr/mmorpg/encyclopedie/consommables/14442-potion-croque-mort
p372
aV/fr/mmorpg/encyclopedie/consommables/15591-potion-oubli-sort
p373
aV/fr/mmorpg/encyclopedie/consommables/16431-pain-mie
p374
aV/fr/mmorpg/encyclopedie/consommables/1756-poisson-igloo-frit
p375
aV/fr/mmorpg/encyclopedie/consommables/14443-potion-guerisseur
p376
aV/fr/mmorpg/encyclopedie/consommables/10782-potion-amelioration-shushu-rushu
p377
aV/fr/mmorpg/encyclopedie/consommables/10883-potion-amelioration-raknaille
p378
aV/fr/mmorpg/encyclopedie/consommables/11134-apewicube
p379
aV/fr/mmorpg/encyclopedie/consommables/12980-potion-amelioration-tofu-givre
p380
aV/fr/mmorpg/encyclopedie/consommables/7423-oeuf-larve-doree
p381
aV/fr/mmorpg/encyclopedie/consommables/12968-potion-amelioration-hurledent
p382
aV/fr/mmorpg/encyclopedie/consommables/10753-potion-amelioration-bwak
p383
aV/fr/mmorpg/encyclopedie/consommables/680-parchemin-dore
p384
aV/fr/mmorpg/encyclopedie/consommables/14733-baffeur-corailleur-magistral
p385
aV/fr/mmorpg/encyclopedie/consommables/14773-mangeoire-bworkette
p386
aV/fr/mmorpg/encyclopedie/consommables/14488-cocawotte
p387
aV/fr/mmorpg/encyclopedie/consommables/14721-foudroyeur-kwakwa
p388
aV/fr/mmorpg/encyclopedie/consommables/14745-dragofesse-shin-larve
p389
aV/fr/mmorpg/encyclopedie/consommables/14708-abreuvoir-bulbig-brozeur
p390
aV/fr/mmorpg/encyclopedie/consommables/14760-caresseur-forgerons
p391
aV/fr/mmorpg/encyclopedie/consommables/14709-abreuvoir-wa-wabbit
p392
aV/fr/mmorpg/encyclopedie/consommables/14785-foudroyeur-chafer-r\u014dnin
p393
aV/fr/mmorpg/encyclopedie/consommables/10664-abragland
p394
aV/fr/mmorpg/encyclopedie/consommables/17173-papillote-citron
p395
aV/fr/mmorpg/encyclopedie/consommables/1767-poisson-chaton-fume
p396
aV/fr/mmorpg/encyclopedie/consommables/10762-potion-amelioration-kouin-kouin
p397
aV/fr/mmorpg/encyclopedie/consommables/16405-potion-agare
p398
aV/fr/mmorpg/encyclopedie/consommables/17174-papillote-fortifiante-citron
p399
aV/fr/mmorpg/encyclopedie/consommables/536-pain-flocons-avoine
p400
aV/fr/mmorpg/encyclopedie/consommables/15559-boite-fragments-rouillee
p401
aV/fr/mmorpg/encyclopedie/consommables/1769-poisson-tigre-fume
p402
aV/fr/mmorpg/encyclopedie/consommables/16299-potion-amelioration-moumoute
p403
aV/fr/mmorpg/encyclopedie/consommables/16929-buche-noyer
p404
aV/fr/mmorpg/encyclopedie/consommables/283-potion-soin
p405
aV/fr/mmorpg/encyclopedie/consommables/2038-pain-flocons-avoine-aurifere
p406
aV/fr/mmorpg/encyclopedie/consommables/12182-potion-amelioration-tofuem
p407
aV/fr/mmorpg/encyclopedie/consommables/10769-potion-amelioration-pioute
p408
aV/fr/mmorpg/encyclopedie/consommables/10783-potion-amelioration-vampyrette
p409
aV/fr/mmorpg/encyclopedie/consommables/11863-potion-amelioration-gwo-tofu-ventripotent
p410
aV/fr/mmorpg/encyclopedie/consommables/15260-coffre-rouille
p411
aV/fr/mmorpg/encyclopedie/consommables/8883-potion-foyer-guilde
p412
aV/fr/mmorpg/encyclopedie/consommables/16288-mangeoire-kankreblath
p413
aV/fr/mmorpg/encyclopedie/consommables/14772-mangeoire-batofu
p414
aV/fr/mmorpg/encyclopedie/consommables/14759-caresseur-boostache
p415
aV/fr/mmorpg/encyclopedie/consommables/14744-dragofesse-scarabosse-dore
p416
aV/fr/mmorpg/encyclopedie/consommables/16404-potion-raide-dite
p417
aV/fr/mmorpg/encyclopedie/consommables/10755-potion-amelioration-chacha
p418
aV/fr/mmorpg/encyclopedie/consommables/15402-coffre-frakacia
p419
aV/fr/mmorpg/encyclopedie/consommables/10757-potion-amelioration-chacha-tigre
p420
aV/fr/mmorpg/encyclopedie/consommables/2151-blopisier-empoisonne
p421
aV/fr/mmorpg/encyclopedie/consommables/10780-potion-amelioration-bouloute-parrain
p422
aV/fr/mmorpg/encyclopedie/consommables/524-fougasse
p423
aV/fr/mmorpg/encyclopedie/consommables/8518-moumoules-frites
p424
aV/fr/mmorpg/encyclopedie/consommables/1764-baton-crabe
p425
aV/fr/mmorpg/encyclopedie/consommables/17171-roulade-carne
p426
aV/fr/mmorpg/encyclopedie/consommables/17172-roulade-carne-fortifiante
p427
aV/fr/mmorpg/encyclopedie/consommables/1766-baton-crabe-exotique
p428
aV/fr/mmorpg/encyclopedie/consommables/14732-baffeur-bouftou-royal
p429
aV/fr/mmorpg/encyclopedie/consommables/15163-potion-diligence
p430
aV/fr/mmorpg/encyclopedie/consommables/17038-baffeur-kardorim
p431
aV/fr/mmorpg/encyclopedie/consommables/678-parchemin-ivoire
p432
aV/fr/mmorpg/encyclopedie/consommables/8621-cawotte-maudite
p433
aV/fr/mmorpg/encyclopedie/consommables/8626-nisitik-miditik
p434
aV/fr/mmorpg/encyclopedie/consommables/6964-potion-cite-brakmar
p435
aV/fr/mmorpg/encyclopedie/consommables/528-carasau
p436
aV/fr/mmorpg/encyclopedie/consommables/6965-potion-cite-bonta
p437
aV/fr/mmorpg/encyclopedie/consommables/14447-potion-temple-alliances
p438
aV/fr/mmorpg/encyclopedie/consommables/15248-coffre-insignifiant
p439
aV/fr/mmorpg/encyclopedie/consommables/15558-boite-fragments-insignifiante
p440
aV/fr/mmorpg/encyclopedie/consommables/15270-coffre-loterie
p441
aV/fr/mmorpg/encyclopedie/consommables/10756-potion-amelioration-chacha-angora
p442
aV/fr/mmorpg/encyclopedie/consommables/2034-sucre-orge
p443
aV/fr/mmorpg/encyclopedie/consommables/8514-cervelle-vampire
p444
aV/fr/mmorpg/encyclopedie/consommables/17169-beignet-astrubien
p445
aV/fr/mmorpg/encyclopedie/consommables/10663-brioche-viande-bouftou
p446
aV/fr/mmorpg/encyclopedie/consommables/13105-potion-amelioration-ploup
p447
aV/fr/mmorpg/encyclopedie/consommables/12987-potion-amelioration-sourisette
p448
aV/fr/mmorpg/encyclopedie/consommables/10773-potion-amelioration-walk
p449
aV/fr/mmorpg/encyclopedie/consommables/16928-buche-chataignier
p450
aV/fr/mmorpg/encyclopedie/consommables/1832-truite-flambee
p451
aV/fr/mmorpg/encyclopedie/consommables/15236-potion-chasseur-tresor
p452
aV/fr/mmorpg/encyclopedie/consommables/17799-potion-amelioration-tirubim
p453
aV/fr/mmorpg/encyclopedie/consommables/11040-potion-amelioration-gupin
p454
aV/fr/mmorpg/encyclopedie/consommables/1834-truite-ancestrale-flambee
p455
aV/fr/mmorpg/encyclopedie/consommables/17170-beignet-astrubien-fortifiant
p456
aV/fr/mmorpg/encyclopedie/consommables/10884-potion-amelioration-meuch
p457
aV/fr/mmorpg/encyclopedie/consommables/14437-potion-amelioration-boskito
p458
aV/fr/mmorpg/encyclopedie/consommables/1183-potion-mini-soin-superieure
p459
aV/fr/mmorpg/encyclopedie/consommables/16403-potion-divination
p460
aV/fr/mmorpg/encyclopedie/consommables/10760-potion-amelioration-feanor
p461
aV/fr/mmorpg/encyclopedie/consommables/12999-potion-amelioration-rauleur
p462
aV/fr/mmorpg/encyclopedie/consommables/10211-elixir-sadida
p463
aV/fr/mmorpg/encyclopedie/consommables/6584-grande-fee-artifice-bleue-virevoltante
p464
aV/fr/mmorpg/encyclopedie/consommables/10212-elixir-cra
p465
aV/fr/mmorpg/encyclopedie/consommables/6554-grande-fee-artifice-rouge-virevoltante
p466
aV/fr/mmorpg/encyclopedie/consommables/14719-foudroyeur-mob-eponge
p467
aV/fr/mmorpg/encyclopedie/consommables/12156-elixir-roublard
p468
aV/fr/mmorpg/encyclopedie/consommables/10213-elixir-iop
p469
aV/fr/mmorpg/encyclopedie/consommables/16135-elixir-eliotrope
p470
aV/fr/mmorpg/encyclopedie/consommables/10214-elixir-ecaflip
p471
aV/fr/mmorpg/encyclopedie/consommables/12228-elixir-zobal
p472
aV/fr/mmorpg/encyclopedie/consommables/6641-grande-fee-artifice-multicolore-virevoltante
p473
aV/fr/mmorpg/encyclopedie/consommables/10208-elixir-pandawa
p474
aV/fr/mmorpg/encyclopedie/consommables/10215-elixir-xelor
p475
aV/fr/mmorpg/encyclopedie/consommables/10209-elixir-sacrieur
p476
aV/fr/mmorpg/encyclopedie/consommables/10216-elixir-feca
p477
aV/fr/mmorpg/encyclopedie/consommables/10217-elixir-enutrof
p478
aV/fr/mmorpg/encyclopedie/consommables/13278-elixir-steamer
p479
aV/fr/mmorpg/encyclopedie/consommables/14707-abreuvoir-tournesol-affame
p480
aV/fr/mmorpg/encyclopedie/consommables/10218-elixir-osamodas
p481
aV/fr/mmorpg/encyclopedie/consommables/10219-elixir-sram
p482
aV/fr/mmorpg/encyclopedie/consommables/6599-grande-fee-artifice-jaune-virevoltante
p483
aV/fr/mmorpg/encyclopedie/consommables/6569-grande-fee-artifice-verte-virevoltante
p484
aV/fr/mmorpg/encyclopedie/consommables/13442-potion-bibliotemple
p485
aV/fr/mmorpg/encyclopedie/consommables/10210-elixir-eniripsa
p486
aV/fr/mmorpg/encyclopedie/consommables/6553-fee-artifice-rouge-virevoltante
p487
aV/fr/mmorpg/encyclopedie/consommables/6640-fee-artifice-multicolore-virevoltante
p488
aV/fr/mmorpg/encyclopedie/consommables/6598-fee-artifice-jaune-virevoltante
p489
aV/fr/mmorpg/encyclopedie/consommables/6568-fee-artifice-verte-virevoltante
p490
aV/fr/mmorpg/encyclopedie/consommables/6583-fee-artifice-bleue-virevoltante
p491
aV/fr/mmorpg/encyclopedie/consommables/6597-petite-fee-artifice-jaune-virevoltante
p492
aV/fr/mmorpg/encyclopedie/consommables/6567-petite-fee-artifice-verte-virevoltante
p493
aV/fr/mmorpg/encyclopedie/consommables/6582-petite-fee-artifice-bleue-virevoltante
p494
aV/fr/mmorpg/encyclopedie/consommables/6552-petite-fee-artifice-rouge-virevoltante
p495
aV/fr/mmorpg/encyclopedie/consommables/6639-petite-fee-artifice-multicolore-virevoltante
p496
aV/fr/mmorpg/encyclopedie/consommables/6596-grande-fee-artifice-jaune-crepitante
p497
aV/fr/mmorpg/encyclopedie/consommables/6566-grande-fee-artifice-verte-crepitante
p498
aV/fr/mmorpg/encyclopedie/consommables/6581-grande-fee-artifice-bleue-crepitante
p499
aV/fr/mmorpg/encyclopedie/consommables/6551-grande-fee-artifice-rouge-crepitante
p500
aV/fr/mmorpg/encyclopedie/consommables/6638-grande-fee-artifice-multicolore-crepitante
p501
aV/fr/mmorpg/encyclopedie/consommables/6595-fee-artifice-jaune-crepitante
p502
aV/fr/mmorpg/encyclopedie/consommables/6565-fee-artifice-verte-crepitante
p503
aV/fr/mmorpg/encyclopedie/consommables/6580-fee-artifice-bleue-crepitante
p504
aV/fr/mmorpg/encyclopedie/consommables/6550-fee-artifice-rouge-crepitante
p505
aV/fr/mmorpg/encyclopedie/consommables/6637-fee-artifice-multicolore-crepitante
p506
aV/fr/mmorpg/encyclopedie/consommables/12008-potion-croquette-majeure
p507
aV/fr/mmorpg/encyclopedie/consommables/7400-parchemin-lie
p508
aV/fr/mmorpg/encyclopedie/consommables/7401-parchemin-vierge
p509
aV/fr/mmorpg/encyclopedie/consommables/17422-bouillon-chair-fortifiant
p510
aV/fr/mmorpg/encyclopedie/consommables/6579-petite-fee-artifice-bleue-crepitante
p511
aV/fr/mmorpg/encyclopedie/consommables/7402-lot-dix-parchemins-vierges
p512
aV/fr/mmorpg/encyclopedie/consommables/17168-boulette-viande
p513
aV/fr/mmorpg/encyclopedie/consommables/6549-petite-fee-artifice-rouge-crepitante
p514
aV/fr/mmorpg/encyclopedie/consommables/6594-petite-fee-artifice-jaune-crepitante
p515
aV/fr/mmorpg/encyclopedie/consommables/521-michette
p516
aV/fr/mmorpg/encyclopedie/consommables/1830-goujon-kiye-tranche
p517
aV/fr/mmorpg/encyclopedie/consommables/6564-petite-fee-artifice-verte-crepitante
p518
aV/fr/mmorpg/encyclopedie/consommables/16927-buche-frene
p519
aV/fr/mmorpg/encyclopedie/consommables/7412-lot-cinquante-parchemins-vierges
p520
aV/fr/mmorpg/encyclopedie/consommables/2020-pain-dore
p521
aV/fr/mmorpg/encyclopedie/consommables/6636-petite-fee-artifice-multicolore-crepitante
p522
aV/fr/mmorpg/encyclopedie/consommables/548-potion-rappel
p523
aV/fr/mmorpg/encyclopedie/consommables/16401-potion-droide
p524
aV/fr/mmorpg/encyclopedie/consommables/10085-ordre-execution
p525
aV/fr/mmorpg/encyclopedie/consommables/16402-potion-raide-mhor
p526
aV/fr/mmorpg/encyclopedie/consommables/1811-beignet-greuvette
p527
aV/fr/mmorpg/encyclopedie/consommables/15905-coffre-fouduglen
p528
aV/fr/mmorpg/encyclopedie/consommables/12007-potion-croquette-mineure
p529
aV/fr/mmorpg/encyclopedie/consommables/1829-beignet-greuvette-horreur
p530
aV/fr/mmorpg/encyclopedie/consommables/6578-grande-fee-artifice-bleue-fontaine
p531
aV/fr/mmorpg/encyclopedie/consommables/6548-grande-fee-artifice-rouge-fontaine
p532
aV/fr/mmorpg/encyclopedie/consommables/6593-grande-fee-artifice-jaune-fontaine
p533
aV/fr/mmorpg/encyclopedie/consommables/6563-grande-fee-artifice-verte-fontaine
p534
aV/fr/mmorpg/encyclopedie/consommables/6635-grande-fee-artifice-multicolore-fontaine
p535
aV/fr/mmorpg/encyclopedie/consommables/6577-fee-artifice-bleue-fontaine
p536
aV/fr/mmorpg/encyclopedie/consommables/6547-fee-artifice-rouge-fontaine
p537
aV/fr/mmorpg/encyclopedie/consommables/6592-fee-artifice-jaune-fontaine
p538
aV/fr/mmorpg/encyclopedie/consommables/6562-fee-artifice-verte-fontaine
p539
aV/fr/mmorpg/encyclopedie/consommables/6634-fee-artifice-multicolore-fontaine
p540
aV/fr/mmorpg/encyclopedie/consommables/6546-petite-fee-artifice-rouge-fontaine
p541
aV/fr/mmorpg/encyclopedie/consommables/6591-petite-fee-artifice-jaune-fontaine
p542
aV/fr/mmorpg/encyclopedie/consommables/6561-petite-fee-artifice-verte-fontaine
p543
aV/fr/mmorpg/encyclopedie/consommables/6633-petite-fee-artifice-multicolore-fontaine
p544
aV/fr/mmorpg/encyclopedie/consommables/6576-petite-fee-artifice-bleue-fontaine
p545
aV/fr/mmorpg/encyclopedie/consommables/6560-grande-fee-artifice-verte-tournoyante
p546
aV/fr/mmorpg/encyclopedie/consommables/7316-potion-oubli-percepteur-armure-terrestre
p547
aV/fr/mmorpg/encyclopedie/consommables/7323-potion-oubli-percepteur-desenvoutement
p548
aV/fr/mmorpg/encyclopedie/consommables/7317-potion-oubli-percepteur-armure-venteuse
p549
aV/fr/mmorpg/encyclopedie/consommables/7324-potion-oubli-percepteur-compulsion-masse
p550
aV/fr/mmorpg/encyclopedie/consommables/6632-grande-fee-artifice-multicolore-tournoyante
p551
aV/fr/mmorpg/encyclopedie/consommables/7318-potion-oubli-percepteur-flamme
p552
aV/fr/mmorpg/encyclopedie/consommables/7325-potion-oubli-percepteur-destabilisation
p553
aV/fr/mmorpg/encyclopedie/consommables/7319-potion-oubli-percepteur-cyclone
p554
aV/fr/mmorpg/encyclopedie/consommables/7326-potion-oubli-percepteur-pods
p555
aV/fr/mmorpg/encyclopedie/consommables/7327-potion-oubli-percepteur-nombre-percepteur
p556
aV/fr/mmorpg/encyclopedie/consommables/7328-potion-oubli-percepteur-prospection
p557
aV/fr/mmorpg/encyclopedie/consommables/7329-potion-oubli-percepteur-experience
p558
aV/fr/mmorpg/encyclopedie/consommables/7320-potion-oubli-percepteur-vague
p559
aV/fr/mmorpg/encyclopedie/consommables/6575-grande-fee-artifice-bleue-tournoyante
p560
aV/fr/mmorpg/encyclopedie/consommables/7314-potion-oubli-percepteur-armure-aqueuse
p561
aV/fr/mmorpg/encyclopedie/consommables/7321-potion-oubli-percepteur-rocher
p562
aV/fr/mmorpg/encyclopedie/consommables/6545-grande-fee-artifice-rouge-tournoyante
p563
aV/fr/mmorpg/encyclopedie/consommables/6590-grande-fee-artifice-jaune-tournoyante
p564
aV/fr/mmorpg/encyclopedie/consommables/7315-potion-oubli-percepteur-armure-incandescente
p565
aV/fr/mmorpg/encyclopedie/consommables/7322-potion-oubli-percepteur-mot-soignant
p566
aV/fr/mmorpg/encyclopedie/consommables/6631-fee-artifice-multicolore-tournoyante
p567
aV/fr/mmorpg/encyclopedie/consommables/7759-baffeur-frene
p568
aV/fr/mmorpg/encyclopedie/consommables/7775-foudroyeur-frene
p569
aV/fr/mmorpg/encyclopedie/consommables/7607-mangeoire-frene
p570
aV/fr/mmorpg/encyclopedie/consommables/6589-fee-artifice-jaune-tournoyante
p571
aV/fr/mmorpg/encyclopedie/consommables/6559-fee-artifice-verte-tournoyante
p572
aV/fr/mmorpg/encyclopedie/consommables/7590-abreuvoir-frene
p573
aV/fr/mmorpg/encyclopedie/consommables/6574-fee-artifice-bleue-tournoyante
p574
aV/fr/mmorpg/encyclopedie/consommables/6544-fee-artifice-rouge-tournoyante
p575
aV/fr/mmorpg/encyclopedie/consommables/8519-gatrool
p576
aV/fr/mmorpg/encyclopedie/consommables/2542-potion-foyer
p577
aV/fr/mmorpg/encyclopedie/consommables/6630-petite-fee-artifice-multicolore-tournoyante
p578
aV/fr/mmorpg/encyclopedie/consommables/6588-petite-fee-artifice-jaune-tournoyante
p579
aV/fr/mmorpg/encyclopedie/consommables/6558-petite-fee-artifice-verte-tournoyante
p580
aV/fr/mmorpg/encyclopedie/consommables/6573-petite-fee-artifice-bleue-tournoyante
p581
aV/fr/mmorpg/encyclopedie/consommables/6543-petite-fee-artifice-rouge-tournoyante
p582
aV/fr/mmorpg/encyclopedie/consommables/6587-grande-fee-artifice-jaune
p583
aV/fr/mmorpg/encyclopedie/consommables/6557-grande-fee-artifice-verte
p584
aV/fr/mmorpg/encyclopedie/consommables/6572-grande-fee-artifice-bleue
p585
aV/fr/mmorpg/encyclopedie/consommables/6542-grande-fee-artifice-rouge
p586
aV/fr/mmorpg/encyclopedie/consommables/6629-grande-fee-artifice-multicolore
p587
aV/fr/mmorpg/encyclopedie/consommables/6586-fee-artifice-jaune
p588
aV/fr/mmorpg/encyclopedie/consommables/6556-fee-artifice-verte
p589
aV/fr/mmorpg/encyclopedie/consommables/6571-fee-artifice-bleue
p590
aV/fr/mmorpg/encyclopedie/consommables/6541-fee-artifice-rouge
p591
aV/fr/mmorpg/encyclopedie/consommables/6628-fee-artifice-multicolore
p592
aV/fr/mmorpg/encyclopedie/consommables/9639-shigekax-coco
p593
aV/fr/mmorpg/encyclopedie/consommables/10398-parchemin-mineur
p594
aV/fr/mmorpg/encyclopedie/consommables/10677-shigekax-kill-coos
p595
aV/fr/mmorpg/encyclopedie/consommables/10792-potion-soin-debutant
p596
aV/fr/mmorpg/encyclopedie/consommables/11687-bonbon-menthe-petit-prospecteur
p597
aV/fr/mmorpg/encyclopedie/consommables/11997-paire-skis-souples-jetables
p598
aV/fr/mmorpg/encyclopedie/consommables/12248-temeraire
p599
aV/fr/mmorpg/encyclopedie/consommables/12286-super-heros
p600
aV/fr/mmorpg/encyclopedie/consommables/12293-pleurer
p601
aV/fr/mmorpg/encyclopedie/consommables/12301-mains-hanches
p602
aV/fr/mmorpg/encyclopedie/consommables/12349-manolias
p603
aV/fr/mmorpg/encyclopedie/consommables/12611-soupe-plimok
p604
aV/fr/mmorpg/encyclopedie/consommables/12806-parchemin-sort-special-pandawa-ivresse
p605
aV/fr/mmorpg/encyclopedie/consommables/12813-parchemin-sort-special-xelor-raulebaque
p606
aV/fr/mmorpg/encyclopedie/consommables/12844-traineau-pain-epices
p607
aV/fr/mmorpg/encyclopedie/consommables/13436-bonbon-halouine
p608
aV/fr/mmorpg/encyclopedie/consommables/13450-sukette-prune
p609
aV/fr/mmorpg/encyclopedie/consommables/13467-halouine
p610
aV/fr/mmorpg/encyclopedie/consommables/13506-piou
p611
aV/fr/mmorpg/encyclopedie/consommables/13614-craqueleur-glaces-sucre-glace
p612
aV/fr/mmorpg/encyclopedie/consommables/13847-perle-ame
p613
aV/fr/mmorpg/encyclopedie/consommables/6647-magma-brakmarien
p614
aV/fr/mmorpg/encyclopedie/consommables/7594-abreuvoir-charme
p615
aV/fr/mmorpg/encyclopedie/consommables/7626-baffeur-chataignier
p616
aV/fr/mmorpg/encyclopedie/consommables/7688-mangeoire-bois-bambouto-sacre
p617
aV/fr/mmorpg/encyclopedie/consommables/7695-dragofesse-cuir-cochon-lait
p618
aV/fr/mmorpg/encyclopedie/consommables/7734-caresseur-plume-piou-rouge
p619
aV/fr/mmorpg/encyclopedie/consommables/7741-caresseur-plume-kwak-vent
p620
aV/fr/mmorpg/encyclopedie/consommables/7758-baffeur-charme
p621
aV/fr/mmorpg/encyclopedie/consommables/7772-baffeur-bambou-magique
p622
aV/fr/mmorpg/encyclopedie/consommables/7796-foudroyeur-bois-bambouto-sacre
p623
aV/fr/mmorpg/encyclopedie/consommables/7804-bonbon-energetique
p624
aV/fr/mmorpg/encyclopedie/consommables/8953-shigekax-chocolat
p625
aV/fr/mmorpg/encyclopedie/consommables/14408-fee-artifice-fleurie
p626
aV/fr/mmorpg/encyclopedie/consommables/14871-huer
p627
aV/fr/mmorpg/encyclopedie/consommables/15209-mains-derriere-dos
p628
aV/fr/mmorpg/encyclopedie/consommables/15355-caillou-enutrof
p629
aV/fr/mmorpg/encyclopedie/consommables/15805-voile-eidolonique-ikargn
p630
aV/fr/mmorpg/encyclopedie/consommables/16132-transcendant
p631
aV/fr/mmorpg/encyclopedie/consommables/16822-sachet-citrons
p632
aV/fr/mmorpg/encyclopedie/consommables/16839-biere-misere
p633
aV/fr/mmorpg/encyclopedie/consommables/17661-chanceux
p634
aV/fr/mmorpg/encyclopedie/consommables/713-parchemin-forgeron
p635
aV/fr/mmorpg/encyclopedie/consommables/720-parchemin-sort-foudroiement
p636
aV/fr/mmorpg/encyclopedie/consommables/799-parchemin-agilite
p637
aV/fr/mmorpg/encyclopedie/consommables/807-parchemin-vitalite
p638
aV/fr/mmorpg/encyclopedie/consommables/814-puissant-parchemin-chance
p639
aV/fr/mmorpg/encyclopedie/consommables/991-shigekax-menthe
p640
aV/fr/mmorpg/encyclopedie/consommables/1635-lacher-gaz
p641
aV/fr/mmorpg/encyclopedie/consommables/1813-goujon-tranche
p642
aV/fr/mmorpg/encyclopedie/consommables/2087-biere-bagrutte
p643
aV/fr/mmorpg/encyclopedie/consommables/10382-parchemin-bijoutier
p644
aV/fr/mmorpg/encyclopedie/consommables/10399-parchemin-poissonnier
p645
aV/fr/mmorpg/encyclopedie/consommables/10407-parchemin-cordomage
p646
aV/fr/mmorpg/encyclopedie/consommables/10793-pain-debutant
p647
aV/fr/mmorpg/encyclopedie/consommables/10832-craqueloroche
p648
aV/fr/mmorpg/encyclopedie/consommables/11688-bonbon-menthe-prospecteur
p649
aV/fr/mmorpg/encyclopedie/consommables/12186-buche-nowel-rassie
p650
aV/fr/mmorpg/encyclopedie/consommables/12287-mettre-colere
p651
aV/fr/mmorpg/encyclopedie/consommables/12294-pierre-feuille-ciseaux
p652
aV/fr/mmorpg/encyclopedie/consommables/12326-baisser-pouce
p653
aV/fr/mmorpg/encyclopedie/consommables/12612-fricassee-thongue-salee
p654
aV/fr/mmorpg/encyclopedie/consommables/12807-parchemin-sort-special-ecaflip-felintion
p655
aV/fr/mmorpg/encyclopedie/consommables/12814-kipik-chocolat
p656
aV/fr/mmorpg/encyclopedie/consommables/12821-bonhomme-neige-sucre-glace
p657
aV/fr/mmorpg/encyclopedie/consommables/13273-potion-renommage-guilde
p658
aV/fr/mmorpg/encyclopedie/consommables/13420-attirer-attention
p659
aV/fr/mmorpg/encyclopedie/consommables/13444-sukette-fraise
p660
aV/fr/mmorpg/encyclopedie/consommables/13475-bonbon-formateur
p661
aV/fr/mmorpg/encyclopedie/consommables/13507-encourager
p662
aV/fr/mmorpg/encyclopedie/consommables/13521-barre-rabmarac-caramel
p663
aV/fr/mmorpg/encyclopedie/consommables/13615-sakai-firefoux-sucre-glace
p664
aV/fr/mmorpg/encyclopedie/consommables/6585-petite-fee-artifice-jaune
p665
aV/fr/mmorpg/encyclopedie/consommables/6600-grande-fee-artifice-invocatrice-tofu
p666
aV/fr/mmorpg/encyclopedie/consommables/6857-biere-astrub
p667
aV/fr/mmorpg/encyclopedie/consommables/7045-fiole-pandaburg
p668
aV/fr/mmorpg/encyclopedie/consommables/7595-abreuvoir-noyer
p669
aV/fr/mmorpg/encyclopedie/consommables/7610-mangeoire-ebene
p670
aV/fr/mmorpg/encyclopedie/consommables/7627-baffeur-chene
p671
aV/fr/mmorpg/encyclopedie/consommables/7634-dragofesse-classique
p672
aV/fr/mmorpg/encyclopedie/consommables/7627-baffeur-chene
p673
aV/fr/mmorpg/encyclopedie/consommables/7634-dragofesse-classique
p674
aV/fr/mmorpg/encyclopedie/consommables/7689-mangeoire-bois-kokoko
p675
aV/fr/mmorpg/encyclopedie/consommables/7735-caresseur-plume-piou-jaune
p676
aV/fr/mmorpg/encyclopedie/consommables/7742-caresseur-plume-kwak-terre
p677
aV/fr/mmorpg/encyclopedie/consommables/7773-baffeur-bois-bambouto
p678
aV/fr/mmorpg/encyclopedie/consommables/7780-foudroyeur-erable
p679
aV/fr/mmorpg/encyclopedie/consommables/7797-foudroyeur-bois-kokoko
p680
aV/fr/mmorpg/encyclopedie/consommables/8435-ballon-rouge-magique
p681
aV/fr/mmorpg/encyclopedie/consommables/8543-limonade-incarnam
p682
aV/fr/mmorpg/encyclopedie/consommables/14269-longue-vue
p683
aV/fr/mmorpg/encyclopedie/consommables/14485-mimibiote
p684
aV/fr/mmorpg/encyclopedie/consommables/14872-ola
p685
aV/fr/mmorpg/encyclopedie/consommables/15224-voile-eidolonique-tresantene
p686
aV/fr/mmorpg/encyclopedie/consommables/15231-loupe
p687
aV/fr/mmorpg/encyclopedie/consommables/16133-parchemin-sort-special-eliotrope-focus
p688
aV/fr/mmorpg/encyclopedie/consommables/16304-fee-artifice-coloree
p689
aV/fr/mmorpg/encyclopedie/consommables/16823-tonneau-jus-goutu
p690
aV/fr/mmorpg/encyclopedie/consommables/16830-sachet-poivre
p691
aV/fr/mmorpg/encyclopedie/consommables/17453-elementaire
p692
aV/fr/mmorpg/encyclopedie/consommables/17530-parchemin-sort-special-huppermage-traversee
p693
aV/fr/mmorpg/encyclopedie/consommables/714-parchemin-forgeur-dagues
p694
aV/fr/mmorpg/encyclopedie/consommables/721-parchemin-sort-invocation-arakne
p695
aV/fr/mmorpg/encyclopedie/consommables/808-grand-parchemin-vitalite
p696
aV/fr/mmorpg/encyclopedie/consommables/815-parchemin-intelligence
p697
aV/fr/mmorpg/encyclopedie/consommables/992-shigekax-cerise
p698
aV/fr/mmorpg/encyclopedie/consommables/1573-rune-transport
p699
aV/fr/mmorpg/encyclopedie/consommables/2088-biere-chopenbois
p700
aV/fr/mmorpg/encyclopedie/consommables/12288-saluer
p701
aV/fr/mmorpg/encyclopedie/consommables/12295-offrir-cadeau
p702
aV/fr/mmorpg/encyclopedie/consommables/12310-faire-bisou
p703
aV/fr/mmorpg/encyclopedie/consommables/12334-faire-coucou
p704
aV/fr/mmorpg/encyclopedie/consommables/12808-parchemin-sort-special-cra-fleche-dispersion
p705
aV/fr/mmorpg/encyclopedie/consommables/12846-boole-neige
p706
aV/fr/mmorpg/encyclopedie/consommables/13173-fee-artifice-blanche-pwak
p707
aV/fr/mmorpg/encyclopedie/consommables/13180-fee-artifice-verte-pwak
p708
aV/fr/mmorpg/encyclopedie/consommables/13368-froid
p709
aV/fr/mmorpg/encyclopedie/consommables/13421-motus
p710
aV/fr/mmorpg/encyclopedie/consommables/13452-gumizes
p711
aV/fr/mmorpg/encyclopedie/consommables/13522-barre-rabmarac-fraise
p712
aV/fr/mmorpg/encyclopedie/consommables/13616-brioche-nowel
p713
aV/fr/mmorpg/encyclopedie/consommables/14291-potion-renommage-alliance
p714
aV/fr/mmorpg/encyclopedie/consommables/14400-fee-artifice-etoilee
p715
aV/fr/mmorpg/encyclopedie/consommables/14873-boxer
p716
aV/fr/mmorpg/encyclopedie/consommables/15225-voile-eidolonique-pere-phorreur
p717
aV/fr/mmorpg/encyclopedie/consommables/15232-supplier
p718
aV/fr/mmorpg/encyclopedie/consommables/15410-voile-eidolonique-terristocrate
p719
aV/fr/mmorpg/encyclopedie/consommables/15580-phalange-sram
p720
aV/fr/mmorpg/encyclopedie/consommables/16242-colere-bolgrot
p721
aV/fr/mmorpg/encyclopedie/consommables/16824-tonneau-eau-potable
p722
aV/fr/mmorpg/encyclopedie/consommables/16831-sachet-sel
p723
aV/fr/mmorpg/encyclopedie/consommables/7596-abreuvoir-merisier
p724
aV/fr/mmorpg/encyclopedie/consommables/7628-caresseur-classique
p725
aV/fr/mmorpg/encyclopedie/consommables/7635-dragofesse-cuir-boufton-blanc
p726
aV/fr/mmorpg/encyclopedie/consommables/7673-abreuvoir-bois-ancestral
p727
aV/fr/mmorpg/encyclopedie/consommables/7697-dragofesse-cuir-porkass
p728
aV/fr/mmorpg/encyclopedie/consommables/7736-caresseur-plume-piou-rose
p729
aV/fr/mmorpg/encyclopedie/consommables/7767-baffeur-bois-ancestral
p730
aV/fr/mmorpg/encyclopedie/consommables/7774-baffeur-bois-bambouto-sacre
p731
aV/fr/mmorpg/encyclopedie/consommables/7781-foudroyeur-charme
p732
aV/fr/mmorpg/encyclopedie/consommables/7798-foudroyeur-classique
p733
aV/fr/mmorpg/encyclopedie/consommables/8948-shigekax-caramel
p734
aV/fr/mmorpg/encyclopedie/consommables/8955-shigekax-melon
p735
aV/fr/mmorpg/encyclopedie/consommables/8986-eupeoh-bouloute-fotome
p736
aV/fr/mmorpg/encyclopedie/consommables/10383-parchemin-joaillomage
p737
aV/fr/mmorpg/encyclopedie/consommables/10390-parchemin-forgemage-pelles
p738
aV/fr/mmorpg/encyclopedie/consommables/10833-chapain
p739
aV/fr/mmorpg/encyclopedie/consommables/10840-monstre-pain-consommable
p740
aV/fr/mmorpg/encyclopedie/consommables/11689-bonbon-menthe-petit-apprenti
p741
aV/fr/mmorpg/encyclopedie/consommables/11805-fantaisie-eliatrope
p742
aV/fr/mmorpg/encyclopedie/consommables/2351-pain-pinchaut
p743
aV/fr/mmorpg/encyclopedie/consommables/6555-petite-fee-artifice-verte
p744
aV/fr/mmorpg/encyclopedie/consommables/6670-frites-tournesol-sauvage
p745
aV/fr/mmorpg/encyclopedie/consommables/7046-fiole-pandapiler
p746
aV/fr/mmorpg/encyclopedie/consommables/7147-carre-chocolat-lait
p747
aV/fr/mmorpg/encyclopedie/consommables/683-petit-parchemin-force
p748
aV/fr/mmorpg/encyclopedie/consommables/715-parchemin-sculpteur
p749
aV/fr/mmorpg/encyclopedie/consommables/760-pain-curry-curry
p750
aV/fr/mmorpg/encyclopedie/consommables/809-petit-parchemin-chance
p751
aV/fr/mmorpg/encyclopedie/consommables/816-grand-parchemin-intelligence
p752
aV/fr/mmorpg/encyclopedie/consommables/878-parchemin-boulanger
p753
aV/fr/mmorpg/encyclopedie/consommables/2089-biere-pinchaut
p754
aV/fr/mmorpg/encyclopedie/consommables/18116-diplome-r-lyugluglu
p755
aV/fr/mmorpg/encyclopedie/consommables/6570-petite-fee-artifice-bleue
p756
aV/fr/mmorpg/encyclopedie/consommables/6765-lailait
p757
aV/fr/mmorpg/encyclopedie/consommables/7047-fiole-pandapils
p758
aV/fr/mmorpg/encyclopedie/consommables/7148-carre-chocolat-blanc
p759
aV/fr/mmorpg/encyclopedie/consommables/7597-abreuvoir-if
p760
aV/fr/mmorpg/encyclopedie/consommables/7605-abreuvoir-classique
p761
aV/fr/mmorpg/encyclopedie/consommables/7612-mangeoire-erable
p762
aV/fr/mmorpg/encyclopedie/consommables/7629-baffeur-if
p763
aV/fr/mmorpg/encyclopedie/consommables/7636-dragofesse-cuir-boufton-noir
p764
aV/fr/mmorpg/encyclopedie/consommables/7674-abreuvoir-bois-envoute
p765
aV/fr/mmorpg/encyclopedie/consommables/7744-caresseur-plume-pointue-kwak
p766
aV/fr/mmorpg/encyclopedie/consommables/7768-baffeur-bois-envoute
p767
aV/fr/mmorpg/encyclopedie/consommables/7782-foudroyeur-chataignier
p768
aV/fr/mmorpg/encyclopedie/consommables/8949-shigekax-banane
p769
aV/fr/mmorpg/encyclopedie/consommables/8987-eupeoh-scarador-croum
p770
aV/fr/mmorpg/encyclopedie/consommables/468-pain-incarnam
p771
aV/fr/mmorpg/encyclopedie/consommables/684-parchemin-sort
p772
aV/fr/mmorpg/encyclopedie/consommables/716-parchemin-sculpteur-batons
p773
aV/fr/mmorpg/encyclopedie/consommables/800-grand-parchemin-agilite
p774
aV/fr/mmorpg/encyclopedie/consommables/817-puissant-parchemin-intelligence
p775
aV/fr/mmorpg/encyclopedie/consommables/879-parchemin-cordonnier
p776
aV/fr/mmorpg/encyclopedie/consommables/14812-offrir-gateau
p777
aV/fr/mmorpg/encyclopedie/consommables/15226-voile-eidolonique-levitrof
p778
aV/fr/mmorpg/encyclopedie/consommables/15233-frapper-front
p779
aV/fr/mmorpg/encyclopedie/consommables/15411-voile-eidolonique-bouroliste
p780
aV/fr/mmorpg/encyclopedie/consommables/15606-explosif
p781
aV/fr/mmorpg/encyclopedie/consommables/15884-siffler
p782
aV/fr/mmorpg/encyclopedie/consommables/15909-montre-retard
p783
aV/fr/mmorpg/encyclopedie/consommables/16344-vaporeux
p784
aV/fr/mmorpg/encyclopedie/consommables/16825-sachet-epices
p785
aV/fr/mmorpg/encyclopedie/consommables/16832-sachet-oignons
p786
aV/fr/mmorpg/encyclopedie/consommables/17020-garde
p787
aV/fr/mmorpg/encyclopedie/consommables/17532-emoticones-joris
p788
aV/fr/mmorpg/encyclopedie/consommables/17859-bienfaisant
p789
aV/fr/mmorpg/encyclopedie/consommables/18117-diplome-trithons
p790
aV/fr/mmorpg/encyclopedie/consommables/10384-parchemin-boucher
p791
aV/fr/mmorpg/encyclopedie/consommables/10391-parchemin-sculptemage-batons
p792
aV/fr/mmorpg/encyclopedie/consommables/10670-parchemin-flaqueux
p793
aV/fr/mmorpg/encyclopedie/consommables/10795-poisson-deukloche-debutant
p794
aV/fr/mmorpg/encyclopedie/consommables/10827-potion-soin-larvesque
p795
aV/fr/mmorpg/encyclopedie/consommables/11116-uridnac
p796
aV/fr/mmorpg/encyclopedie/consommables/11370-friswein
p797
aV/fr/mmorpg/encyclopedie/consommables/11806-sac-fantaisies-eliatropes
p798
aV/fr/mmorpg/encyclopedie/consommables/12289-allonger
p799
aV/fr/mmorpg/encyclopedie/consommables/12296-montrer-arme
p800
aV/fr/mmorpg/encyclopedie/consommables/12328-sautiller
p801
aV/fr/mmorpg/encyclopedie/consommables/12809-parchemin-sort-special-sacrieur-douleur-partagee
p802
aV/fr/mmorpg/encyclopedie/consommables/12823-kanigrou-hivernal-sucre-glace
p803
aV/fr/mmorpg/encyclopedie/consommables/12847-fee-erie-nowel
p804
aV/fr/mmorpg/encyclopedie/consommables/13181-fee-artifice-rouge-pwak
p805
aV/fr/mmorpg/encyclopedie/consommables/13307-parchemin-sort-special-steamer-brise-ame
p806
aV/fr/mmorpg/encyclopedie/consommables/13314-ballon-baladeur-magique
p807
aV/fr/mmorpg/encyclopedie/consommables/13369-prosterner
p808
aV/fr/mmorpg/encyclopedie/consommables/13422-frotter-mains
p809
aV/fr/mmorpg/encyclopedie/consommables/13446-sukette-pomme
p810
aV/fr/mmorpg/encyclopedie/consommables/13509-beignet-karnaval
p811
aV/fr/mmorpg/encyclopedie/consommables/13523-barre-rabmarac-citron
p812
aV/fr/mmorpg/encyclopedie/consommables/13617-monstre-brioche-nowel
p813
aV/fr/mmorpg/encyclopedie/consommables/13624-potion-kerubim
p814
aV/fr/mmorpg/encyclopedie/consommables/14014-bouf-gomme-gout-sauvage
p815
aV/fr/mmorpg/encyclopedie/consommables/14292-potion-changement-blason-alliance
p816
aV/fr/mmorpg/encyclopedie/consommables/14401-fee-artifice-glandiose
p817
aV/fr/mmorpg/encyclopedie/consommables/14449-fee-artifice-invocatrice-arakne
p818
aV/fr/mmorpg/encyclopedie/consommables/14487-cawotte-pouwwite
p819
aV/fr/mmorpg/encyclopedie/consommables/10967-cervelle-larve
p820
aV/fr/mmorpg/encyclopedie/consommables/10974-fee-artifice-festive
p821
aV/fr/mmorpg/encyclopedie/consommables/11263-fee-artifice-terik
p822
aV/fr/mmorpg/encyclopedie/consommables/11371-frigrowka
p823
aV/fr/mmorpg/encyclopedie/consommables/12297-montrer-peur
p824
aV/fr/mmorpg/encyclopedie/consommables/12312-croiser-bras
p825
aV/fr/mmorpg/encyclopedie/consommables/12800-parchemin-sort-special-roublard-roublabot
p826
aV/fr/mmorpg/encyclopedie/consommables/12817-paquet-cadeau-chocolat
p827
aV/fr/mmorpg/encyclopedie/consommables/13221-coquetel-eportation
p828
aV/fr/mmorpg/encyclopedie/consommables/13454-bonbon-zai-planant
p829
aV/fr/mmorpg/encyclopedie/consommables/13524-barre-rabmarac-orange
p830
aV/fr/mmorpg/encyclopedie/consommables/14015-bouf-gomme-peche
p831
aV/fr/mmorpg/encyclopedie/consommables/14402-fee-artifice-culottee
p832
aV/fr/mmorpg/encyclopedie/consommables/14875-agiter-drapeau-blanc
p833
aV/fr/mmorpg/encyclopedie/consommables/6627-petite-fee-artifice-multicolore
p834
aV/fr/mmorpg/encyclopedie/consommables/7055-fiole-pandneken
p835
aV/fr/mmorpg/encyclopedie/consommables/7149-carre-chocolat-noir
p836
aV/fr/mmorpg/encyclopedie/consommables/7598-abreuvoir-ebene
p837
aV/fr/mmorpg/encyclopedie/consommables/7606-mangeoire-classique
p838
aV/fr/mmorpg/encyclopedie/consommables/7613-mangeoire-charme
p839
aV/fr/mmorpg/encyclopedie/consommables/7637-dragofesse-cuir-bouftou
p840
aV/fr/mmorpg/encyclopedie/consommables/7651-corne-brume
p841
aV/fr/mmorpg/encyclopedie/consommables/7675-abreuvoir-bois-tronknyde
p842
aV/fr/mmorpg/encyclopedie/consommables/7682-abreuvoir-bois-kokoko
p843
aV/fr/mmorpg/encyclopedie/consommables/7699-dragofesse-cuir-sanglier-plaines
p844
aV/fr/mmorpg/encyclopedie/consommables/7738-caresseur-plume-corbac
p845
aV/fr/mmorpg/encyclopedie/consommables/7745-caresseur-plume-maitre-corbac
p846
aV/fr/mmorpg/encyclopedie/consommables/7769-baffeur-bois-tronknyde
p847
aV/fr/mmorpg/encyclopedie/consommables/7776-foudroyeur-chene
p848
aV/fr/mmorpg/encyclopedie/consommables/7783-foudroyeur-noyer
p849
aV/fr/mmorpg/encyclopedie/consommables/7790-foudroyeur-bois-ancestral
p850
aV/fr/mmorpg/encyclopedie/consommables/8988-eupeoh-abra-kadabra-minimino
p851
aV/fr/mmorpg/encyclopedie/consommables/9640-shigekax-prune
p852
aV/fr/mmorpg/encyclopedie/consommables/10385-parchemin-bricoleur
p853
aV/fr/mmorpg/encyclopedie/consommables/10392-parchemin-sculptemage-baguettes
p854
aV/fr/mmorpg/encyclopedie/consommables/10400-parchemin-tailleur
p855
aV/fr/mmorpg/encyclopedie/consommables/10602-parchemin-sort-apprivoisement-monture
p856
aV/fr/mmorpg/encyclopedie/consommables/10796-mexicanos-debutant
p857
aV/fr/mmorpg/encyclopedie/consommables/15227-voile-eidolonique-kamasterisk
p858
aV/fr/mmorpg/encyclopedie/consommables/15234-chercher-tresor
p859
aV/fr/mmorpg/encyclopedie/consommables/15885-danse
p860
aV/fr/mmorpg/encyclopedie/consommables/16819-sachet-aubergines
p861
aV/fr/mmorpg/encyclopedie/consommables/16826-sachet-feuilles-salace
p862
aV/fr/mmorpg/encyclopedie/consommables/16833-sachet-poudre-perlinpainpain
p863
aV/fr/mmorpg/encyclopedie/consommables/16840-biere-bwork
p864
aV/fr/mmorpg/encyclopedie/consommables/15885-danse
p865
aV/fr/mmorpg/encyclopedie/consommables/16819-sachet-aubergines
p866
aV/fr/mmorpg/encyclopedie/consommables/16826-sachet-feuilles-salace
p867
aV/fr/mmorpg/encyclopedie/consommables/16833-sachet-poudre-perlinpainpain
p868
aV/fr/mmorpg/encyclopedie/consommables/16840-biere-bwork
p869
aV/fr/mmorpg/encyclopedie/consommables/17216-emoticones-chacha
p870
aV/fr/mmorpg/encyclopedie/consommables/17526-duelliste
p871
aV/fr/mmorpg/encyclopedie/consommables/17999-psychotique
p872
aV/fr/mmorpg/encyclopedie/consommables/12205-bonbon-nowel
p873
aV/fr/mmorpg/encyclopedie/consommables/12236-agent-infectieux-rosissure
p874
aV/fr/mmorpg/encyclopedie/consommables/12250-sylvestre
p875
aV/fr/mmorpg/encyclopedie/consommables/12306-jouer-flute
p876
aV/fr/mmorpg/encyclopedie/consommables/12320-trace-pneu
p877
aV/fr/mmorpg/encyclopedie/consommables/12609-pique-nique-vulkain
p878
aV/fr/mmorpg/encyclopedie/consommables/12801-parchemin-sort-special-enutrof-retraite-anticipee
p879
aV/fr/mmorpg/encyclopedie/consommables/12825-yiti-neiges-sucre-glace
p880
aV/fr/mmorpg/encyclopedie/consommables/13013-etiquette-remplir
p881
aV/fr/mmorpg/encyclopedie/consommables/13222-krokillage-rouge
p882
aV/fr/mmorpg/encyclopedie/consommables/13448-sukette-citron
p883
aV/fr/mmorpg/encyclopedie/consommables/13525-barre-rabmarac-kola
p884
aV/fr/mmorpg/encyclopedie/consommables/13626-ecrire
p885
aV/fr/mmorpg/encyclopedie/consommables/14016-bouf-gomme-fraicheur-lavande
p886
aV/fr/mmorpg/encyclopedie/consommables/14403-fee-artifice-feignante
p887
aV/fr/mmorpg/encyclopedie/consommables/14573-potion-grobid
p888
aV/fr/mmorpg/encyclopedie/consommables/14876-cracheur-feu
p889
aV/fr/mmorpg/encyclopedie/consommables/15211-ouvrir-portail-poche
p890
aV/fr/mmorpg/encyclopedie/consommables/15312-richissime
p891
aV/fr/mmorpg/encyclopedie/consommables/15987-intemporel
p892
aV/fr/mmorpg/encyclopedie/consommables/7614-mangeoire-chataigner
p893
aV/fr/mmorpg/encyclopedie/consommables/7676-abreuvoir-bambou-dore
p894
aV/fr/mmorpg/encyclopedie/consommables/7683-mangeoire-bois-ancestral
p895
aV/fr/mmorpg/encyclopedie/consommables/7690-mangeoire-bois-tronknyde
p896
aV/fr/mmorpg/encyclopedie/consommables/7739-caresseur-plume-kwak-glace
p897
aV/fr/mmorpg/encyclopedie/consommables/7746-caresseur-plume-tofu-royal
p898
aV/fr/mmorpg/encyclopedie/consommables/7760-baffeur-noyer
p899
aV/fr/mmorpg/encyclopedie/consommables/7777-foudroyeur-if
p900
aV/fr/mmorpg/encyclopedie/consommables/7784-foudroyeur-merisier
p901
aV/fr/mmorpg/encyclopedie/consommables/7791-foudroyeur-bois-envoute
p902
aV/fr/mmorpg/encyclopedie/consommables/8624-ballon-bleu-magique
p903
aV/fr/mmorpg/encyclopedie/consommables/9379-ballotin-chocolat
p904
aV/fr/mmorpg/encyclopedie/consommables/9641-shigekax-praline
p905
aV/fr/mmorpg/encyclopedie/consommables/10386-parchemin-forgemage
p906
aV/fr/mmorpg/encyclopedie/consommables/10393-parchemin-forgemage-dagues
p907
aV/fr/mmorpg/encyclopedie/consommables/10401-parchemin-costumage
p908
aV/fr/mmorpg/encyclopedie/consommables/10603-parchemin-sort-capture-ames
p909
aV/fr/mmorpg/encyclopedie/consommables/10665-coffre-jorbak
p910
aV/fr/mmorpg/encyclopedie/consommables/1515-oeuf-bwak-feu
p911
aV/fr/mmorpg/encyclopedie/consommables/2044-biere-chabrule
p912
aV/fr/mmorpg/encyclopedie/consommables/6666-sucette-tofu
p913
aV/fr/mmorpg/encyclopedie/consommables/16670-bouillon-chair
p914
aV/fr/mmorpg/encyclopedie/consommables/16827-sachet-graisse-gelatineuse
p915
aV/fr/mmorpg/encyclopedie/consommables/16834-sachet-poudre-temporelle
p916
aV/fr/mmorpg/encyclopedie/consommables/17217-emoticones-chienchien
p917
aV/fr/mmorpg/encyclopedie/consommables/679-parchemin-blanc
p918
aV/fr/mmorpg/encyclopedie/consommables/686-petit-parchemin-intelligence
p919
aV/fr/mmorpg/encyclopedie/consommables/718-parchemin-sort-flamiche
p920
aV/fr/mmorpg/encyclopedie/consommables/802-petit-parchemin-sagesse
p921
aV/fr/mmorpg/encyclopedie/consommables/989-shigekax-citron
p922
aV/fr/mmorpg/encyclopedie/consommables/12299-manolias
p923
aV/fr/mmorpg/encyclopedie/consommables/12460-coquetel-ensefal
p924
aV/fr/mmorpg/encyclopedie/consommables/12802-parchemin-sort-special-sram-poisse
p925
aV/fr/mmorpg/encyclopedie/consommables/12819-peluche-chocolat
p926
aV/fr/mmorpg/encyclopedie/consommables/13223-krokillage-jaune
p927
aV/fr/mmorpg/encyclopedie/consommables/13418-poing-leve
p928
aV/fr/mmorpg/encyclopedie/consommables/13456-bonbon-zai-hallucinogene
p929
aV/fr/mmorpg/encyclopedie/consommables/13526-barre-rabmarac-nougat
p930
aV/fr/mmorpg/encyclopedie/consommables/14017-boufballe-surprise
p931
aV/fr/mmorpg/encyclopedie/consommables/14048-parchemin-sort-maitrise-arme
p932
aV/fr/mmorpg/encyclopedie/consommables/14404-fee-artifice-kamas
p933
aV/fr/mmorpg/encyclopedie/consommables/15577-biere-bourreau
p934
aV/fr/mmorpg/encyclopedie/consommables/16828-sachet-haricots
p935
aV/fr/mmorpg/encyclopedie/consommables/16835-sachet-resine
p936
aV/fr/mmorpg/encyclopedie/consommables/17218-emoticones-bilby
p937
aV/fr/mmorpg/encyclopedie/consommables/8430-ballon-jaune-magique
p938
aV/fr/mmorpg/encyclopedie/consommables/8625-ballon-vert-magique
p939
aV/fr/mmorpg/encyclopedie/consommables/8694-piment-confit
p940
aV/fr/mmorpg/encyclopedie/consommables/9039-potion-rappel-prismatique
p941
aV/fr/mmorpg/encyclopedie/consommables/9200-parchemin-sort-invocation-chaferfu
p942
aV/fr/mmorpg/encyclopedie/consommables/9635-shigekax-amande
p943
aV/fr/mmorpg/encyclopedie/consommables/9642-shigekax-mirabelle
p944
aV/fr/mmorpg/encyclopedie/consommables/10387-parchemin-forgeur-marteaux
p945
aV/fr/mmorpg/encyclopedie/consommables/10394-parchemin-sculptemage
p946
aV/fr/mmorpg/encyclopedie/consommables/10402-parchemin-alchimiste
p947
aV/fr/mmorpg/encyclopedie/consommables/10604-parchemin-sort-marteau-moon
p948
aV/fr/mmorpg/encyclopedie/consommables/11498-viande-aventurier
p949
aV/fr/mmorpg/encyclopedie/consommables/11568-pizza-boudin-boufmouth
p950
aV/fr/mmorpg/encyclopedie/consommables/11690-bonbon-menthe-apprenti
p951
aV/fr/mmorpg/encyclopedie/consommables/6643-booden-glace
p952
aV/fr/mmorpg/encyclopedie/consommables/6667-sucette-trool
p953
aV/fr/mmorpg/encyclopedie/consommables/7413-pointer-doigt
p954
aV/fr/mmorpg/encyclopedie/consommables/7608-mangeoire-chene
p955
aV/fr/mmorpg/encyclopedie/consommables/7615-mangeoire-noyer
p956
aV/fr/mmorpg/encyclopedie/consommables/7622-caresseur-plume-tofu
p957
aV/fr/mmorpg/encyclopedie/consommables/7677-abreuvoir-bambou-magique
p958
aV/fr/mmorpg/encyclopedie/consommables/7684-mangeoire-bois-envoute
p959
aV/fr/mmorpg/encyclopedie/consommables/7691-dragofesse-cuir-chef-guerre-bouftou
p960
aV/fr/mmorpg/encyclopedie/consommables/15577-biere-bourreau
p961
aV/fr/mmorpg/encyclopedie/consommables/16828-sachet-haricots
p962
aV/fr/mmorpg/encyclopedie/consommables/16835-sachet-resine
p963
aV/fr/mmorpg/encyclopedie/consommables/17218-emoticones-bilby
p964
aV/fr/mmorpg/encyclopedie/consommables/17667-patee-ecaflip
p965
aV/fr/mmorpg/encyclopedie/consommables/719-parchemin-sort-liberation
p966
aV/fr/mmorpg/encyclopedie/consommables/795-parchemin-force
p967
aV/fr/mmorpg/encyclopedie/consommables/803-parchemin-sagesse
p968
aV/fr/mmorpg/encyclopedie/consommables/810-puissant-parchemin-vitalite
p969
aV/fr/mmorpg/encyclopedie/consommables/1516-oeuf-bwak-terre
p970
aV/fr/mmorpg/encyclopedie/consommables/1826-sardine-huile
p971
aV/fr/mmorpg/encyclopedie/consommables/1895-biere-feubuk
p972
aV/fr/mmorpg/encyclopedie/consommables/2090-biere-ferayeur
p973
aV/fr/mmorpg/encyclopedie/consommables/6644-cone-wayal
p974
aV/fr/mmorpg/encyclopedie/consommables/6668-hot-dog-tofu
p975
aV/fr/mmorpg/encyclopedie/consommables/7591-abreuvoir-chene
p976
aV/fr/mmorpg/encyclopedie/consommables/7609-mangeoire-if
p977
aV/fr/mmorpg/encyclopedie/consommables/7616-mangeoire-merisier
p978
aV/fr/mmorpg/encyclopedie/consommables/7623-caresseur-plume-piou-bleu
p979
aV/fr/mmorpg/encyclopedie/consommables/7678-abreuvoir-bois-bambouto
p980
aV/fr/mmorpg/encyclopedie/consommables/7685-mangeoire-bambou-dore
p981
aV/fr/mmorpg/encyclopedie/consommables/7692-dragofesse-cuir-bouftou-royal
p982
aV/fr/mmorpg/encyclopedie/consommables/7700-dragofesse-cuir-minotoror
p983
aV/fr/mmorpg/encyclopedie/consommables/7755-baffeur-ebene
p984
aV/fr/mmorpg/encyclopedie/consommables/7786-foudroyeur-oliviolet
p985
aV/fr/mmorpg/encyclopedie/consommables/7793-foudroyeur-bambou-dore
p986
aV/fr/mmorpg/encyclopedie/consommables/8145-biere-bwork
p987
aV/fr/mmorpg/encyclopedie/consommables/11994-paire-skis-rustiques-jetables
p988
aV/fr/mmorpg/encyclopedie/consommables/12252-criminel
p989
aV/fr/mmorpg/encyclopedie/consommables/12283-frigorifie
p990
aV/fr/mmorpg/encyclopedie/consommables/12290-agenouiller
p991
aV/fr/mmorpg/encyclopedie/consommables/12308-fleurs
p992
aV/fr/mmorpg/encyclopedie/consommables/12315-applaudir
p993
aV/fr/mmorpg/encyclopedie/consommables/12322-joie
p994
aV/fr/mmorpg/encyclopedie/consommables/12353-trace
p995
aV/fr/mmorpg/encyclopedie/consommables/12461-coquetel-lurique
p996
aV/fr/mmorpg/encyclopedie/consommables/12803-parchemin-sort-special-eniripsa-mot-decisif
p997
aV/fr/mmorpg/encyclopedie/consommables/12827-mini-nuit-sucre-glace
p998
aV/fr/mmorpg/encyclopedie/consommables/12896-buche-nowel
p999
aV/fr/mmorpg/encyclopedie/consommables/13178-fee-artifice-bleue-pwak
p1000
aV/fr/mmorpg/encyclopedie/consommables/13370-chaud
p1001
aV/fr/mmorpg/encyclopedie/consommables/13419-pied-nez
p1002
aV/fr/mmorpg/encyclopedie/consommables/13589-pyrofuego
p1003
aV/fr/mmorpg/encyclopedie/consommables/14397-fee-artifice-invocatrice-boufton-noir
p1004
aV/fr/mmorpg/encyclopedie/consommables/14405-fee-artifice-musicale
p1005
aV/fr/mmorpg/encyclopedie/consommables/14450-fee-artifice-nuageuse
p1006
aV/fr/mmorpg/encyclopedie/consommables/15408-voile-eidolonique-tromblion
p1007
aV/fr/mmorpg/encyclopedie/consommables/15802-voile-eidolonique-farfacette
p1008
aV/fr/mmorpg/encyclopedie/consommables/15888-kamarena
p1009
aV/fr/mmorpg/encyclopedie/consommables/15910-montre-avance
p1010
aV/fr/mmorpg/encyclopedie/consommables/15965-sable-xelor
p1011
aV/fr/mmorpg/encyclopedie/consommables/16829-tonneau-huile-frire
p1012
aV/fr/mmorpg/encyclopedie/consommables/16836-tonneau-sang-scorbute
p1013
aV/fr/mmorpg/encyclopedie/consommables/8378-fragment-magique
p1014
aV/fr/mmorpg/encyclopedie/consommables/8525-oeuf-piou
p1015
aV/fr/mmorpg/encyclopedie/consommables/8950-shigekax-orange
p1016
aV/fr/mmorpg/encyclopedie/consommables/9201-pawchemin-cawotte
p1017
aV/fr/mmorpg/encyclopedie/consommables/9472-shigekax-passion
p1018
aV/fr/mmorpg/encyclopedie/consommables/9636-shigekax-reinette
p1019
aV/fr/mmorpg/encyclopedie/consommables/9643-shigekax-acidule
p1020
aV/fr/mmorpg/encyclopedie/consommables/10388-parchemin-forgemage-marteaux
p1021
aV/fr/mmorpg/encyclopedie/consommables/10395-parchemin-forgeur-haches
p1022
aV/fr/mmorpg/encyclopedie/consommables/10403-parchemin-paysan
p1023
aV/fr/mmorpg/encyclopedie/consommables/10605-parchemin-sort-boomerang-perfide
p1024
aV/fr/mmorpg/encyclopedie/consommables/695-parchemin-bucheron
p1025
aV/fr/mmorpg/encyclopedie/consommables/796-grand-parchemin-force
p1026
aV/fr/mmorpg/encyclopedie/consommables/804-grand-parchemin-sagesse
p1027
aV/fr/mmorpg/encyclopedie/consommables/811-parchemin-chance
p1028
aV/fr/mmorpg/encyclopedie/consommables/1182-potion-mini-soin
p1029
aV/fr/mmorpg/encyclopedie/consommables/1517-oeuf-bwak-air
p1030
aV/fr/mmorpg/encyclopedie/consommables/2332-bonbon-consolation
p1031
aV/fr/mmorpg/encyclopedie/consommables/17219-emoticones-halouine
p1032
aV/fr/mmorpg/encyclopedie/consommables/18111-diplome-plongee
p1033
aV/fr/mmorpg/encyclopedie/consommables/8951-shigekax-poire
p1034
aV/fr/mmorpg/encyclopedie/consommables/9637-shigekax-griotte
p1035
aV/fr/mmorpg/encyclopedie/consommables/10389-parchemin-forgeur-pelles
p1036
aV/fr/mmorpg/encyclopedie/consommables/10396-parchemin-forgemage-haches
p1037
aV/fr/mmorpg/encyclopedie/consommables/10404-parchemin-chasseur
p1038
aV/fr/mmorpg/encyclopedie/consommables/10839-monstre-pain
p1039
aV/fr/mmorpg/encyclopedie/consommables/11995-paire-skis-glissants-jetables
p1040
aV/fr/mmorpg/encyclopedie/consommables/12291-rire
p1041
aV/fr/mmorpg/encyclopedie/consommables/12309-faire-signe-main
p1042
aV/fr/mmorpg/encyclopedie/consommables/12323-lire-livre
p1043
aV/fr/mmorpg/encyclopedie/consommables/12462-coquetel-emaque
p1044
aV/fr/mmorpg/encyclopedie/consommables/12804-parchemin-sort-special-feca-mise-garde
p1045
aV/fr/mmorpg/encyclopedie/consommables/12811-parchemin-sort-special-iop-brokle
p1046
aV/fr/mmorpg/encyclopedie/consommables/13009-racines-jean-gimbre
p1047
aV/fr/mmorpg/encyclopedie/consommables/13179-fee-artifice-jaune-pwak
p1048
aV/fr/mmorpg/encyclopedie/consommables/13270-potion-changement-blason-guilde
p1049
aV/fr/mmorpg/encyclopedie/consommables/13371-gonfler-muscles
p1050
aV/fr/mmorpg/encyclopedie/consommables/14398-fee-artifice-invocatrice-boufton-blanc
p1051
aV/fr/mmorpg/encyclopedie/consommables/14406-fee-artifice-champouf
p1052
aV/fr/mmorpg/encyclopedie/consommables/15214-localiser-portail
p1053
aV/fr/mmorpg/encyclopedie/consommables/15409-voile-eidolonique-eperfide
p1054
aV/fr/mmorpg/encyclopedie/consommables/15803-voile-eidolonique-vindeux
p1055
aV/fr/mmorpg/encyclopedie/consommables/16820-sachet-cendres-eternelles
p1056
aV/fr/mmorpg/encyclopedie/consommables/7686-mangeoire-bambou-magique
p1057
aV/fr/mmorpg/encyclopedie/consommables/7693-dragofesse-cuir-sanglier
p1058
aV/fr/mmorpg/encyclopedie/consommables/7763-baffeur-bombu
p1059
aV/fr/mmorpg/encyclopedie/consommables/7770-baffeur-bambou-dore
p1060
aV/fr/mmorpg/encyclopedie/consommables/7794-foudroyeur-bambou-magique
p1061
aV/fr/mmorpg/encyclopedie/consommables/8951-shigekax-poire
p1062
aV/fr/mmorpg/encyclopedie/consommables/14398-fee-artifice-invocatrice-boufton-blanc
p1063
aV/fr/mmorpg/encyclopedie/consommables/14406-fee-artifice-champouf
p1064
aV/fr/mmorpg/encyclopedie/consommables/15214-localiser-portail
p1065
aV/fr/mmorpg/encyclopedie/consommables/15409-voile-eidolonique-eperfide
p1066
aV/fr/mmorpg/encyclopedie/consommables/15803-voile-eidolonique-vindeux
p1067
aV/fr/mmorpg/encyclopedie/consommables/16820-sachet-cendres-eternelles
p1068
aV/fr/mmorpg/encyclopedie/consommables/16837-biere-atolmond
p1069
aV/fr/mmorpg/encyclopedie/consommables/17063-balistique
p1070
aV/fr/mmorpg/encyclopedie/consommables/17087-abriter-parasol
p1071
aV/fr/mmorpg/encyclopedie/consommables/797-puissant-parchemin-force
p1072
aV/fr/mmorpg/encyclopedie/consommables/805-puissant-parchemin-sagesse
p1073
aV/fr/mmorpg/encyclopedie/consommables/812-grand-parchemin-chance
p1074
aV/fr/mmorpg/encyclopedie/consommables/1518-oeuf-bwak-eau
p1075
aV/fr/mmorpg/encyclopedie/consommables/2085-biere-tabasse
p1076
aV/fr/mmorpg/encyclopedie/consommables/2333-bonbon-rouge-surpuissant
p1077
aV/fr/mmorpg/encyclopedie/consommables/6646-glace-bontarienne
p1078
aV/fr/mmorpg/encyclopedie/consommables/6963-boules-minotoboule
p1079
aV/fr/mmorpg/encyclopedie/consommables/7517-biere-ripate
p1080
aV/fr/mmorpg/encyclopedie/consommables/7593-abreuvoir-chataigner
p1081
aV/fr/mmorpg/encyclopedie/consommables/7601-abreuvoir-oliviolet
p1082
aV/fr/mmorpg/encyclopedie/consommables/7618-mangeoire-oliviolet
p1083
aV/fr/mmorpg/encyclopedie/consommables/7625-baffeur-classique
p1084
aV/fr/mmorpg/encyclopedie/consommables/7687-mangeoire-bois-bambouto
p1085
aV/fr/mmorpg/encyclopedie/consommables/7694-dragofesse-cuir-dragon-cochon
p1086
aV/fr/mmorpg/encyclopedie/consommables/7733-caresseur-plume-piou-vert
p1087
aV/fr/mmorpg/encyclopedie/consommables/7740-caresseur-plume-kwak-flamme
p1088
aV/fr/mmorpg/encyclopedie/consommables/7757-baffeur-erable
p1089
aV/fr/mmorpg/encyclopedie/consommables/7764-baffeur-oliviolet
p1090
aV/fr/mmorpg/encyclopedie/consommables/7771-baffeur-bois-kokoko
p1091
aV/fr/mmorpg/encyclopedie/consommables/7795-foudroyeur-bois-bambouto
p1092
aV/fr/mmorpg/encyclopedie/consommables/13372-lire-carte
p1093
aV/fr/mmorpg/encyclopedie/consommables/13473-bonbon-prospecteur
p1094
aV/fr/mmorpg/encyclopedie/consommables/13512-pochette-surprise
p1095
aV/fr/mmorpg/encyclopedie/consommables/13613-bouboule-neige-sucre-glace
p1096
aV/fr/mmorpg/encyclopedie/consommables/14399-fee-artifice-invocatrice-moucherons
p1097
aV/fr/mmorpg/encyclopedie/consommables/14407-fee-artifice-cawotte
p1098
aV/fr/mmorpg/encyclopedie/consommables/15804-voile-eidolonique-mejaire
p1099
aV/fr/mmorpg/encyclopedie/consommables/11307-tresor-maudit-az-tech
p1100
aV/fr/mmorpg/encyclopedie/consommables/11996-paire-skis-sombres-jetables
p1101
aV/fr/mmorpg/encyclopedie/consommables/12014-potion-amelioration-platypus
p1102
aV/fr/mmorpg/encyclopedie/consommables/12292-refuser
p1103
aV/fr/mmorpg/encyclopedie/consommables/12324-lever-pouce
p1104
aV/fr/mmorpg/encyclopedie/consommables/12331-bailler
p1105
aV/fr/mmorpg/encyclopedie/consommables/12533-potion-nevark
p1106
aV/fr/mmorpg/encyclopedie/consommables/12610-rations-survie-milieu-touristique
p1107
aV/fr/mmorpg/encyclopedie/consommables/12805-parchemin-sort-special-osamodas-laisse-spirituelle
p1108
aV/fr/mmorpg/encyclopedie/consommables/12812-parchemin-sort-special-sadida-arbre-vie
p1109
aV/fr/mmorpg/encyclopedie/consommables/8952-shigekax-pomme
p1110
aV/fr/mmorpg/encyclopedie/consommables/9380-fee-artifice-invocatrice-coeurs
p1111
aV/fr/mmorpg/encyclopedie/consommables/9638-shigekax-indigo
p1112
aV/fr/mmorpg/encyclopedie/consommables/10397-parchemin-faconneur
p1113
aV/fr/mmorpg/encyclopedie/consommables/10405-parchemin-pecheur
p1114
aV/fr/mmorpg/encyclopedie/consommables/798-petit-parchemin-agilite
p1115
aV/fr/mmorpg/encyclopedie/consommables/806-petit-parchemin-vitalite
p1116
aV/fr/mmorpg/encyclopedie/consommables/990-shigekax-fraise
p1117
aV/fr/mmorpg/encyclopedie/consommables/2086-biere-alakarte
p1118
aV/fr/mmorpg/encyclopedie/consommables/2240-petite-fee-artifice-rouge
p1119
aV/fr/mmorpg/encyclopedie/consommables/16821-sachet-cerises
p1120
aV/fr/mmorpg/encyclopedie/consommables/16838-biere-djaul
p1121
aV/fr/mmorpg/encyclopedie/consommables/17064-pecheur
p1122
aV/fr/mmorpg/encyclopedie/consommables/17420-ethylique
p1123
aV/fr/mmorpg/encyclopedie/consommables/17730-sanguinolente
p1124
a.