(lp0
V/fr/mmorpg/encyclopedie/equipements/14080-amulette-seculaire
p1
aV/fr/mmorpg/encyclopedie/equipements/14097-amulette-nocturlabe
p2
aV/fr/mmorpg/encyclopedie/equipements/15184-cape-barbetoal
p3
aV/fr/mmorpg/encyclopedie/equipements/15191-pantoufles-piloztere
p4
aV/fr/mmorpg/encyclopedie/equipements/15432-ceinture-gein
p5
aV/fr/mmorpg/encyclopedie/equipements/15696-capchalot
p6
aV/fr/mmorpg/encyclopedie/equipements/15742-casque-egares
p7
aV/fr/mmorpg/encyclopedie/equipements/17104-ceinture-voldelor
p8
aV/fr/mmorpg/encyclopedie/equipements/17577-cape-dame-hasard
p9
aV/fr/mmorpg/encyclopedie/equipements/17584-cape-atcham
p10
aV/fr/mmorpg/encyclopedie/equipements/15743-ceinture-vortex
p11
aV/fr/mmorpg/encyclopedie/equipements/15750-ceintrigue
p12
aV/fr/mmorpg/encyclopedie/equipements/17105-bottes-voldelor
p13
aV/fr/mmorpg/encyclopedie/equipements/17578-bottes-chaloeil
p14
aV/fr/mmorpg/encyclopedie/equipements/17585-sandales-atcham
p15
aV/fr/mmorpg/encyclopedie/equipements/14081-ceinture-seculaire
p16
aV/fr/mmorpg/encyclopedie/equipements/14098-ceinture-nocturlabe
p17
aV/fr/mmorpg/encyclopedie/equipements/15185-ceinture-barbetoal
p18
aV/fr/mmorpg/encyclopedie/equipements/15192-coiffe-levitrof
p19
aV/fr/mmorpg/encyclopedie/equipements/15433-amulette-gein
p20
aV/fr/mmorpg/encyclopedie/equipements/15440-anneau-katcheur
p21
aV/fr/mmorpg/encyclopedie/equipements/15697-voilamibe
p22
aV/fr/mmorpg/encyclopedie/equipements/14082-masque-granduk
p23
aV/fr/mmorpg/encyclopedie/equipements/14099-bottes-nocturlabe
p24
aV/fr/mmorpg/encyclopedie/equipements/14169-talisman-songe
p25
aV/fr/mmorpg/encyclopedie/equipements/15186-couronne-nidas
p26
aV/fr/mmorpg/encyclopedie/equipements/15193-alliance-levitrof
p27
aV/fr/mmorpg/encyclopedie/equipements/15434-ceinture-reine-voleurs
p28
aV/fr/mmorpg/encyclopedie/equipements/15441-bottes-katcheur
p29
aV/fr/mmorpg/encyclopedie/equipements/15698-anneau-pol-ouatnos
p30
aV/fr/mmorpg/encyclopedie/equipements/15737-amibou
p31
aV/fr/mmorpg/encyclopedie/equipements/15744-sabots-vortex
p32
aV/fr/mmorpg/encyclopedie/equipements/15751-bottes-owesli
p33
aV/fr/mmorpg/encyclopedie/equipements/17106-cape-kongoku
p34
aV/fr/mmorpg/encyclopedie/equipements/17579-casque-chaloeil
p35
aV/fr/mmorpg/encyclopedie/equipements/14076-coiffe-comte-harebourg
p36
aV/fr/mmorpg/encyclopedie/equipements/14083-amulette-granduk
p37
aV/fr/mmorpg/encyclopedie/equipements/14090-amulette-cryochrone
p38
aV/fr/mmorpg/encyclopedie/equipements/14937-cape-justiciers
p39
aV/fr/mmorpg/encyclopedie/equipements/15187-anneau-nidas
p40
aV/fr/mmorpg/encyclopedie/equipements/15194-bottes-levitrof
p41
aV/fr/mmorpg/encyclopedie/equipements/15428-bottes-cour-sombre
p42
aV/fr/mmorpg/encyclopedie/equipements/15435-bottes-reine-voleurs
p43
aV/fr/mmorpg/encyclopedie/equipements/15442-masque-katcheur
p44
aV/fr/mmorpg/encyclopedie/equipements/15699-ceintace
p45
aV/fr/mmorpg/encyclopedie/equipements/15738-chapibou
p46
aV/fr/mmorpg/encyclopedie/equipements/15745-cagoule-vortex
p47
aV/fr/mmorpg/encyclopedie/equipements/17107-boucle-oreille-kongoku
p48
aV/fr/mmorpg/encyclopedie/equipements/14077-anneau-comte-harebourg
p49
aV/fr/mmorpg/encyclopedie/equipements/14091-amulette-cycloide
p50
aV/fr/mmorpg/encyclopedie/equipements/14130-sangle-aise
p51
aV/fr/mmorpg/encyclopedie/equipements/14161-cape-ovri
p52
aV/fr/mmorpg/encyclopedie/equipements/15188-tongues-nidas
p53
aV/fr/mmorpg/encyclopedie/equipements/15195-amulette-kamasterisk
p54
aV/fr/mmorpg/encyclopedie/equipements/15429-ceinture-cour-sombre
p55
aV/fr/mmorpg/encyclopedie/equipements/15436-coiffe-reine-voleurs
p56
aV/fr/mmorpg/encyclopedie/equipements/15739-capibou
p57
aV/fr/mmorpg/encyclopedie/equipements/15746-harpendentif
p58
aV/fr/mmorpg/encyclopedie/equipements/17108-ceinture-kongoku
p59
aV/fr/mmorpg/encyclopedie/equipements/14078-bottes-comte-harebourg
p60
aV/fr/mmorpg/encyclopedie/equipements/14085-cape-sinistrofu
p61
aV/fr/mmorpg/encyclopedie/equipements/14092-anneau-cycloide
p62
aV/fr/mmorpg/encyclopedie/equipements/14162-sangle-ouare
p63
aV/fr/mmorpg/encyclopedie/equipements/15189-amulette-piloztere
p64
aV/fr/mmorpg/encyclopedie/equipements/15196-bottes-kamasterisk
p65
aV/fr/mmorpg/encyclopedie/equipements/15437-bottes-malveilleurs
p66
aV/fr/mmorpg/encyclopedie/equipements/15747-capille
p67
aV/fr/mmorpg/encyclopedie/equipements/16005-bracelet-fonds-marins
p68
aV/fr/mmorpg/encyclopedie/equipements/17572-bottes-roi-joueur
p69
aV/fr/mmorpg/encyclopedie/equipements/15197-cape-kamasterisk
p70
aV/fr/mmorpg/encyclopedie/equipements/15438-chapeau-malveilleurs
p71
aV/fr/mmorpg/encyclopedie/equipements/15692-baleinabottes
p72
aV/fr/mmorpg/encyclopedie/equipements/15700-protopagne
p73
aV/fr/mmorpg/encyclopedie/equipements/15748-bottarpille
p74
aV/fr/mmorpg/encyclopedie/equipements/16006-sandales-fonds-marins
p75
aV/fr/mmorpg/encyclopedie/equipements/17573-couronne-roi-joueur
p76
aV/fr/mmorpg/encyclopedie/equipements/17580-cape-chaloeil
p77
aV/fr/mmorpg/encyclopedie/equipements/14079-coiffe-seculaire
p78
aV/fr/mmorpg/encyclopedie/equipements/14086-amulette-sinistrofu
p79
aV/fr/mmorpg/encyclopedie/equipements/14093-bottes-cycloide
p80
aV/fr/mmorpg/encyclopedie/equipements/14170-bandeau-ktrine
p81
aV/fr/mmorpg/encyclopedie/equipements/14877-dorabysses
p82
aV/fr/mmorpg/encyclopedie/equipements/14063-coiffe-ranshi
p83
aV/fr/mmorpg/encyclopedie/equipements/14087-bottes-sinistrofu
p84
aV/fr/mmorpg/encyclopedie/equipements/14094-amulette-strigide
p85
aV/fr/mmorpg/encyclopedie/equipements/14171-bottes-dogues
p86
aV/fr/mmorpg/encyclopedie/equipements/14878-talisman-glouti
p87
aV/fr/mmorpg/encyclopedie/equipements/15439-cape-malveilleurs
p88
aV/fr/mmorpg/encyclopedie/equipements/15693-pataugastrique
p89
aV/fr/mmorpg/encyclopedie/equipements/15701-amulette-pol-ouatnos
p90
aV/fr/mmorpg/encyclopedie/equipements/15749-talisman-igans
p91
aV/fr/mmorpg/encyclopedie/equipements/16007-masque-fonds-marins
p92
aV/fr/mmorpg/encyclopedie/equipements/17574-chevaliere-roi-joueur
p93
aV/fr/mmorpg/encyclopedie/equipements/17581-collier-valet-veinard
p94
aV/fr/mmorpg/encyclopedie/equipements/14879-anneau-tique
p95
aV/fr/mmorpg/encyclopedie/equipements/15430-cape-cour-sombre
p96
aV/fr/mmorpg/encyclopedie/equipements/15694-kidibonnet
p97
aV/fr/mmorpg/encyclopedie/equipements/15740-anneau-egares
p98
aV/fr/mmorpg/encyclopedie/equipements/17575-bottes-dame-hasard
p99
aV/fr/mmorpg/encyclopedie/equipements/17582-gant-valet-veinard
p100
aV/fr/mmorpg/encyclopedie/equipements/14088-coiffe-cryochrone
p101
aV/fr/mmorpg/encyclopedie/equipements/14095-ceinture-strigide
p102
aV/fr/mmorpg/encyclopedie/equipements/15183-masque-barbetoal
p103
aV/fr/mmorpg/encyclopedie/equipements/15190-bracelet-piloztere
p104
aV/fr/mmorpg/encyclopedie/equipements/15431-chapeau-gein
p105
aV/fr/mmorpg/encyclopedie/equipements/15695-maskrobe
p106
aV/fr/mmorpg/encyclopedie/equipements/15741-bottes-egares
p107
aV/fr/mmorpg/encyclopedie/equipements/17103-amulette-voldelor
p108
aV/fr/mmorpg/encyclopedie/equipements/17576-collier-dame-hasard
p109
aV/fr/mmorpg/encyclopedie/equipements/17583-cape-valet-veinard
p110
aV/fr/mmorpg/encyclopedie/equipements/14089-anneau-cryochrone
p111
aV/fr/mmorpg/encyclopedie/equipements/14096-bottes-strigide
p112
aV/fr/mmorpg/encyclopedie/equipements/14159-cape-lati
p113
aV/fr/mmorpg/encyclopedie/equipements/14066-bottes-nileza
p114
aV/fr/mmorpg/encyclopedie/equipements/14067-bague-instable
p115
aV/fr/mmorpg/encyclopedie/equipements/8877-kralano
p116
aV/fr/mmorpg/encyclopedie/equipements/14068-anneau-instable
p117
aV/fr/mmorpg/encyclopedie/equipements/13129-bottes-lethaline
p118
aV/fr/mmorpg/encyclopedie/equipements/14054-anneau-vicieux
p119
aV/fr/mmorpg/encyclopedie/equipements/14883-bandeau-culaire
p120
aV/fr/mmorpg/encyclopedie/equipements/13634-bottes-oshimo
p121
aV/fr/mmorpg/encyclopedie/equipements/15011-anneau-pere-fwetar
p122
aV/fr/mmorpg/encyclopedie/equipements/11718-masque-glourseleste
p123
aV/fr/mmorpg/encyclopedie/equipements/13194-chapeau-potin
p124
aV/fr/mmorpg/encyclopedie/equipements/13638-cape-theodoran-ax
p125
aV/fr/mmorpg/encyclopedie/equipements/14074-cape-kanimate
p126
aV/fr/mmorpg/encyclopedie/equipements/14168-cape-logis
p127
aV/fr/mmorpg/encyclopedie/equipements/13197-cape-reski
p128
aV/fr/mmorpg/encyclopedie/equipements/13647-coiffe-aermyne
p129
aV/fr/mmorpg/encyclopedie/equipements/15009-ceinture-pere-fwetar
p130
aV/fr/mmorpg/encyclopedie/equipements/14052-ceinture-klime
p131
aV/fr/mmorpg/encyclopedie/equipements/14881-pikottes
p132
aV/fr/mmorpg/encyclopedie/equipements/11720-amulette-glourseleste
p133
aV/fr/mmorpg/encyclopedie/equipements/13632-coiffe-oshimo
p134
aV/fr/mmorpg/encyclopedie/equipements/13897-anneau-tamie
p135
aV/fr/mmorpg/encyclopedie/equipements/14061-alliance-missiz-frizz
p136
aV/fr/mmorpg/encyclopedie/equipements/13115-anneau-brouce
p137
aV/fr/mmorpg/encyclopedie/equipements/13641-coiffe-padgref
p138
aV/fr/mmorpg/encyclopedie/equipements/12113-alliance-gloursonne
p139
aV/fr/mmorpg/encyclopedie/equipements/14056-bottes-vicieuses
p140
aV/fr/mmorpg/encyclopedie/equipements/14064-cape-nileza
p141
aV/fr/mmorpg/encyclopedie/equipements/14071-cape-sylargh
p142
aV/fr/mmorpg/encyclopedie/equipements/14933-bottes-refois
p143
aV/fr/mmorpg/encyclopedie/equipements/13644-coiffe-hel-munster
p144
aV/fr/mmorpg/encyclopedie/equipements/11719-cape-glourseleste
p145
aV/fr/mmorpg/encyclopedie/equipements/12969-bracelet-minotoboule
p146
aV/fr/mmorpg/encyclopedie/equipements/14073-coiffe-kanimate
p147
aV/fr/mmorpg/encyclopedie/equipements/13630-ceinture-henual
p148
aV/fr/mmorpg/encyclopedie/equipements/14051-cape-klime
p149
aV/fr/mmorpg/encyclopedie/equipements/14929-amulule
p150
aV/fr/mmorpg/encyclopedie/equipements/11737-bracelet-ming
p151
aV/fr/mmorpg/encyclopedie/equipements/14053-bonnet-vicieux
p152
aV/fr/mmorpg/encyclopedie/equipements/11473-frimature
p153
aV/fr/mmorpg/encyclopedie/equipements/15010-bottes-pere-fwetar
p154
aV/fr/mmorpg/encyclopedie/equipements/13116-bottes-brouce
p155
aV/fr/mmorpg/encyclopedie/equipements/13642-anneau-padgref
p156
aV/fr/mmorpg/encyclopedie/equipements/14885-cape-parition
p157
aV/fr/mmorpg/encyclopedie/equipements/11731-amulette-hendart
p158
aV/fr/mmorpg/encyclopedie/equipements/12114-bague-gloursonne
p159
aV/fr/mmorpg/encyclopedie/equipements/13117-amulette-otomai
p160
aV/fr/mmorpg/encyclopedie/equipements/13124-anneau-allister
p161
aV/fr/mmorpg/encyclopedie/equipements/14057-cape-glaciale
p162
aV/fr/mmorpg/encyclopedie/equipements/14058-anneau-glacial
p163
aV/fr/mmorpg/encyclopedie/equipements/14281-phylactere-mic
p164
aV/fr/mmorpg/encyclopedie/equipements/14059-ceinture-glaciale
p165
aV/fr/mmorpg/encyclopedie/equipements/14050-masque-klime
p166
aV/fr/mmorpg/encyclopedie/equipements/11470-gresilanneau
p167
aV/fr/mmorpg/encyclopedie/equipements/11728-cape-hiculteur
p168
aV/fr/mmorpg/encyclopedie/equipements/14075-amulette-kanimate
p169
aV/fr/mmorpg/encyclopedie/equipements/14880-casquipik
p170
aV/fr/mmorpg/encyclopedie/equipements/9461-kim
p171
aV/fr/mmorpg/encyclopedie/equipements/13648-cape-aermyne
p172
aV/fr/mmorpg/encyclopedie/equipements/14069-ceinture-instable
p173
aV/fr/mmorpg/encyclopedie/equipements/14160-amulette-rangleur
p174
aV/fr/mmorpg/encyclopedie/equipements/14285-calotte-spot
p175
aV/fr/mmorpg/encyclopedie/equipements/13120-coiffe-danathor
p176
aV/fr/mmorpg/encyclopedie/equipements/14060-casque-missiz-frizz
p177
aV/fr/mmorpg/encyclopedie/equipements/13633-amulette-oshimo
p178
aV/fr/mmorpg/encyclopedie/equipements/13657-cape-matelassee
p179
aV/fr/mmorpg/encyclopedie/equipements/11722-bottes-glourseleste
p180
aV/fr/mmorpg/encyclopedie/equipements/13658-pantoufles-emar
p181
aV/fr/mmorpg/encyclopedie/equipements/14062-bottes-missiz-frizz
p182
aV/fr/mmorpg/encyclopedie/equipements/14884-amulette-ikete
p183
aV/fr/mmorpg/encyclopedie/equipements/13123-couronne-allister
p184
aV/fr/mmorpg/encyclopedie/equipements/13635-cape-nevark
p185
aV/fr/mmorpg/encyclopedie/equipements/13659-sabots-minables
p186
aV/fr/mmorpg/encyclopedie/equipements/14049-bague-nostik
p187
aV/fr/mmorpg/encyclopedie/equipements/14070-capuche-sylargh
p188
aV/fr/mmorpg/encyclopedie/equipements/14931-chaussures-hau
p189
aV/fr/mmorpg/encyclopedie/equipements/14932-anneau-kturne
p190
aV/fr/mmorpg/encyclopedie/equipements/13629-anneau-henual
p191
aV/fr/mmorpg/encyclopedie/equipements/13643-getas-padgref
p192
aV/fr/mmorpg/encyclopedie/equipements/14065-amulette-nileza
p193
aV/fr/mmorpg/encyclopedie/equipements/12116-coiffe-glourseleste
p194
aV/fr/mmorpg/encyclopedie/equipements/14934-casqnoar
p195
aV/fr/mmorpg/encyclopedie/equipements/13646-amulette-hel-munster
p196
aV/fr/mmorpg/encyclopedie/equipements/14283-ceinture-hyolite
p197
aV/fr/mmorpg/encyclopedie/equipements/12118-coiffe-fuji-givrefoux
p198
aV/fr/mmorpg/encyclopedie/equipements/8861-sandales-circulaires-kimbo
p199
aV/fr/mmorpg/encyclopedie/equipements/14882-pikano
p200
aV/fr/mmorpg/encyclopedie/equipements/11721-ceinture-glourseleste
p201
aV/fr/mmorpg/encyclopedie/equipements/12111-amulette-professeur-xa
p202
aV/fr/mmorpg/encyclopedie/equipements/13640-bottes-theodoran-ax
p203
aV/fr/mmorpg/encyclopedie/equipements/14163-sandales-ouzi
p204
aV/fr/mmorpg/encyclopedie/equipements/14930-obscture
p205
aV/fr/mmorpg/encyclopedie/equipements/11469-frimanneau
p206
aV/fr/mmorpg/encyclopedie/equipements/14273-slip-roi-bonta
p207
aV/fr/mmorpg/encyclopedie/equipements/11725-chapeau-lochon
p208
aV/fr/mmorpg/encyclopedie/equipements/13132-ceinture-ogivol
p209
aV/fr/mmorpg/encyclopedie/equipements/13637-ceinture-nevark
p210
aV/fr/mmorpg/encyclopedie/equipements/14072-sangle-sylargh
p211
aV/fr/mmorpg/encyclopedie/equipements/13645-cape-hel-munster
p212
aV/fr/mmorpg/encyclopedie/equipements/11734-ceinture-hanium
p213
aV/fr/mmorpg/encyclopedie/equipements/11741-sandales-pinistes
p214
aV/fr/mmorpg/encyclopedie/equipements/13127-cape-lethaline
p215
aV/fr/mmorpg/encyclopedie/equipements/13128-ceinture-lethaline
p216
aV/fr/mmorpg/encyclopedie/equipements/12119-bottes-fuji-givrefoux
p217
aV/fr/mmorpg/encyclopedie/equipements/11472-gresilocape
p218
aV/fr/mmorpg/encyclopedie/equipements/11738-anneau-aimgeroks
p219
aV/fr/mmorpg/encyclopedie/equipements/13114-ceinture-brouce
p220
aV/fr/mmorpg/encyclopedie/equipements/13121-amulette-danathor
p221
aV/fr/mmorpg/encyclopedie/equipements/14287-pendentif-oton
p222
aV/fr/mmorpg/encyclopedie/equipements/9464-kralamansion
p223
aV/fr/mmorpg/encyclopedie/equipements/13636-amulette-nevark
p224
aV/fr/mmorpg/encyclopedie/equipements/12108-cape-professeur-xa
p225
aV/fr/mmorpg/encyclopedie/equipements/12117-cape-fuji-givrefoux
p226
aV/fr/mmorpg/encyclopedie/equipements/13639-amulette-theodoran-ax
p227
aV/fr/mmorpg/encyclopedie/equipements/12110-bottes-professeur-xa
p228
aV/fr/mmorpg/encyclopedie/equipements/11715-coiffe-kolosso
p229
aV/fr/mmorpg/encyclopedie/equipements/13130-coiffe-ogivol
p230
aV/fr/mmorpg/encyclopedie/equipements/9143-string-mouche
p231
aV/fr/mmorpg/encyclopedie/equipements/14286-binocle-airvoyant
p232
aV/fr/mmorpg/encyclopedie/equipements/11468-frimamulette
p233
aV/fr/mmorpg/encyclopedie/equipements/12120-anneau-fuji-givrefoux
p234
aV/fr/mmorpg/encyclopedie/equipements/13118-bottes-otomai
p235
aV/fr/mmorpg/encyclopedie/equipements/12109-anneau-professeur-xa
p236
aV/fr/mmorpg/encyclopedie/equipements/8876-voile-encre
p237
aV/fr/mmorpg/encyclopedie/equipements/13125-bottes-allister
p238
aV/fr/mmorpg/encyclopedie/equipements/9142-capignon
p239
aV/fr/mmorpg/encyclopedie/equipements/11471-gresilobottes
p240
aV/fr/mmorpg/encyclopedie/equipements/11717-anneau-kolosso
p241
aV/fr/mmorpg/encyclopedie/equipements/8991-annolamour
p242
aV/fr/mmorpg/encyclopedie/equipements/9181-casque-harnage
p243
aV/fr/mmorpg/encyclopedie/equipements/9463-amunite
p244
aV/fr/mmorpg/encyclopedie/equipements/12107-bottes-boreale
p245
aV/fr/mmorpg/encyclopedie/equipements/11474-frimacoiffe
p246
aV/fr/mmorpg/encyclopedie/equipements/13122-ceinture-danathor
p247
aV/fr/mmorpg/encyclopedie/equipements/9131-anneau-colerette
p248
aV/fr/mmorpg/encyclopedie/equipements/11736-alliance-sorcelee
p249
aV/fr/mmorpg/encyclopedie/equipements/11716-ceinture-kolosso
p250
aV/fr/mmorpg/encyclopedie/equipements/12106-coiffe-boreale
p251
aV/fr/mmorpg/encyclopedie/equipements/11740-bottines-hodore
p252
aV/fr/mmorpg/encyclopedie/equipements/13131-cape-ogivol
p253
aV/fr/mmorpg/encyclopedie/equipements/9133-alliance-boletee
p254
aV/fr/mmorpg/encyclopedie/equipements/11794-racine-hueuse
p255
aV/fr/mmorpg/encyclopedie/equipements/9180-cape-erforee
p256
aV/fr/mmorpg/encyclopedie/equipements/9146-ougature
p257
aV/fr/mmorpg/encyclopedie/equipements/12105-ceinture-boreale
p258
aV/fr/mmorpg/encyclopedie/equipements/11730-amulette-heroclite
p259
aV/fr/mmorpg/encyclopedie/equipements/9182-bottes-repane
p260
aV/fr/mmorpg/encyclopedie/equipements/9179-amulette-ripage
p261
aV/fr/mmorpg/encyclopedie/equipements/11724-chapeau-lisson
p262
aV/fr/mmorpg/encyclopedie/equipements/12104-bague-boreale
p263
aV/fr/mmorpg/encyclopedie/equipements/9147-chapignon
p264
aV/fr/mmorpg/encyclopedie/equipements/12068-ceinture-bine
p265
aV/fr/mmorpg/encyclopedie/equipements/17119-ceinture-k-o
p266
aV/fr/mmorpg/encyclopedie/equipements/11727-cape-peupret
p267
aV/fr/mmorpg/encyclopedie/equipements/15504-cape-dremoan
p268
aV/fr/mmorpg/encyclopedie/equipements/11713-amulette-korriandre
p269
aV/fr/mmorpg/encyclopedie/equipements/8856-ceinture-rasboulaire-rasboul
p270
aV/fr/mmorpg/encyclopedie/equipements/15501-cape-necrotique
p271
aV/fr/mmorpg/encyclopedie/equipements/9141-caprin
p272
aV/fr/mmorpg/encyclopedie/equipements/17120-amulette-k-o
p273
aV/fr/mmorpg/encyclopedie/equipements/9183-ceinture-tore
p274
aV/fr/mmorpg/encyclopedie/equipements/9130-ougamulette
p275
aV/fr/mmorpg/encyclopedie/equipements/9140-chaussons-pignons
p276
aV/fr/mmorpg/encyclopedie/equipements/15502-bottes-dremoan
p277
aV/fr/mmorpg/encyclopedie/equipements/17121-bottes-k-o
p278
aV/fr/mmorpg/encyclopedie/equipements/8843-chapeau-crocodaille-dandi
p279
aV/fr/mmorpg/encyclopedie/equipements/9132-anneau-chevelu
p280
aV/fr/mmorpg/encyclopedie/equipements/11712-cape-korriandre
p281
aV/fr/mmorpg/encyclopedie/equipements/9145-tranche-bois
p282
aV/fr/mmorpg/encyclopedie/equipements/9177-bracelet-ventre
p283
aV/fr/mmorpg/encyclopedie/equipements/11850-slip-iholo
p284
aV/fr/mmorpg/encyclopedie/equipements/7680-ougalurette
p285
aV/fr/mmorpg/encyclopedie/equipements/15499-amulette-necrotique
p286
aV/fr/mmorpg/encyclopedie/equipements/12102-amulette-guten-tak
p287
aV/fr/mmorpg/encyclopedie/equipements/9144-ceinture-mycosine
p288
aV/fr/mmorpg/encyclopedie/equipements/11708-cape-tengu-givrefoux
p289
aV/fr/mmorpg/encyclopedie/equipements/11709-ceinture-tengu-givrefoux
p290
aV/fr/mmorpg/encyclopedie/equipements/15500-bottes-necrotiques
p291
aV/fr/mmorpg/encyclopedie/equipements/11726-cape-surde
p292
aV/fr/mmorpg/encyclopedie/equipements/15503-chapeau-dremoan
p293
aV/fr/mmorpg/encyclopedie/equipements/11714-anneau-korriandre
p294
aV/fr/mmorpg/encyclopedie/equipements/15762-bottes-xlii
p295
aV/fr/mmorpg/encyclopedie/equipements/12100-anneau-guten-tak
p296
aV/fr/mmorpg/encyclopedie/equipements/11707-coiffe-tengu-givrefoux
p297
aV/fr/mmorpg/encyclopedie/equipements/11732-pagne-soryo-givrefoux
p298
aV/fr/mmorpg/encyclopedie/equipements/11602-chapeau-pourih
p299
aV/fr/mmorpg/encyclopedie/equipements/15776-pantoufles-soissanth
p300
aV/fr/mmorpg/encyclopedie/equipements/11706-chapeau-tiche
p301
aV/fr/mmorpg/encyclopedie/equipements/9178-anneau-blitere
p302
aV/fr/mmorpg/encyclopedie/equipements/15773-coiffe-soissanth
p303
aV/fr/mmorpg/encyclopedie/equipements/11710-bottes-tengu-givrefoux
p304
aV/fr/mmorpg/encyclopedie/equipements/12101-alliance-guten-tak
p305
aV/fr/mmorpg/encyclopedie/equipements/11729-amulette-caetera
p306
aV/fr/mmorpg/encyclopedie/equipements/9139-bottines-bois
p307
aV/fr/mmorpg/encyclopedie/equipements/11723-chapeau-lichinelle
p308
aV/fr/mmorpg/encyclopedie/equipements/8366-cape-petit-chapon-rouge
p309
aV/fr/mmorpg/encyclopedie/equipements/15768-anneau-xlii
p310
aV/fr/mmorpg/encyclopedie/equipements/15771-ceinture-soissanth
p311
aV/fr/mmorpg/encyclopedie/equipements/14809-koinkoiffe-rose
p312
aV/fr/mmorpg/encyclopedie/equipements/15764-ceinture-xlii
p313
aV/fr/mmorpg/encyclopedie/equipements/11604-chapeau-stapokaliptik
p314
aV/fr/mmorpg/encyclopedie/equipements/11739-bottines-hertie
p315
aV/fr/mmorpg/encyclopedie/equipements/12097-anneau-prophetes
p316
aV/fr/mmorpg/encyclopedie/equipements/8844-capuche-souveraine-roissingue
p317
aV/fr/mmorpg/encyclopedie/equipements/6988-sulik
p318
aV/fr/mmorpg/encyclopedie/equipements/11735-alliance-hestrale
p319
aV/fr/mmorpg/encyclopedie/equipements/11583-bottes-obsidiantre
p320
aV/fr/mmorpg/encyclopedie/equipements/11619-sandales-binosse
p321
aV/fr/mmorpg/encyclopedie/equipements/11574-casque-obsidiantre
p322
aV/fr/mmorpg/encyclopedie/equipements/11623-anneau-tabene
p323
aV/fr/mmorpg/encyclopedie/equipements/8699-coiffe-tynril
p324
aV/fr/mmorpg/encyclopedie/equipements/17587-col-ush
p325
aV/fr/mmorpg/encyclopedie/equipements/7559-goldoture
p326
aV/fr/mmorpg/encyclopedie/equipements/11576-amulette-obsidiantre
p327
aV/fr/mmorpg/encyclopedie/equipements/17588-bottes-ush
p328
aV/fr/mmorpg/encyclopedie/equipements/11581-cape-obsidiantre
p329
aV/fr/mmorpg/encyclopedie/equipements/11792-amulette-ementaire-deluxe
p330
aV/fr/mmorpg/encyclopedie/equipements/12098-ceinture-prophetes
p331
aV/fr/mmorpg/encyclopedie/equipements/17096-ceinture-bretteur-celeste
p332
aV/fr/mmorpg/encyclopedie/equipements/17097-cape-bretteur-celeste
p333
aV/fr/mmorpg/encyclopedie/equipements/13064-katar-strophe
p334
aV/fr/mmorpg/encyclopedie/equipements/11612-slip-noze
p335
aV/fr/mmorpg/encyclopedie/equipements/15059-anneau-kaniblou
p336
aV/fr/mmorpg/encyclopedie/equipements/17590-cape-matougarous
p337
aV/fr/mmorpg/encyclopedie/equipements/11579-bague-obsidiantre
p338
aV/fr/mmorpg/encyclopedie/equipements/17592-anneau-matougarous
p339
aV/fr/mmorpg/encyclopedie/equipements/10438-maidartes
p340
aV/fr/mmorpg/encyclopedie/equipements/11606-cape-tivante
p341
aV/fr/mmorpg/encyclopedie/equipements/9395-blopronne-royale
p342
aV/fr/mmorpg/encyclopedie/equipements/17591-ceinture-matougarous
p343
aV/fr/mmorpg/encyclopedie/equipements/13135-casque-metag-robill
p344
aV/fr/mmorpg/encyclopedie/equipements/15061-cape-kaniblou
p345
aV/fr/mmorpg/encyclopedie/equipements/15062-coiffe-orfelin
p346
aV/fr/mmorpg/encyclopedie/equipements/11607-collier-ye
p347
aV/fr/mmorpg/encyclopedie/equipements/8277-sandales-minotot
p348
aV/fr/mmorpg/encyclopedie/equipements/7217-sandales-hambic
p349
aV/fr/mmorpg/encyclopedie/equipements/8863-zothulette
p350
aV/fr/mmorpg/encyclopedie/equipements/8704-nahitse
p351
aV/fr/mmorpg/encyclopedie/equipements/15060-ceinture-kaniblou
p352
aV/fr/mmorpg/encyclopedie/equipements/8839-masque-vaudou-eth
p353
aV/fr/mmorpg/encyclopedie/equipements/8272-collier-minotot
p354
aV/fr/mmorpg/encyclopedie/equipements/15063-ceinture-orfelin
p355
aV/fr/mmorpg/encyclopedie/equipements/8840-masque-vaudou-jav
p356
aV/fr/mmorpg/encyclopedie/equipements/8841-masque-vaudou-sarbak
p357
aV/fr/mmorpg/encyclopedie/equipements/17079-masque-vaudou-tam
p358
aV/fr/mmorpg/encyclopedie/equipements/12416-ceinture-grozilla
p359
aV/fr/mmorpg/encyclopedie/equipements/8842-masque-vaudou-ark
p360
aV/fr/mmorpg/encyclopedie/equipements/8859-sceau-souverain-roissingue
p361
aV/fr/mmorpg/encyclopedie/equipements/15064-amulette-orfelin
p362
aV/fr/mmorpg/encyclopedie/equipements/8284-coiffe-minotot
p363
aV/fr/mmorpg/encyclopedie/equipements/11585-ceinture-ben-ripate
p364
aV/fr/mmorpg/encyclopedie/equipements/8280-cape-minotot
p365
aV/fr/mmorpg/encyclopedie/equipements/8848-coiffe-maitre-zoth
p366
aV/fr/mmorpg/encyclopedie/equipements/12095-amulette-cantile
p367
aV/fr/mmorpg/encyclopedie/equipements/12096-bottes-cantile
p368
aV/fr/mmorpg/encyclopedie/equipements/13850-masque-frelon-noir
p369
aV/fr/mmorpg/encyclopedie/equipements/11600-fantomasque
p370
aV/fr/mmorpg/encyclopedie/equipements/11601-masque-harpirate
p371
aV/fr/mmorpg/encyclopedie/equipements/12412-bottes-grozilla
p372
aV/fr/mmorpg/encyclopedie/equipements/11578-crochet-ben-ripate
p373
aV/fr/mmorpg/encyclopedie/equipements/15201-ceinture-pere-phorreur
p374
aV/fr/mmorpg/encyclopedie/equipements/17098-barbe-zatoishwan
p375
aV/fr/mmorpg/encyclopedie/equipements/11573-chapeau-ben-ripate
p376
aV/fr/mmorpg/encyclopedie/equipements/8989-casque-bitouf-aerien
p377
aV/fr/mmorpg/encyclopedie/equipements/11608-talisman-choh
p378
aV/fr/mmorpg/encyclopedie/equipements/12418-coiffe-grozilla
p379
aV/fr/mmorpg/encyclopedie/equipements/12093-cape-cantile
p380
aV/fr/mmorpg/encyclopedie/equipements/17099-ceinture-zatoishwan
p381
aV/fr/mmorpg/encyclopedie/equipements/12094-anneau-cantile
p382
aV/fr/mmorpg/encyclopedie/equipements/13851-ceinture-frelon-noir
p383
aV/fr/mmorpg/encyclopedie/equipements/11611-slip-hie
p384
aV/fr/mmorpg/encyclopedie/equipements/8818-cape-souveraine-roissingue
p385
aV/fr/mmorpg/encyclopedie/equipements/15203-amulette-pere-phorreur
p386
aV/fr/mmorpg/encyclopedie/equipements/9394-chapblopignon
p387
aV/fr/mmorpg/encyclopedie/equipements/7221-collier-tanukoui-san
p388
aV/fr/mmorpg/encyclopedie/equipements/8530-ruskauffe
p389
aV/fr/mmorpg/encyclopedie/equipements/12408-amulette-grozilla
p390
aV/fr/mmorpg/encyclopedie/equipements/14000-bonnet-ko
p391
aV/fr/mmorpg/encyclopedie/equipements/14001-pelerine-augilol
p392
aV/fr/mmorpg/encyclopedie/equipements/15198-bottes-phossiles
p393
aV/fr/mmorpg/encyclopedie/equipements/12394-bracelet-jande
p394
aV/fr/mmorpg/encyclopedie/equipements/12642-pousseur-majeur
p395
aV/fr/mmorpg/encyclopedie/equipements/12697-ravageur-neutre-majeur
p396
aV/fr/mmorpg/encyclopedie/equipements/13265-steamanneau-maitre
p397
aV/fr/mmorpg/encyclopedie/equipements/13753-vagabond-majeur
p398
aV/fr/mmorpg/encyclopedie/equipements/13777-saccageur-neutre-majeur
p399
aV/fr/mmorpg/encyclopedie/equipements/13816-muraille-feu-majeure
p400
aV/fr/mmorpg/encyclopedie/equipements/8720-anneau-zamour
p401
aV/fr/mmorpg/encyclopedie/equipements/16187-deserteur-majeur
p402
aV/fr/mmorpg/encyclopedie/equipements/16257-devastateur-neutre-majeur
p403
aV/fr/mmorpg/encyclopedie/equipements/16264-devastateur-eau-majeur
p404
aV/fr/mmorpg/encyclopedie/equipements/16310-solide-majeur
p405
aV/fr/mmorpg/encyclopedie/equipements/17452-anneau-riginel
p406
aV/fr/mmorpg/encyclopedie/equipements/12636-fugitif-majeur
p407
aV/fr/mmorpg/encyclopedie/equipements/12706-porteur-majeur
p408
aV/fr/mmorpg/encyclopedie/equipements/12852-cape-nowel-cauchemardesque
p409
aV/fr/mmorpg/encyclopedie/equipements/13792-paralyseur-majeur
p410
aV/fr/mmorpg/encyclopedie/equipements/8714-anneau-bhli
p411
aV/fr/mmorpg/encyclopedie/equipements/8721-anneau-raille
p412
aV/fr/mmorpg/encyclopedie/equipements/12651-cuirasse-air-majeur
p413
aV/fr/mmorpg/encyclopedie/equipements/12682-cuirasse-terre-majeur
p414
aV/fr/mmorpg/encyclopedie/equipements/12714-acrobate-majeur
p415
aV/fr/mmorpg/encyclopedie/equipements/12853-masque-nowel-cauchemardesque
p416
aV/fr/mmorpg/encyclopedie/equipements/13762-astucieux-majeur
p417
aV/fr/mmorpg/encyclopedie/equipements/13786-saccageur-air-majeur
p418
aV/fr/mmorpg/encyclopedie/equipements/13801-bousculeur-majeur
p419
aV/fr/mmorpg/encyclopedie/equipements/13825-puissant-majeur
p420
aV/fr/mmorpg/encyclopedie/equipements/14006-infernano
p421
aV/fr/mmorpg/encyclopedie/equipements/8715-bague-houx
p422
aV/fr/mmorpg/encyclopedie/equipements/8722-anneau-hell
p423
aV/fr/mmorpg/encyclopedie/equipements/16196-enrage-majeur
p424
aV/fr/mmorpg/encyclopedie/equipements/16204-erudit-majeur
p425
aV/fr/mmorpg/encyclopedie/equipements/16329-carapace-air-majeur
p426
aV/fr/mmorpg/encyclopedie/equipements/8716-bague-hera
p427
aV/fr/mmorpg/encyclopedie/equipements/8723-anneau-tilus
p428
aV/fr/mmorpg/encyclopedie/equipements/12645-adamantin-majeur
p429
aV/fr/mmorpg/encyclopedie/equipements/12690-ravageur-eau-majeur
p430
aV/fr/mmorpg/encyclopedie/equipements/12708-soigneur-majeur
p431
aV/fr/mmorpg/encyclopedie/equipements/12854-porte-malheur-nowel-cauchemardesque
p432
aV/fr/mmorpg/encyclopedie/equipements/13756-docteur-majeur
p433
aV/fr/mmorpg/encyclopedie/equipements/13819-muraille-eau-majeure
p434
aV/fr/mmorpg/encyclopedie/equipements/14007-styxano
p435
aV/fr/mmorpg/encyclopedie/equipements/16267-devastateur-air-majeur
p436
aV/fr/mmorpg/encyclopedie/equipements/16281-temporiseur-majeur
p437
aV/fr/mmorpg/encyclopedie/equipements/16306-culbuteur-majeur
p438
aV/fr/mmorpg/encyclopedie/equipements/16313-fonceur-majeur
p439
aV/fr/mmorpg/encyclopedie/equipements/16320-carapace-neutre-majeur
p440
aV/fr/mmorpg/encyclopedie/equipements/12639-insaisissable-majeur
p441
aV/fr/mmorpg/encyclopedie/equipements/12716-joueur-majeur
p442
aV/fr/mmorpg/encyclopedie/equipements/12747-ravageur-terre-majeur
p443
aV/fr/mmorpg/encyclopedie/equipements/12855-bottes-nowel-cauchemardesque
p444
aV/fr/mmorpg/encyclopedie/equipements/13771-bastion-majeur
p445
aV/fr/mmorpg/encyclopedie/equipements/13795-imprenable-majeur
p446
aV/fr/mmorpg/encyclopedie/equipements/13810-muraille-terre-majeure
p447
aV/fr/mmorpg/encyclopedie/equipements/13834-feroce-majeur
p448
aV/fr/mmorpg/encyclopedie/equipements/14008-mandrano
p449
aV/fr/mmorpg/encyclopedie/equipements/8717-bague-harre
p450
aV/fr/mmorpg/encyclopedie/equipements/8724-anneau-pwal
p451
aV/fr/mmorpg/encyclopedie/equipements/16251-fortification-majeure
p452
aV/fr/mmorpg/encyclopedie/equipements/16144-anneau-vae
p453
aV/fr/mmorpg/encyclopedie/equipements/16245-cascadeur-majeur
p454
aV/fr/mmorpg/encyclopedie/equipements/16339-sanguinaire-majeur
p455
aV/fr/mmorpg/encyclopedie/equipements/12630-ralentisseur-majeur
p456
aV/fr/mmorpg/encyclopedie/equipements/12654-cuirasse-eau-majeur
p457
aV/fr/mmorpg/encyclopedie/equipements/12685-cuirasse-neutre-majeur
p458
aV/fr/mmorpg/encyclopedie/equipements/12724-furibond-majeur
p459
aV/fr/mmorpg/encyclopedie/equipements/13765-equilibriste-majeur
p460
aV/fr/mmorpg/encyclopedie/equipements/13789-entraveur-majeur
p461
aV/fr/mmorpg/encyclopedie/equipements/13804-inflexible-majeur
p462
aV/fr/mmorpg/encyclopedie/equipements/13828-robuste-majeur
p463
aV/fr/mmorpg/encyclopedie/equipements/14009-willkillsano
p464
aV/fr/mmorpg/encyclopedie/equipements/8718-anneau-tassion
p465
aV/fr/mmorpg/encyclopedie/equipements/8725-anneau-pitale
p466
aV/fr/mmorpg/encyclopedie/equipements/12624-tacleur-majeur
p467
aV/fr/mmorpg/encyclopedie/equipements/12648-rempart-majeur
p468
aV/fr/mmorpg/encyclopedie/equipements/12679-cuirasse-feu-majeur
p469
aV/fr/mmorpg/encyclopedie/equipements/12693-ravageur-feu-majeur
p470
aV/fr/mmorpg/encyclopedie/equipements/13759-forcene-majeur
p471
aV/fr/mmorpg/encyclopedie/equipements/13780-saccageur-feu-majeur
p472
aV/fr/mmorpg/encyclopedie/equipements/8719-anneau-stalgik
p473
aV/fr/mmorpg/encyclopedie/equipements/16190-guerisseur-majeur
p474
aV/fr/mmorpg/encyclopedie/equipements/16260-devastateur-feu-majeur
p475
aV/fr/mmorpg/encyclopedie/equipements/16284-etourdisseur-majeur
p476
aV/fr/mmorpg/encyclopedie/equipements/16316-carapace-terre-majeur
p477
aV/fr/mmorpg/encyclopedie/equipements/16323-carapace-feu-majeur
p478
aV/fr/mmorpg/encyclopedie/equipements/13750-bloqueur-majeur
p479
aV/fr/mmorpg/encyclopedie/equipements/13774-saccageur-terre-majeur
p480
aV/fr/mmorpg/encyclopedie/equipements/13798-evanescent-majeur
p481
aV/fr/mmorpg/encyclopedie/equipements/13813-muraille-neutre-majeure
p482
aV/fr/mmorpg/encyclopedie/equipements/16184-obstructeur-majeur
p483
aV/fr/mmorpg/encyclopedie/equipements/16254-devastateur-terre-majeur
p484
aV/fr/mmorpg/encyclopedie/equipements/12687-ravageur-air-majeur
p485
aV/fr/mmorpg/encyclopedie/equipements/12719-savant-majeur
p486
aV/fr/mmorpg/encyclopedie/equipements/12726-survivant-majeur
p487
aV/fr/mmorpg/encyclopedie/equipements/16248-chanceux-majeur
p488
aV/fr/mmorpg/encyclopedie/equipements/16332-vigoureux-majeur
p489
aV/fr/mmorpg/encyclopedie/equipements/12633-engourdisseur-majeur
p490
aV/fr/mmorpg/encyclopedie/equipements/12703-initiateur-majeur
p491
aV/fr/mmorpg/encyclopedie/equipements/13768-taquin-majeur
p492
aV/fr/mmorpg/encyclopedie/equipements/13807-precurseur-majeur
p493
aV/fr/mmorpg/encyclopedie/equipements/16193-miracule-majeur
p494
aV/fr/mmorpg/encyclopedie/equipements/16294-evasif-majeur
p495
aV/fr/mmorpg/encyclopedie/equipements/16302-cavaleur-majeur
p496
aV/fr/mmorpg/encyclopedie/equipements/16326-carapace-eau-majeur
p497
aV/fr/mmorpg/encyclopedie/equipements/12393-mitaine-aibre
p498
aV/fr/mmorpg/encyclopedie/equipements/12627-fuyard-majeur
p499
aV/fr/mmorpg/encyclopedie/equipements/13783-saccageur-eau-majeur
p500
aV/fr/mmorpg/encyclopedie/equipements/13822-muraille-air-majeure
p501
aV/fr/mmorpg/encyclopedie/equipements/8270-bracelet-minotot
p502
aV/fr/mmorpg/encyclopedie/equipements/15200-cape-phossile
p503
aV/fr/mmorpg/encyclopedie/equipements/7056-krepite
p504
aV/fr/mmorpg/encyclopedie/equipements/8283-ceinture-minotot
p505
aV/fr/mmorpg/encyclopedie/equipements/8862-ceinture-bitoufale-prosper-youpla
p506
aV/fr/mmorpg/encyclopedie/equipements/11620-anneau-frage
p507
aV/fr/mmorpg/encyclopedie/equipements/7515-cape-itaineflam
p508
aV/fr/mmorpg/encyclopedie/equipements/12089-amulette-frigostine
p509
aV/fr/mmorpg/encyclopedie/equipements/15199-ceinture-phossile
p510
aV/fr/mmorpg/encyclopedie/equipements/11618-sandales-gorithme
p511
aV/fr/mmorpg/encyclopedie/equipements/15202-cape-pere-phorreur
p512
aV/fr/mmorpg/encyclopedie/equipements/11622-anneau-nobstant
p513
aV/fr/mmorpg/encyclopedie/equipements/8474-coiffe-chene-mou
p514
aV/fr/mmorpg/encyclopedie/equipements/7142-piruk
p515
aV/fr/mmorpg/encyclopedie/equipements/6483-casque-bwork-bronze
p516
aV/fr/mmorpg/encyclopedie/equipements/11580-cape-mansot-royal
p517
aV/fr/mmorpg/encyclopedie/equipements/14638-nageoiture
p518
aV/fr/mmorpg/encyclopedie/equipements/12090-anneau-frigostine
p519
aV/fr/mmorpg/encyclopedie/equipements/8262-meulette
p520
aV/fr/mmorpg/encyclopedie/equipements/8472-cape-usee-chene-mou
p521
aV/fr/mmorpg/encyclopedie/equipements/12092-bottes-frigostine
p522
aV/fr/mmorpg/encyclopedie/equipements/8473-string-automnal-chene-mou
p523
aV/fr/mmorpg/encyclopedie/equipements/8267-coiffe-meulou
p524
aV/fr/mmorpg/encyclopedie/equipements/11621-anneau-made
p525
aV/fr/mmorpg/encyclopedie/equipements/12091-ceinture-frigostine
p526
aV/fr/mmorpg/encyclopedie/equipements/11577-anneau-mansot-royal
p527
aV/fr/mmorpg/encyclopedie/equipements/8265-cape-meulou
p528
aV/fr/mmorpg/encyclopedie/equipements/8470-anneau-chene-mou
p529
aV/fr/mmorpg/encyclopedie/equipements/11667-bottes-hoktone
p530
aV/fr/mmorpg/encyclopedie/equipements/8469-talisman-chene-mou
p531
aV/fr/mmorpg/encyclopedie/equipements/14637-coiffe-medusoide
p532
aV/fr/mmorpg/encyclopedie/equipements/11609-talisman-doline
p533
aV/fr/mmorpg/encyclopedie/equipements/11686-pagniglou
p534
aV/fr/mmorpg/encyclopedie/equipements/11572-couronne-mansot-royal
p535
aV/fr/mmorpg/encyclopedie/equipements/14639-nageanneau
p536
aV/fr/mmorpg/encyclopedie/equipements/8471-tongues-dimanche-chene-mou
p537
aV/fr/mmorpg/encyclopedie/equipements/8869-bottines-bois-abrakleur
p538
aV/fr/mmorpg/encyclopedie/equipements/7003-talisman-elya-wood
p539
aV/fr/mmorpg/encyclopedie/equipements/8459-collier-ceremonial-seigneur-rats
p540
aV/fr/mmorpg/encyclopedie/equipements/8822-masque-abrakleur-clair
p541
aV/fr/mmorpg/encyclopedie/equipements/8847-casque-guerrier-zoth
p542
aV/fr/mmorpg/encyclopedie/equipements/8462-bottes-ceremoniales-seigneur-rats
p543
aV/fr/mmorpg/encyclopedie/equipements/15999-masque-panteroz
p544
aV/fr/mmorpg/encyclopedie/equipements/15356-chapeau-truche
p545
aV/fr/mmorpg/encyclopedie/equipements/8461-ceinture-ceremoniale-seigneur-rats
p546
aV/fr/mmorpg/encyclopedie/equipements/8260-bandeau-kaliptus
p547
aV/fr/mmorpg/encyclopedie/equipements/15518-amulette-ali-grothor
p548
aV/fr/mmorpg/encyclopedie/equipements/8457-coiffe-ceremoniale-seigneur-rats
p549
aV/fr/mmorpg/encyclopedie/equipements/8820-masque-sergent-zoth
p550
aV/fr/mmorpg/encyclopedie/equipements/15514-casque-ali-grothor
p551
aV/fr/mmorpg/encyclopedie/equipements/15508-gant-capitaine-ekarlatte
p552
aV/fr/mmorpg/encyclopedie/equipements/8264-bottes-meulou
p553
aV/fr/mmorpg/encyclopedie/equipements/11605-cape-ricieuse
p554
aV/fr/mmorpg/encyclopedie/equipements/8460-anneau-ceremonial-seigneur-rats
p555
aV/fr/mmorpg/encyclopedie/equipements/15361-gruchette
p556
aV/fr/mmorpg/encyclopedie/equipements/8458-cape-ceremoniale-seigneur-rats
p557
aV/fr/mmorpg/encyclopedie/equipements/1488-plimclik
p558
aV/fr/mmorpg/encyclopedie/equipements/8651-sangle-hynere
p559
aV/fr/mmorpg/encyclopedie/equipements/8652-ceinture-buhlent
p560
aV/fr/mmorpg/encyclopedie/equipements/15358-anneau-truche
p561
aV/fr/mmorpg/encyclopedie/equipements/8653-sangle-glinglin
p562
aV/fr/mmorpg/encyclopedie/equipements/8660-sangle-cible
p563
aV/fr/mmorpg/encyclopedie/equipements/8654-ceinture-lupine
p564
aV/fr/mmorpg/encyclopedie/equipements/8661-gaine-hage
p565
aV/fr/mmorpg/encyclopedie/equipements/15359-gruchape
p566
aV/fr/mmorpg/encyclopedie/equipements/16143-ceinture-billonnante
p567
aV/fr/mmorpg/encyclopedie/equipements/15507-bottes-capitaine-ekarlatte
p568
aV/fr/mmorpg/encyclopedie/equipements/8655-sangle-holon
p569
aV/fr/mmorpg/encyclopedie/equipements/8662-ceinture-gessant
p570
aV/fr/mmorpg/encyclopedie/equipements/11599-coiffe-fricochere
p571
aV/fr/mmorpg/encyclopedie/equipements/8656-ceinture-luthe
p572
aV/fr/mmorpg/encyclopedie/equipements/12391-sangle-hysserine
p573
aV/fr/mmorpg/encyclopedie/equipements/8657-sangle-hans
p574
aV/fr/mmorpg/encyclopedie/equipements/11584-ceinture-royalmouth
p575
aV/fr/mmorpg/encyclopedie/equipements/12392-corde-ure
p576
aV/fr/mmorpg/encyclopedie/equipements/8658-ceinture-bodiezele
p577
aV/fr/mmorpg/encyclopedie/equipements/8659-sangle-huee
p578
aV/fr/mmorpg/encyclopedie/equipements/13264-ceinture-blot
p579
aV/fr/mmorpg/encyclopedie/equipements/17451-elementure
p580
aV/fr/mmorpg/encyclopedie/equipements/8569-doro-blak
p581
aV/fr/mmorpg/encyclopedie/equipements/16004-anneau-tranchant
p582
aV/fr/mmorpg/encyclopedie/equipements/8291-bottes-dragoeuf
p583
aV/fr/mmorpg/encyclopedie/equipements/2807-ceinture-meulante
p584
aV/fr/mmorpg/encyclopedie/equipements/8287-casque-dragoeuf
p585
aV/fr/mmorpg/encyclopedie/equipements/8821-coiffe-disciple-zoth
p586
aV/fr/mmorpg/encyclopedie/equipements/8846-chapeau-gamine-zoth
p587
aV/fr/mmorpg/encyclopedie/equipements/15357-ceintruche
p588
aV/fr/mmorpg/encyclopedie/equipements/7921-couronne-tofu-royal
p589
aV/fr/mmorpg/encyclopedie/equipements/8289-anneau-dragoeuf
p590
aV/fr/mmorpg/encyclopedie/equipements/16003-string-fouetteur
p591
aV/fr/mmorpg/encyclopedie/equipements/15506-ceinture-capitaine-ekarlatte
p592
aV/fr/mmorpg/encyclopedie/equipements/11575-amulette-royalmouth
p593
aV/fr/mmorpg/encyclopedie/equipements/11563-amulette-ementaire
p594
aV/fr/mmorpg/encyclopedie/equipements/12085-anneau-moutheur
p595
aV/fr/mmorpg/encyclopedie/equipements/13584-coffresac-koalak
p596
aV/fr/mmorpg/encyclopedie/equipements/2547-corbacape-mastralis
p597
aV/fr/mmorpg/encyclopedie/equipements/11598-casque-ecumouth
p598
aV/fr/mmorpg/encyclopedie/equipements/15360-gruchaussures
p599
aV/fr/mmorpg/encyclopedie/equipements/8286-cape-dragoeuf
p600
aV/fr/mmorpg/encyclopedie/equipements/8263-anneau-meulou
p601
aV/fr/mmorpg/encyclopedie/equipements/8871-ceinture-claire-abrakleur
p602
aV/fr/mmorpg/encyclopedie/equipements/15523-cape-ali-grothor
p603
aV/fr/mmorpg/encyclopedie/equipements/7138-ortiz
p604
aV/fr/mmorpg/encyclopedie/equipements/7139-ceinture-sula
p605
aV/fr/mmorpg/encyclopedie/equipements/11571-coiffe-royalmouth
p606
aV/fr/mmorpg/encyclopedie/equipements/8266-ceinture-meulou
p607
aV/fr/mmorpg/encyclopedie/equipements/15791-cape-xelomorphe
p608
aV/fr/mmorpg/encyclopedie/equipements/7140-xenature
p609
aV/fr/mmorpg/encyclopedie/equipements/7136-medaille-kido
p610
aV/fr/mmorpg/encyclopedie/equipements/8288-ceinture-dragoeuf
p611
aV/fr/mmorpg/encyclopedie/equipements/12087-cape-mouthante
p612
aV/fr/mmorpg/encyclopedie/equipements/15778-coiffe-fraktale
p613
aV/fr/mmorpg/encyclopedie/equipements/8290-amulette-dragoeuf
p614
aV/fr/mmorpg/encyclopedie/equipements/6461-feuille-printemps
p615
aV/fr/mmorpg/encyclopedie/equipements/14502-ceinture-wabbit-garou
p616
aV/fr/mmorpg/encyclopedie/equipements/8824-kaskargo
p617
aV/fr/mmorpg/encyclopedie/equipements/7514-bottes-harry
p618
aV/fr/mmorpg/encyclopedie/equipements/15789-bottes-xelomorphes
p619
aV/fr/mmorpg/encyclopedie/equipements/15780-ceinture-fraktale
p620
aV/fr/mmorpg/encyclopedie/equipements/2400-bottes-animales-sombres
p621
aV/fr/mmorpg/encyclopedie/equipements/7513-sandales-titude
p622
aV/fr/mmorpg/encyclopedie/equipements/14497-anneau-wabbit-cephale
p623
aV/fr/mmorpg/encyclopedie/equipements/7141-holoune
p624
aV/fr/mmorpg/encyclopedie/equipements/14500-bottes-wabbit-garou
p625
aV/fr/mmorpg/encyclopedie/equipements/12086-bague-moutheuze
p626
aV/fr/mmorpg/encyclopedie/equipements/2629-caracape-minotoris
p627
aV/fr/mmorpg/encyclopedie/equipements/14004-bottes-mandrin
p628
aV/fr/mmorpg/encyclopedie/equipements/14005-bottes-will-killson
p629
aV/fr/mmorpg/encyclopedie/equipements/2655-ceinture-corbaquiale
p630
aV/fr/mmorpg/encyclopedie/equipements/15783-anneau-fraktale
p631
aV/fr/mmorpg/encyclopedie/equipements/17386-geta-zardeuses
p632
aV/fr/mmorpg/encyclopedie/equipements/14002-bottes-inferno
p633
aV/fr/mmorpg/encyclopedie/equipements/6481-dora-bora
p634
aV/fr/mmorpg/encyclopedie/equipements/14003-bottes-styx
p635
aV/fr/mmorpg/encyclopedie/equipements/14501-cape-wabbit-garou
p636
aV/fr/mmorpg/encyclopedie/equipements/6998-alliance-elya-wood
p637
aV/fr/mmorpg/encyclopedie/equipements/14499-bottes-wabbit-cephale
p638
aV/fr/mmorpg/encyclopedie/equipements/17593-bottes-pounicheur
p639
aV/fr/mmorpg/encyclopedie/equipements/11582-bottes-royalmouth
p640
aV/fr/mmorpg/encyclopedie/equipements/6443-amulette-renouveau
p641
aV/fr/mmorpg/encyclopedie/equipements/7143-solomonk
p642
aV/fr/mmorpg/encyclopedie/equipements/6989-krokop
p643
aV/fr/mmorpg/encyclopedie/equipements/15784-anneau-xelomorphe
p644
aV/fr/mmorpg/encyclopedie/equipements/17595-scalp-pounicheur
p645
aV/fr/mmorpg/encyclopedie/equipements/6450-ceinture-amant
p646
aV/fr/mmorpg/encyclopedie/equipements/7215-sandales-humeuses
p647
aV/fr/mmorpg/encyclopedie/equipements/14498-amulette-wabbit-cephale
p648
aV/fr/mmorpg/encyclopedie/equipements/7151-koloss
p649
aV/fr/mmorpg/encyclopedie/equipements/7152-kanistere
p650
aV/fr/mmorpg/encyclopedie/equipements/8865-anneau-skargo
p651
aV/fr/mmorpg/encyclopedie/equipements/12775-ceinture-abdominable
p652
aV/fr/mmorpg/encyclopedie/equipements/17594-ceinture-pounicheur
p653
aV/fr/mmorpg/encyclopedie/equipements/17596-bague-ecaflipuces
p654
aV/fr/mmorpg/encyclopedie/equipements/17597-collier-ecaflipuces
p655
aV/fr/mmorpg/encyclopedie/equipements/8463-abracaska-ancestral
p656
aV/fr/mmorpg/encyclopedie/equipements/8466-anneau-ancestral
p657
aV/fr/mmorpg/encyclopedie/equipements/6990-phalene
p658
aV/fr/mmorpg/encyclopedie/equipements/8276-bottes-minotoror
p659
aV/fr/mmorpg/encyclopedie/equipements/17598-cape-ecaflipuces
p660
aV/fr/mmorpg/encyclopedie/equipements/8464-abracapa-ancestrale
p661
aV/fr/mmorpg/encyclopedie/equipements/8468-abrature-ancestrale
p662
aV/fr/mmorpg/encyclopedie/equipements/8268-collier-minotoror
p663
aV/fr/mmorpg/encyclopedie/equipements/7150-bekille
p664
aV/fr/mmorpg/encyclopedie/equipements/8465-torque-ancestral
p665
aV/fr/mmorpg/encyclopedie/equipements/8467-protege-tibias-ancestraux
p666
aV/fr/mmorpg/encyclopedie/equipements/8866-puissante-cape-fulgurante
p667
aV/fr/mmorpg/encyclopedie/equipements/15012-casque-fleche-mauve
p668
aV/fr/mmorpg/encyclopedie/equipements/7516-coiffe-bimd-oule
p669
aV/fr/mmorpg/encyclopedie/equipements/8282-ceinture-minotoror
p670
aV/fr/mmorpg/encyclopedie/equipements/15013-cape-fleche-mauve
p671
aV/fr/mmorpg/encyclopedie/equipements/8271-anneau-dragon-cochon
p672
aV/fr/mmorpg/encyclopedie/equipements/7144-blemiche
p673
aV/fr/mmorpg/encyclopedie/equipements/12774-raquettes-dugraal
p674
aV/fr/mmorpg/encyclopedie/equipements/12407-amulette-krokilleur
p675
aV/fr/mmorpg/encyclopedie/equipements/8279-cape-minotoror
p676
aV/fr/mmorpg/encyclopedie/equipements/13328-ceintrouille
p677
aV/fr/mmorpg/encyclopedie/equipements/7145-coiffe-gaddie
p678
aV/fr/mmorpg/encyclopedie/equipements/14810-insigne-keukeuf
p679
aV/fr/mmorpg/encyclopedie/equipements/13480-araknacoiffe-velue
p680
aV/fr/mmorpg/encyclopedie/equipements/6995-cape-houte
p681
aV/fr/mmorpg/encyclopedie/equipements/8443-cape-rat-noir
p682
aV/fr/mmorpg/encyclopedie/equipements/8451-coiffe-rat-blanc
p683
aV/fr/mmorpg/encyclopedie/equipements/15212-casque-berserkoffre
p684
aV/fr/mmorpg/encyclopedie/equipements/8874-ouassulette
p685
aV/fr/mmorpg/encyclopedie/equipements/8845-capuche-ouassingue
p686
aV/fr/mmorpg/encyclopedie/equipements/6743-fourballiance
p687
aV/fr/mmorpg/encyclopedie/equipements/12415-ceinture-krokilleur
p688
aV/fr/mmorpg/encyclopedie/equipements/14581-bracelet-tmotiv
p689
aV/fr/mmorpg/encyclopedie/equipements/6744-fourbabottes
p690
aV/fr/mmorpg/encyclopedie/equipements/15207-cape-precieuse
p691
aV/fr/mmorpg/encyclopedie/equipements/13326-chapitrouille
p692
aV/fr/mmorpg/encyclopedie/equipements/6477-chapeau-mineur-sombre
p693
aV/fr/mmorpg/encyclopedie/equipements/12373-bottes-gorgouille
p694
aV/fr/mmorpg/encyclopedie/equipements/6742-fourbamulette
p695
aV/fr/mmorpg/encyclopedie/equipements/8281-cape-dragon-cochon
p696
aV/fr/mmorpg/encyclopedie/equipements/8445-collier-rat-noir
p697
aV/fr/mmorpg/encyclopedie/equipements/17093-cape-moon
p698
aV/fr/mmorpg/encyclopedie/equipements/6745-ceinture-fourbissante
p699
aV/fr/mmorpg/encyclopedie/equipements/8442-masque-rat-noir
p700
aV/fr/mmorpg/encyclopedie/equipements/14579-masque-iproquo
p701
aV/fr/mmorpg/encyclopedie/equipements/8452-cape-rat-blanc
p702
aV/fr/mmorpg/encyclopedie/equipements/8453-collier-rat-blanc
p703
aV/fr/mmorpg/encyclopedie/equipements/8455-ceinture-rat-blanc
p704
aV/fr/mmorpg/encyclopedie/equipements/14583-scaramouchapeau
p705
aV/fr/mmorpg/encyclopedie/equipements/17094-amulette-moon
p706
aV/fr/mmorpg/encyclopedie/equipements/15215-bottes-berserkoffre
p707
aV/fr/mmorpg/encyclopedie/equipements/6763-fourbacapa
p708
aV/fr/mmorpg/encyclopedie/equipements/8163-kabuto
p709
aV/fr/mmorpg/encyclopedie/equipements/12413-cape-krokilleur
p710
aV/fr/mmorpg/encyclopedie/equipements/14580-ceinture-hetorique
p711
aV/fr/mmorpg/encyclopedie/equipements/8446-bottes-rat-noir
p712
aV/fr/mmorpg/encyclopedie/equipements/8447-ceinture-rat-noir
p713
aV/fr/mmorpg/encyclopedie/equipements/8454-gantelet-rat-blanc
p714
aV/fr/mmorpg/encyclopedie/equipements/15208-ceinture-precieuse
p715
aV/fr/mmorpg/encyclopedie/equipements/13327-capitrouille
p716
aV/fr/mmorpg/encyclopedie/equipements/12635-fugitif
p717
aV/fr/mmorpg/encyclopedie/equipements/12705-porteur
p718
aV/fr/mmorpg/encyclopedie/equipements/13791-paralyseur
p719
aV/fr/mmorpg/encyclopedie/equipements/13809-muraille-terre
p720
aV/fr/mmorpg/encyclopedie/equipements/13830-voyageur
p721
aV/fr/mmorpg/encyclopedie/equipements/8441-billreole
p722
aV/fr/mmorpg/encyclopedie/equipements/8667-bottes-ulisme
p723
aV/fr/mmorpg/encyclopedie/equipements/8713-getas-bernacle
p724
aV/fr/mmorpg/encyclopedie/equipements/12629-ralentisseur
p725
aV/fr/mmorpg/encyclopedie/equipements/12650-cuirasse-air
p726
aV/fr/mmorpg/encyclopedie/equipements/12681-cuirasse-terre
p727
aV/fr/mmorpg/encyclopedie/equipements/12698-ravageur-terre
p728
aV/fr/mmorpg/encyclopedie/equipements/12713-acrobate
p729
aV/fr/mmorpg/encyclopedie/equipements/12720-savant
p730
aV/fr/mmorpg/encyclopedie/equipements/8668-bottes-hanik
p731
aV/fr/mmorpg/encyclopedie/equipements/13761-astucieux
p732
aV/fr/mmorpg/encyclopedie/equipements/13785-saccageur-air
p733
aV/fr/mmorpg/encyclopedie/equipements/13800-bousculeur
p734
aV/fr/mmorpg/encyclopedie/equipements/13824-puissant
p735
aV/fr/mmorpg/encyclopedie/equipements/14423-casque-ombre
p736
aV/fr/mmorpg/encyclopedie/equipements/16195-enrage
p737
aV/fr/mmorpg/encyclopedie/equipements/16203-erudit
p738
aV/fr/mmorpg/encyclopedie/equipements/16328-carapace-air
p739
aV/fr/mmorpg/encyclopedie/equipements/16335-nomade
p740
aV/fr/mmorpg/encyclopedie/equipements/12389-bottes-opsy
p741
aV/fr/mmorpg/encyclopedie/equipements/12644-adamantin
p742
aV/fr/mmorpg/encyclopedie/equipements/13483-krosmapeau
p743
aV/fr/mmorpg/encyclopedie/equipements/13755-docteur
p744
aV/fr/mmorpg/encyclopedie/equipements/13779-saccageur-feu
p745
aV/fr/mmorpg/encyclopedie/equipements/13818-muraille-eau
p746
aV/fr/mmorpg/encyclopedie/equipements/14277-ceinture-ding-dong
p747
aV/fr/mmorpg/encyclopedie/equipements/8669-tong-aclou
p748
aV/fr/mmorpg/encyclopedie/equipements/6764-fourbacoiffe
p749
aV/fr/mmorpg/encyclopedie/equipements/16189-guerisseur
p750
aV/fr/mmorpg/encyclopedie/equipements/16259-devastateur-feu
p751
aV/fr/mmorpg/encyclopedie/equipements/16266-devastateur-air
p752
aV/fr/mmorpg/encyclopedie/equipements/16305-culbuteur
p753
aV/fr/mmorpg/encyclopedie/equipements/16312-fonceur
p754
aV/fr/mmorpg/encyclopedie/equipements/6804-amulette-chef-bwork
p755
aV/fr/mmorpg/encyclopedie/equipements/6811-cape-chef-bwork
p756
aV/fr/mmorpg/encyclopedie/equipements/8273-collier-dragon-cochon
p757
aV/fr/mmorpg/encyclopedie/equipements/12638-insaisissable
p758
aV/fr/mmorpg/encyclopedie/equipements/12715-joueur
p759
aV/fr/mmorpg/encyclopedie/equipements/13484-krosmape
p760
aV/fr/mmorpg/encyclopedie/equipements/13749-bloqueur
p761
aV/fr/mmorpg/encyclopedie/equipements/13770-bastion
p762
aV/fr/mmorpg/encyclopedie/equipements/13794-imprenable
p763
aV/fr/mmorpg/encyclopedie/equipements/13833-feroce
p764
aV/fr/mmorpg/encyclopedie/equipements/16142-bottes-ransitoires
p765
aV/fr/mmorpg/encyclopedie/equipements/16250-fortification
p766
aV/fr/mmorpg/encyclopedie/equipements/12273-ceinture-glourdorak
p767
aV/fr/mmorpg/encyclopedie/equipements/12653-cuirasse-eau
p768
aV/fr/mmorpg/encyclopedie/equipements/12684-cuirasse-neutre
p769
aV/fr/mmorpg/encyclopedie/equipements/12709-soigneur
p770
aV/fr/mmorpg/encyclopedie/equipements/12723-furibond
p771
aV/fr/mmorpg/encyclopedie/equipements/13113-scaphandre-hyperscampe
p772
aV/fr/mmorpg/encyclopedie/equipements/13485-krosmangle
p773
aV/fr/mmorpg/encyclopedie/equipements/13764-equilibriste
p774
aV/fr/mmorpg/encyclopedie/equipements/13788-entraveur
p775
aV/fr/mmorpg/encyclopedie/equipements/13803-inflexible
p776
aV/fr/mmorpg/encyclopedie/equipements/13827-robuste
p777
aV/fr/mmorpg/encyclopedie/equipements/6805-bracelet-chef-bwork
p778
aV/fr/mmorpg/encyclopedie/equipements/6812-slip-chef-bwork
p779
aV/fr/mmorpg/encyclopedie/equipements/16244-cascadeur
p780
aV/fr/mmorpg/encyclopedie/equipements/16275-temporiseur
p781
aV/fr/mmorpg/encyclopedie/equipements/16338-sanguinaire
p782
aV/fr/mmorpg/encyclopedie/equipements/6813-casque-chef-bwork
p783
aV/fr/mmorpg/encyclopedie/equipements/12623-tacleur
p784
aV/fr/mmorpg/encyclopedie/equipements/12647-rempart
p785
aV/fr/mmorpg/encyclopedie/equipements/12678-cuirasse-feu
p786
aV/fr/mmorpg/encyclopedie/equipements/12692-ravageur-feu
p787
aV/fr/mmorpg/encyclopedie/equipements/13486-krosmaussures
p788
aV/fr/mmorpg/encyclopedie/equipements/13758-forcene
p789
aV/fr/mmorpg/encyclopedie/equipements/14030-scaphandre-magmatique
p790
aV/fr/mmorpg/encyclopedie/equipements/16283-etourdisseur
p791
aV/fr/mmorpg/encyclopedie/equipements/16315-carapace-terre
p792
aV/fr/mmorpg/encyclopedie/equipements/16322-carapace-feu
p793
aV/fr/mmorpg/encyclopedie/equipements/16183-obstructeur
p794
aV/fr/mmorpg/encyclopedie/equipements/16253-devastateur-terre
p795
aV/fr/mmorpg/encyclopedie/equipements/16309-solide
p796
aV/fr/mmorpg/encyclopedie/equipements/12390-sabots-taj
p797
aV/fr/mmorpg/encyclopedie/equipements/12686-ravageur-air
p798
aV/fr/mmorpg/encyclopedie/equipements/12701-initiateur
p799
aV/fr/mmorpg/encyclopedie/equipements/12725-survivant
p800
aV/fr/mmorpg/encyclopedie/equipements/13773-saccageur-terre
p801
aV/fr/mmorpg/encyclopedie/equipements/13797-evanescent
p802
aV/fr/mmorpg/encyclopedie/equipements/13812-muraille-neutre
p803
aV/fr/mmorpg/encyclopedie/equipements/13829-turbulent
p804
aV/fr/mmorpg/encyclopedie/equipements/6807-bottes-chef-bwork
p805
aV/fr/mmorpg/encyclopedie/equipements/8663-bottes-antrin
p806
aV/fr/mmorpg/encyclopedie/equipements/8670-bottes-swana
p807
aV/fr/mmorpg/encyclopedie/equipements/8726-chaussures-lepon-davignon
p808
aV/fr/mmorpg/encyclopedie/equipements/8858-bottes-horchons
p809
aV/fr/mmorpg/encyclopedie/equipements/12632-engourdisseur
p810
aV/fr/mmorpg/encyclopedie/equipements/13767-taquin
p811
aV/fr/mmorpg/encyclopedie/equipements/13806-precurseur
p812
aV/fr/mmorpg/encyclopedie/equipements/15213-ceinture-berserkoffre
p813
aV/fr/mmorpg/encyclopedie/equipements/8664-charentaises-poils
p814
aV/fr/mmorpg/encyclopedie/equipements/8727-bottes-antouche
p815
aV/fr/mmorpg/encyclopedie/equipements/16247-chanceux
p816
aV/fr/mmorpg/encyclopedie/equipements/16331-vigoureux
p817
aV/fr/mmorpg/encyclopedie/equipements/12626-fuyard
p818
aV/fr/mmorpg/encyclopedie/equipements/12695-ravageur-neutre
p819
aV/fr/mmorpg/encyclopedie/equipements/13263-bottes-omates
p820
aV/fr/mmorpg/encyclopedie/equipements/13782-saccageur-eau
p821
aV/fr/mmorpg/encyclopedie/equipements/13821-muraille-air
p822
aV/fr/mmorpg/encyclopedie/equipements/8665-bottes-hox
p823
aV/fr/mmorpg/encyclopedie/equipements/8728-bottes-deuradi
p824
aV/fr/mmorpg/encyclopedie/equipements/1099-amulette-elementaire
p825
aV/fr/mmorpg/encyclopedie/equipements/16192-miracule
p826
aV/fr/mmorpg/encyclopedie/equipements/16293-evasif
p827
aV/fr/mmorpg/encyclopedie/equipements/16301-cavaleur
p828
aV/fr/mmorpg/encyclopedie/equipements/16325-carapace-eau
p829
aV/fr/mmorpg/encyclopedie/equipements/17450-bottes-initiales
p830
aV/fr/mmorpg/encyclopedie/equipements/8666-bottes-hairo
p831
aV/fr/mmorpg/encyclopedie/equipements/12641-pousseur
p832
aV/fr/mmorpg/encyclopedie/equipements/12689-ravageur-eau
p833
aV/fr/mmorpg/encyclopedie/equipements/13752-vagabond
p834
aV/fr/mmorpg/encyclopedie/equipements/13776-saccageur-neutre
p835
aV/fr/mmorpg/encyclopedie/equipements/13815-muraille-feu
p836
aV/fr/mmorpg/encyclopedie/equipements/16186-deserteur
p837
aV/fr/mmorpg/encyclopedie/equipements/16256-devastateur-neutre
p838
aV/fr/mmorpg/encyclopedie/equipements/16263-devastateur-eau
p839
aV/fr/mmorpg/encyclopedie/equipements/16319-carapace-neutre
p840
aV/fr/mmorpg/encyclopedie/equipements/16333-remueur
p841
aV/fr/mmorpg/encyclopedie/equipements/12371-cape-gorgouille
p842
aV/fr/mmorpg/encyclopedie/equipements/8269-anneau-minotoror
p843
aV/fr/mmorpg/encyclopedie/equipements/8456-bottes-rat-blanc
p844
aV/fr/mmorpg/encyclopedie/equipements/15210-bottes-precieuses
p845
aV/fr/mmorpg/encyclopedie/equipements/7228-chapeau-feudala
p846
aV/fr/mmorpg/encyclopedie/equipements/8448-anneau-rat-noir
p847
aV/fr/mmorpg/encyclopedie/equipements/12372-gantelet-gorgouille
p848
aV/fr/mmorpg/encyclopedie/equipements/14582-brighellaniere
p849
aV/fr/mmorpg/encyclopedie/equipements/7034-casque-maitre-nabur
p850
aV/fr/mmorpg/encyclopedie/equipements/12370-amulette-gorgouille
p851
aV/fr/mmorpg/encyclopedie/equipements/2677-ceinture-chouqueuse
p852
aV/fr/mmorpg/encyclopedie/equipements/8285-coiffe-dragon-cochon
p853
aV/fr/mmorpg/encyclopedie/equipements/6460-feuille-hiver
p854
aV/fr/mmorpg/encyclopedie/equipements/912-bottes-dorees-hogmeiser
p855
aV/fr/mmorpg/encyclopedie/equipements/8331-coiffe-dragueuse
p856
aV/fr/mmorpg/encyclopedie/equipements/17111-alliance-capitaine-pirate
p857
aV/fr/mmorpg/encyclopedie/equipements/2384-bottes-animales
p858
aV/fr/mmorpg/encyclopedie/equipements/7002-resinette
p859
aV/fr/mmorpg/encyclopedie/equipements/16177-caparak
p860
aV/fr/mmorpg/encyclopedie/equipements/16173-anneau-tisse
p861
aV/fr/mmorpg/encyclopedie/equipements/16174-bottes-soyeuses
p862
aV/fr/mmorpg/encyclopedie/equipements/6474-dragocoiffe-noire
p863
aV/fr/mmorpg/encyclopedie/equipements/17110-chapeau-capitaine-pirate
p864
aV/fr/mmorpg/encyclopedie/equipements/7232-cape-feudala
p865
aV/fr/mmorpg/encyclopedie/equipements/8870-ceinture-sombre-abrakleur
p866
aV/fr/mmorpg/encyclopedie/equipements/17109-cape-capitaine-pirate
p867
aV/fr/mmorpg/encyclopedie/equipements/16176-amulette-huit-yeux
p868
aV/fr/mmorpg/encyclopedie/equipements/8278-mules-dragon-cochon
p869
aV/fr/mmorpg/encyclopedie/equipements/7252-amulette-feudala
p870
aV/fr/mmorpg/encyclopedie/equipements/9166-bloptes-multicolores-royales
p871
aV/fr/mmorpg/encyclopedie/equipements/16175-coiffe-nefileuse
p872
aV/fr/mmorpg/encyclopedie/equipements/16209-alliance-forestiers
p873
aV/fr/mmorpg/encyclopedie/equipements/9148-blopanneau-multicolore-royal
p874
aV/fr/mmorpg/encyclopedie/equipements/16178-gaine-nyee
p875
aV/fr/mmorpg/encyclopedie/equipements/9157-amublop-multicolore-royale
p876
aV/fr/mmorpg/encyclopedie/equipements/917-feuille-automne
p877
aV/fr/mmorpg/encyclopedie/equipements/9175-blopture-multicolore-royale
p878
aV/fr/mmorpg/encyclopedie/equipements/7118-anneau-k-tuelle
p879
aV/fr/mmorpg/encyclopedie/equipements/2385-brouteuse
p880
aV/fr/mmorpg/encyclopedie/equipements/6469-alliance-farle
p881
aV/fr/mmorpg/encyclopedie/equipements/8823-masque-abrakleur-sombre
p882
aV/fr/mmorpg/encyclopedie/equipements/12675-collier-rouge-daigoro
p883
aV/fr/mmorpg/encyclopedie/equipements/8146-bottes-craqueleur-legendaire
p884
aV/fr/mmorpg/encyclopedie/equipements/7029-ceinture-sangroku
p885
aV/fr/mmorpg/encyclopedie/equipements/12856-sacoche-redolphe
p886
aV/fr/mmorpg/encyclopedie/equipements/12857-coiffe-redolphe
p887
aV/fr/mmorpg/encyclopedie/equipements/12858-licol-redolphe
p888
aV/fr/mmorpg/encyclopedie/equipements/12859-sabots-redolphe
p889
aV/fr/mmorpg/encyclopedie/equipements/1669-ceinture-vents
p890
aV/fr/mmorpg/encyclopedie/equipements/14496-bracelet-blanc-pa-wabbit
p891
aV/fr/mmorpg/encyclopedie/equipements/8150-amulette-craqueleur-legendaire
p892
aV/fr/mmorpg/encyclopedie/equipements/8181-craquelocape-legendaire
p893
aV/fr/mmorpg/encyclopedie/equipements/6506-anneau-mineur-gogorifiant
p894
aV/fr/mmorpg/encyclopedie/equipements/6654-bottes-gardien-egouts
p895
aV/fr/mmorpg/encyclopedie/equipements/12674-coiffe-daigoro
p896
aV/fr/mmorpg/encyclopedie/equipements/14493-ceinture-wa-wobot
p897
aV/fr/mmorpg/encyclopedie/equipements/14495-ceinture-blanc-pa-wabbit
p898
aV/fr/mmorpg/encyclopedie/equipements/2391-amulette-bouboule
p899
aV/fr/mmorpg/encyclopedie/equipements/8880-amufafah
p900
aV/fr/mmorpg/encyclopedie/equipements/12676-pagne-daigoro
p901
aV/fr/mmorpg/encyclopedie/equipements/14494-casque-blanc-pa-wabbit
p902
aV/fr/mmorpg/encyclopedie/equipements/4381-amulette-argie
p903
aV/fr/mmorpg/encyclopedie/equipements/7887-coiffe-koulosse
p904
aV/fr/mmorpg/encyclopedie/equipements/7146-bertheuze
p905
aV/fr/mmorpg/encyclopedie/equipements/14492-cape-wa-wobot
p906
aV/fr/mmorpg/encyclopedie/equipements/7248-alliance-feudala
p907
aV/fr/mmorpg/encyclopedie/equipements/7240-ceinture-feudala
p908
aV/fr/mmorpg/encyclopedie/equipements/2804-ceinture-mulante
p909
aV/fr/mmorpg/encyclopedie/equipements/8819-cape-ouassingue
p910
aV/fr/mmorpg/encyclopedie/equipements/12387-cape-endaison
p911
aV/fr/mmorpg/encyclopedie/equipements/14491-couronne-wa-wobot
p912
aV/fr/mmorpg/encyclopedie/equipements/8302-cape-shika
p913
aV/fr/mmorpg/encyclopedie/equipements/8643-cape-sulhit
p914
aV/fr/mmorpg/encyclopedie/equipements/8650-cape-haharnum
p915
aV/fr/mmorpg/encyclopedie/equipements/9127-blopanneau-reinette-royal
p916
aV/fr/mmorpg/encyclopedie/equipements/9165-bloptes-indigo-royales
p917
aV/fr/mmorpg/encyclopedie/equipements/9172-blopture-reinette-royale
p918
aV/fr/mmorpg/encyclopedie/equipements/12388-cape-aircussion
p919
aV/fr/mmorpg/encyclopedie/equipements/8303-shikature
p920
aV/fr/mmorpg/encyclopedie/equipements/8644-cape-hitton
p921
aV/fr/mmorpg/encyclopedie/equipements/9128-blopanneau-coco-royal
p922
aV/fr/mmorpg/encyclopedie/equipements/9173-blopture-coco-royale
p923
aV/fr/mmorpg/encyclopedie/equipements/14556-masque-miss-triste
p924
aV/fr/mmorpg/encyclopedie/equipements/8304-shikacoiffe
p925
aV/fr/mmorpg/encyclopedie/equipements/8645-cape-ytale
p926
aV/fr/mmorpg/encyclopedie/equipements/9129-blopanneau-indigo-royal
p927
aV/fr/mmorpg/encyclopedie/equipements/9174-blopture-indigo-royale
p928
aV/fr/mmorpg/encyclopedie/equipements/16141-cape-ortail
p929
aV/fr/mmorpg/encyclopedie/equipements/2369-puissante-ceinture-fulgurante
p930
aV/fr/mmorpg/encyclopedie/equipements/8639-cape-aurale
p931
aV/fr/mmorpg/encyclopedie/equipements/8646-cape-lyne
p932
aV/fr/mmorpg/encyclopedie/equipements/14557-cape-miss-triste
p933
aV/fr/mmorpg/encyclopedie/equipements/8647-cape-wera
p934
aV/fr/mmorpg/encyclopedie/equipements/17449-cape-rimordiale
p935
aV/fr/mmorpg/encyclopedie/equipements/6774-sabots-farle
p936
aV/fr/mmorpg/encyclopedie/equipements/8648-cape-hulco
p937
aV/fr/mmorpg/encyclopedie/equipements/9153-amublop-griotte-royale
p938
aV/fr/mmorpg/encyclopedie/equipements/8649-cape-hadosse
p939
aV/fr/mmorpg/encyclopedie/equipements/9154-amublop-reinette-royale
p940
aV/fr/mmorpg/encyclopedie/equipements/13262-sac-rebleux
p941
aV/fr/mmorpg/encyclopedie/equipements/6776-farlature
p942
aV/fr/mmorpg/encyclopedie/equipements/8640-cape-aille
p943
aV/fr/mmorpg/encyclopedie/equipements/9155-amublop-coco-royale
p944
aV/fr/mmorpg/encyclopedie/equipements/9162-bloptes-griotte-royales
p945
aV/fr/mmorpg/encyclopedie/equipements/1695-cape-elya-wood
p946
aV/fr/mmorpg/encyclopedie/equipements/8641-cape-routh
p947
aV/fr/mmorpg/encyclopedie/equipements/9156-amublop-indigo-royale
p948
aV/fr/mmorpg/encyclopedie/equipements/9163-bloptes-reinette-royales
p949
aV/fr/mmorpg/encyclopedie/equipements/8147-casque-craqueleur-legendaire
p950
aV/fr/mmorpg/encyclopedie/equipements/8301-sabots-shika
p951
aV/fr/mmorpg/encyclopedie/equipements/8642-cape-huchon
p952
aV/fr/mmorpg/encyclopedie/equipements/9126-blopanneau-griotte-royal
p953
aV/fr/mmorpg/encyclopedie/equipements/9164-bloptes-coco-royales
p954
aV/fr/mmorpg/encyclopedie/equipements/9171-blopture-griotte-royale
p955
aV/fr/mmorpg/encyclopedie/equipements/7038-couronne-roi-gelax
p956
aV/fr/mmorpg/encyclopedie/equipements/6767-bracelet-magique-farle
p957
aV/fr/mmorpg/encyclopedie/equipements/8152-ceinture-craqueleur-legendaire
p958
aV/fr/mmorpg/encyclopedie/equipements/12072-ceinture-nelween
p959
aV/fr/mmorpg/encyclopedie/equipements/7251-amulette-terrdala
p960
aV/fr/mmorpg/encyclopedie/equipements/6778-farlacoiffe
p961
aV/fr/mmorpg/encyclopedie/equipements/7247-alliance-terrdala
p962
aV/fr/mmorpg/encyclopedie/equipements/7058-octovius
p963
aV/fr/mmorpg/encyclopedie/equipements/2808-ceinture-dracochoune
p964
aV/fr/mmorpg/encyclopedie/equipements/7012-doubitch-o-boul
p965
aV/fr/mmorpg/encyclopedie/equipements/7218-sandales-adin
p966
aV/fr/mmorpg/encyclopedie/equipements/8298-epis-shika
p967
aV/fr/mmorpg/encyclopedie/equipements/6775-cape-farle
p968
aV/fr/mmorpg/encyclopedie/equipements/7243-geta-terrdala
p969
aV/fr/mmorpg/encyclopedie/equipements/6766-epis-farle
p970
aV/fr/mmorpg/encyclopedie/equipements/7227-chapeau-terrdala
p971
aV/fr/mmorpg/encyclopedie/equipements/910-bottes-hogmeiser
p972
aV/fr/mmorpg/encyclopedie/equipements/12071-bottes-nelween
p973
aV/fr/mmorpg/encyclopedie/equipements/8829-chapeau-barbroussa
p974
aV/fr/mmorpg/encyclopedie/equipements/12069-amulette-nelween
p975
aV/fr/mmorpg/encyclopedie/equipements/11191-bottes-nettoyeur-donjon
p976
aV/fr/mmorpg/encyclopedie/equipements/8299-bracelet-magique-shika
p977
aV/fr/mmorpg/encyclopedie/equipements/6482-korko-kousto
p978
aV/fr/mmorpg/encyclopedie/equipements/7889-bottes-koulosse
p979
aV/fr/mmorpg/encyclopedie/equipements/8149-craquanneau-legendaire
p980
aV/fr/mmorpg/encyclopedie/equipements/2375-bottes-orino
p981
aV/fr/mmorpg/encyclopedie/equipements/8330-coiffe-dragoeuf-volant
p982
aV/fr/mmorpg/encyclopedie/equipements/12070-cape-nelween
p983
aV/fr/mmorpg/encyclopedie/equipements/6712-cape-hucine
p984
aV/fr/mmorpg/encyclopedie/equipements/6465-anneau-loopine
p985
aV/fr/mmorpg/encyclopedie/equipements/7902-ceinture-femme
p986
aV/fr/mmorpg/encyclopedie/equipements/6819-bracelet-chef-crocodaille
p987
aV/fr/mmorpg/encyclopedie/equipements/6834-coiffe-chef-crocodaille
p988
aV/fr/mmorpg/encyclopedie/equipements/7241-ceinture-aerdala
p989
aV/fr/mmorpg/encyclopedie/equipements/6830-petit-sac-ecolier-chef-crocodaille
p990
aV/fr/mmorpg/encyclopedie/equipements/6817-amulette-chef-crocodaille
p991
aV/fr/mmorpg/encyclopedie/equipements/6825-pantoufles-crochues-chef-crocodaille
p992
aV/fr/mmorpg/encyclopedie/equipements/5122-maitrise-poupees
p993
aV/fr/mmorpg/encyclopedie/equipements/7888-sac-koulosse
p994
aV/fr/mmorpg/encyclopedie/equipements/7123-anneau-bsene
p995
aV/fr/mmorpg/encyclopedie/equipements/6473-dragocoiffe-saphir
p996
aV/fr/mmorpg/encyclopedie/equipements/7244-geta-feudala
p997
aV/fr/mmorpg/encyclopedie/equipements/14307-maskamakna
p998
aV/fr/mmorpg/encyclopedie/equipements/3206-xerbo
p999
aV/fr/mmorpg/encyclopedie/equipements/6467-anneau-nime
p1000
aV/fr/mmorpg/encyclopedie/equipements/7011-cape-desir-o-boul
p1001
aV/fr/mmorpg/encyclopedie/equipements/8879-anneau-poli
p1002
aV/fr/mmorpg/encyclopedie/equipements/13687-saponnet-nowel
p1003
aV/fr/mmorpg/encyclopedie/equipements/10984-amulette-yech-ti
p1004
aV/fr/mmorpg/encyclopedie/equipements/14506-perruque-iop
p1005
aV/fr/mmorpg/encyclopedie/equipements/6831-ceinture-chef-crocodaille
p1006
aV/fr/mmorpg/encyclopedie/equipements/6997-anneau-fioutioure
p1007
aV/fr/mmorpg/encyclopedie/equipements/7233-cape-aerdala
p1008
aV/fr/mmorpg/encyclopedie/equipements/2811-ceinture-ouginakale
p1009
aV/fr/mmorpg/encyclopedie/equipements/6470-bottes-eleveur-bouftous
p1010
aV/fr/mmorpg/encyclopedie/equipements/10836-boufbamu
p1011
aV/fr/mmorpg/encyclopedie/equipements/6954-cape-mulou
p1012
aV/fr/mmorpg/encyclopedie/equipements/7229-chapeau-aerdala
p1013
aV/fr/mmorpg/encyclopedie/equipements/7231-cape-terrdala
p1014
aV/fr/mmorpg/encyclopedie/equipements/7104-tongues-baques
p1015
aV/fr/mmorpg/encyclopedie/equipements/2387-poilue
p1016
aV/fr/mmorpg/encyclopedie/equipements/6444-amulette-turquoise
p1017
aV/fr/mmorpg/encyclopedie/equipements/7253-amulette-aerdala
p1018
aV/fr/mmorpg/encyclopedie/equipements/2373-moon-boutse
p1019
aV/fr/mmorpg/encyclopedie/equipements/7340-cape-kitsou
p1020
aV/fr/mmorpg/encyclopedie/equipements/11374-amupapier
p1021
aV/fr/mmorpg/encyclopedie/equipements/15997-ceinture-anesthesiante
p1022
aV/fr/mmorpg/encyclopedie/equipements/2381-cape-flotteuse
p1023
aV/fr/mmorpg/encyclopedie/equipements/11417-anokio
p1024
aV/fr/mmorpg/encyclopedie/equipements/11418-cape-kabroule
p1025
aV/fr/mmorpg/encyclopedie/equipements/11402-chapinokio
p1026
aV/fr/mmorpg/encyclopedie/equipements/6952-coiffe-mulou
p1027
aV/fr/mmorpg/encyclopedie/equipements/6953-bottines-mulou
p1028
aV/fr/mmorpg/encyclopedie/equipements/10846-phero-cape
p1029
aV/fr/mmorpg/encyclopedie/equipements/11375-slipapier
p1030
aV/fr/mmorpg/encyclopedie/equipements/8007-cape-koalak
p1031
aV/fr/mmorpg/encyclopedie/equipements/8867-cape-meupette
p1032
aV/fr/mmorpg/encyclopedie/equipements/160-flan-etoiles
p1033
aV/fr/mmorpg/encyclopedie/equipements/7339-coiffe-kitsou
p1034
aV/fr/mmorpg/encyclopedie/equipements/11377-chaplume
p1035
aV/fr/mmorpg/encyclopedie/equipements/13018-bottoduvet
p1036
aV/fr/mmorpg/encyclopedie/equipements/14299-caskwitteur
p1037
aV/fr/mmorpg/encyclopedie/equipements/8009-coiffe-koalak
p1038
aV/fr/mmorpg/encyclopedie/equipements/2683-ceinture-tortue-bleue
p1039
aV/fr/mmorpg/encyclopedie/equipements/17212-heaume-1001-griffes
p1040
aV/fr/mmorpg/encyclopedie/equipements/17213-bottes-1001-griffes
p1041
aV/fr/mmorpg/encyclopedie/equipements/8860-alliance-corail
p1042
aV/fr/mmorpg/encyclopedie/equipements/11401-capinokio
p1043
aV/fr/mmorpg/encyclopedie/equipements/14967-glutonnet
p1044
aV/fr/mmorpg/encyclopedie/equipements/1707-sac-grand-aventurier
p1045
aV/fr/mmorpg/encyclopedie/equipements/2469-gelano
p1046
aV/fr/mmorpg/encyclopedie/equipements/2685-ceinture-tortue-verte
p1047
aV/fr/mmorpg/encyclopedie/equipements/17214-culotte-1001-griffes
p1048
aV/fr/mmorpg/encyclopedie/equipements/17500-cape-julith
p1049
aV/fr/mmorpg/encyclopedie/equipements/2530-carabottes
p1050
aV/fr/mmorpg/encyclopedie/equipements/15613-casque-draconique
p1051
aV/fr/mmorpg/encyclopedie/equipements/14300-gouglamu
p1052
aV/fr/mmorpg/encyclopedie/equipements/6493-tongues-wabbits
p1053
aV/fr/mmorpg/encyclopedie/equipements/6501-sac-cawotte
p1054
aV/fr/mmorpg/encyclopedie/equipements/12350-roubal
p1055
aV/fr/mmorpg/encyclopedie/equipements/8003-amulette-koalak
p1056
aV/fr/mmorpg/encyclopedie/equipements/8003-amulette-koalak
p1057
aV/fr/mmorpg/encyclopedie/equipements/971-cape-wa-wabbit
p1058
aV/fr/mmorpg/encyclopedie/equipements/2447-gelocoiffe
p1059
aV/fr/mmorpg/encyclopedie/equipements/2531-caracoiffe
p1060
aV/fr/mmorpg/encyclopedie/equipements/2687-ceinture-tortue-rouge
p1061
aV/fr/mmorpg/encyclopedie/equipements/16073-hotte-nowel
p1062
aV/fr/mmorpg/encyclopedie/equipements/2532-caracape
p1063
aV/fr/mmorpg/encyclopedie/equipements/16377-capuche-joris
p1064
aV/fr/mmorpg/encyclopedie/equipements/11373-chapapier
p1065
aV/fr/mmorpg/encyclopedie/equipements/11993-coiffe-popol-poulpe
p1066
aV/fr/mmorpg/encyclopedie/equipements/12237-amourlette-hernel
p1067
aV/fr/mmorpg/encyclopedie/equipements/13689-muloreilles
p1068
aV/fr/mmorpg/encyclopedie/equipements/2470-gelobottes
p1069
aV/fr/mmorpg/encyclopedie/equipements/17504-torque-1001-griffes
p1070
aV/fr/mmorpg/encyclopedie/equipements/14311-justanneau
p1071
aV/fr/mmorpg/encyclopedie/equipements/15996-pendentif-curatif
p1072
aV/fr/mmorpg/encyclopedie/equipements/2471-geloture
p1073
aV/fr/mmorpg/encyclopedie/equipements/12238-amourlette-hernelle
p1074
aV/fr/mmorpg/encyclopedie/equipements/13015-chapoduvet
p1075
aV/fr/mmorpg/encyclopedie/equipements/8006-bottes-koalak
p1076
aV/fr/mmorpg/encyclopedie/equipements/2472-gelamu
p1077
aV/fr/mmorpg/encyclopedie/equipements/2681-ceinture-tortue-jaune
p1078
aV/fr/mmorpg/encyclopedie/equipements/13016-capoduvet
p1079
aV/fr/mmorpg/encyclopedie/equipements/969-couronne-wa-wabbit
p1080
aV/fr/mmorpg/encyclopedie/equipements/17211-queue-1001-griffes
p1081
aV/fr/mmorpg/encyclopedie/equipements/13017-ceinturoduvet
p1082
aV/fr/mmorpg/encyclopedie/equipements/6499-amulette-dents-wabbits
p1083
aV/fr/mmorpg/encyclopedie/equipements/8008-ceinture-koalak
p1084
aV/fr/mmorpg/encyclopedie/equipements/11362-anneau-piggy-paupe
p1085
aV/fr/mmorpg/encyclopedie/equipements/11379-plumamulette
p1086
aV/fr/mmorpg/encyclopedie/equipements/11386-bottoppinz
p1087
aV/fr/mmorpg/encyclopedie/equipements/12466-boracelet
p1088
aV/fr/mmorpg/encyclopedie/equipements/14309-justocape
p1089
aV/fr/mmorpg/encyclopedie/equipements/6500-oreilles-wabbits
p1090
aV/fr/mmorpg/encyclopedie/equipements/7116-anneau-merta
p1091
aV/fr/mmorpg/encyclopedie/equipements/17454-cape-epiniere
p1092
aV/fr/mmorpg/encyclopedie/equipements/2446-gelocape
p1093
aV/fr/mmorpg/encyclopedie/equipements/17455-chapeau-h-lnor
p1094
aV/fr/mmorpg/encyclopedie/equipements/1499-enutrofion
p1095
aV/fr/mmorpg/encyclopedie/equipements/17456-souliers-pineux
p1096
aV/fr/mmorpg/encyclopedie/equipements/14302-anneau-stroplante
p1097
aV/fr/mmorpg/encyclopedie/equipements/17457-anneau-welle
p1098
aV/fr/mmorpg/encyclopedie/equipements/11372-capapier
p1099
aV/fr/mmorpg/encyclopedie/equipements/14310-justobottes
p1100
aV/fr/mmorpg/encyclopedie/equipements/11399-anauffe-souris
p1101
aV/fr/mmorpg/encyclopedie/equipements/6498-slip-kangouwou-wabbit-gm
p1102
aV/fr/mmorpg/encyclopedie/equipements/15998-alliance-apaisante
p1103
aV/fr/mmorpg/encyclopedie/equipements/6468-anneau-jeune-vald
p1104
aV/fr/mmorpg/encyclopedie/equipements/11384-anoppinz
p1105
aV/fr/mmorpg/encyclopedie/equipements/11416-bottinokio
p1106
aV/fr/mmorpg/encyclopedie/equipements/8117-scaracape-doree
p1107
aV/fr/mmorpg/encyclopedie/equipements/12410-bracelet-vulkain
p1108
aV/fr/mmorpg/encyclopedie/equipements/12465-souliers-vernis-bruns
p1109
aV/fr/mmorpg/encyclopedie/equipements/13305-bonnet-hui
p1110
aV/fr/mmorpg/encyclopedie/equipements/7216-sandales-koliques
p1111
aV/fr/mmorpg/encyclopedie/equipements/11419-bottes-kabroule
p1112
aV/fr/mmorpg/encyclopedie/equipements/11364-amulette-piggy-paupe
p1113
aV/fr/mmorpg/encyclopedie/equipements/11396-ceintusonnier
p1114
aV/fr/mmorpg/encyclopedie/equipements/7119-anneau
p1115
aV/fr/mmorpg/encyclopedie/equipements/14304-amulette-stroplante
p1116
aV/fr/mmorpg/encyclopedie/equipements/11420-chapeau-kabroule
p1117
aV/fr/mmorpg/encyclopedie/equipements/13457-diplocape
p1118
aV/fr/mmorpg/encyclopedie/equipements/8116-scaracoiffe-doree
p1119
aV/fr/mmorpg/encyclopedie/equipements/12503-cape-pandalida
p1120
aV/fr/mmorpg/encyclopedie/equipements/11347-ceinture-ougicle
p1121
aV/fr/mmorpg/encyclopedie/equipements/11400-bottauffe-souris
p1122
aV/fr/mmorpg/encyclopedie/equipements/13893-glaglamu
p1123
aV/fr/mmorpg/encyclopedie/equipements/7249-alliance-aerdala
p1124
aV/fr/mmorpg/encyclopedie/equipements/13299-cape-sainte
p1125
aV/fr/mmorpg/encyclopedie/equipements/13460-diplanneau
p1126
aV/fr/mmorpg/encyclopedie/equipements/12041-amulette-hichete
p1127
aV/fr/mmorpg/encyclopedie/equipements/8129-amuloumulette
p1128
aV/fr/mmorpg/encyclopedie/equipements/6472-dragocoiffe-doree
p1129
aV/fr/mmorpg/encyclopedie/equipements/11398-chapauffe-souris
p1130
aV/fr/mmorpg/encyclopedie/equipements/13319-capokami
p1131
aV/fr/mmorpg/encyclopedie/equipements/12463-slip-vert
p1132
aV/fr/mmorpg/encyclopedie/equipements/7245-geta-aerdala
p1133
aV/fr/mmorpg/encyclopedie/equipements/11346-anneau-ougicle
p1134
aV/fr/mmorpg/encyclopedie/equipements/11378-plumodales
p1135
aV/fr/mmorpg/encyclopedie/equipements/12411-bottes-vulkain
p1136
aV/fr/mmorpg/encyclopedie/equipements/13306-chapeau
p1137
aV/fr/mmorpg/encyclopedie/equipements/7131-anneau-piaume
p1138
aV/fr/mmorpg/encyclopedie/equipements/11363-ceinture-piggy-paupe
p1139
aV/fr/mmorpg/encyclopedie/equipements/12380-bottilozite
p1140
aV/fr/mmorpg/encyclopedie/equipements/13321-bottokami
p1141
aV/fr/mmorpg/encyclopedie/equipements/12040-ceinture-hichete
p1142
aV/fr/mmorpg/encyclopedie/equipements/7219-sandales-ailuya
p1143
aV/fr/mmorpg/encyclopedie/equipements/12027-anneau-mirh
p1144
aV/fr/mmorpg/encyclopedie/equipements/13138-pendentiffre
p1145
aV/fr/mmorpg/encyclopedie/equipements/14303-cape-stroplante
p1146
aV/fr/mmorpg/encyclopedie/equipements/2489-vegacape
p1147
aV/fr/mmorpg/encyclopedie/equipements/11382-capoppinz
p1148
aV/fr/mmorpg/encyclopedie/equipements/13458-diplocoiffe
p1149
aV/fr/mmorpg/encyclopedie/equipements/11376-caplume
p1150
aV/fr/mmorpg/encyclopedie/equipements/12672-sabottes-danioule
p1151
aV/fr/mmorpg/encyclopedie/equipements/6994-cape-hote
p1152
aV/fr/mmorpg/encyclopedie/equipements/12464-borate
p1153
aV/fr/mmorpg/encyclopedie/equipements/1668-ceinture-dodu-trembleur
p1154
aV/fr/mmorpg/encyclopedie/equipements/11394-chaprisonnier
p1155
aV/fr/mmorpg/encyclopedie/equipements/13136-caskoffre
p1156
aV/fr/mmorpg/encyclopedie/equipements/11078-cape-lonne
p1157
aV/fr/mmorpg/encyclopedie/equipements/7341-anneau-kitsou
p1158
aV/fr/mmorpg/encyclopedie/equipements/7884-cape-boufcoul
p1159
aV/fr/mmorpg/encyclopedie/equipements/7001-talisman-faucheur-avoine
p1160
aV/fr/mmorpg/encyclopedie/equipements/11079-chapeau-lonne
p1161
aV/fr/mmorpg/encyclopedie/equipements/12028-ceinture-mirh
p1162
aV/fr/mmorpg/encyclopedie/equipements/13300-cape-eti
p1163
aV/fr/mmorpg/encyclopedie/equipements/12670-cape-danioule
p1164
aV/fr/mmorpg/encyclopedie/equipements/13318-chapokami
p1165
aV/fr/mmorpg/encyclopedie/equipements/6992-kannipiou
p1166
aV/fr/mmorpg/encyclopedie/equipements/967-cape-fulgurante
p1167
aV/fr/mmorpg/encyclopedie/equipements/2404-ceinture-rat
p1168
aV/fr/mmorpg/encyclopedie/equipements/11080-bottes-lonne
p1169
aV/fr/mmorpg/encyclopedie/equipements/13459-diplamu
p1170
aV/fr/mmorpg/encyclopedie/equipements/13891-glaglano
p1171
aV/fr/mmorpg/encyclopedie/equipements/10686-cape-roks
p1172
aV/fr/mmorpg/encyclopedie/equipements/11348-amulette-ougicle
p1173
aV/fr/mmorpg/encyclopedie/equipements/13320-annokami
p1174
aV/fr/mmorpg/encyclopedie/equipements/11395-amusonnier
p1175
aV/fr/mmorpg/encyclopedie/equipements/1693-cape-jules-yanos
p1176
aV/fr/mmorpg/encyclopedie/equipements/11397-capauffe-souris
p1177
aV/fr/mmorpg/encyclopedie/equipements/12409-anneau-vulkain
p1178
aV/fr/mmorpg/encyclopedie/equipements/7128-anneau-karina
p1179
aV/fr/mmorpg/encyclopedie/equipements/12671-ceinture-danioule
p1180
aV/fr/mmorpg/encyclopedie/equipements/8122-scarabottes-dorees
p1181
aV/fr/mmorpg/encyclopedie/equipements/10854-anneau-klueme
p1182
aV/fr/mmorpg/encyclopedie/equipements/12021-kwakwaffe
p1183
aV/fr/mmorpg/encyclopedie/equipements/12379-bracilozite
p1184
aV/fr/mmorpg/encyclopedie/equipements/12039-alliance-hichete
p1185
aV/fr/mmorpg/encyclopedie/equipements/13892-glaglape
p1186
aV/fr/mmorpg/encyclopedie/equipements/12031-getas-logram
p1187
aV/fr/mmorpg/encyclopedie/equipements/8133-scaracoiffe-noire
p1188
aV/fr/mmorpg/encyclopedie/equipements/7117-alliance-ethnique
p1189
aV/fr/mmorpg/encyclopedie/equipements/10688-ceinture-roks
p1190
aV/fr/mmorpg/encyclopedie/equipements/8004-anneau-koalak
p1191
aV/fr/mmorpg/encyclopedie/equipements/2386-guenille
p1192
aV/fr/mmorpg/encyclopedie/equipements/13139-boffes-cottre
p1193
aV/fr/mmorpg/encyclopedie/equipements/10852-amulette-hulkrap
p1194
aV/fr/mmorpg/encyclopedie/equipements/12029-amulette-mirh
p1195
aV/fr/mmorpg/encyclopedie/equipements/12377-chapilozite
p1196
aV/fr/mmorpg/encyclopedie/equipements/13022-collier-feline
p1197
aV/fr/mmorpg/encyclopedie/equipements/10853-amulette-kloug
p1198
aV/fr/mmorpg/encyclopedie/equipements/348-bottes-celeri
p1199
aV/fr/mmorpg/encyclopedie/equipements/3204-ceinture-bontarienne
p1200
aV/fr/mmorpg/encyclopedie/equipements/3205-ceinture-brakmarienne
p1201
aV/fr/mmorpg/encyclopedie/equipements/10847-bottes-hulkrap
p1202
aV/fr/mmorpg/encyclopedie/equipements/11383-chapoppinz
p1203
aV/fr/mmorpg/encyclopedie/equipements/12502-ceinture-pandalida
p1204
aV/fr/mmorpg/encyclopedie/equipements/13170-amulette-pwak
p1205
aV/fr/mmorpg/encyclopedie/equipements/10848-bottes-klueme
p1206
aV/fr/mmorpg/encyclopedie/equipements/2398-oeil-kanigrou
p1207
aV/fr/mmorpg/encyclopedie/equipements/2444-ceinture-royale-bouftou
p1208
aV/fr/mmorpg/encyclopedie/equipements/10685-casque-roks
p1209
aV/fr/mmorpg/encyclopedie/equipements/12504-bandeau-pandalida
p1210
aV/fr/mmorpg/encyclopedie/equipements/1474-amulette-xelor
p1211
aV/fr/mmorpg/encyclopedie/equipements/12019-kwakwanneau
p1212
aV/fr/mmorpg/encyclopedie/equipements/4684-amulette-craqueleur-plaines
p1213
aV/fr/mmorpg/encyclopedie/equipements/10850-ceinture-klueme
p1214
aV/fr/mmorpg/encyclopedie/equipements/12020-kwakwalliance
p1215
aV/fr/mmorpg/encyclopedie/equipements/12417-chapeau-vulkain
p1216
aV/fr/mmorpg/encyclopedie/equipements/10855-anneau-kloug
p1217
aV/fr/mmorpg/encyclopedie/equipements/13582-ballerines-roses
p1218
aV/fr/mmorpg/encyclopedie/equipements/1666-bottes-apprenti-invocateur
p1219
aV/fr/mmorpg/encyclopedie/equipements/10849-ceinture-hulkrap
p1220
aV/fr/mmorpg/encyclopedie/equipements/11393-caprisonnier
p1221
aV/fr/mmorpg/encyclopedie/equipements/8119-scarature-doree
p1222
aV/fr/mmorpg/encyclopedie/equipements/10687-anneau-roks
p1223
aV/fr/mmorpg/encyclopedie/equipements/10904-grozillamu
p1224
aV/fr/mmorpg/encyclopedie/equipements/8134-scaracape-noire
p1225
aV/fr/mmorpg/encyclopedie/equipements/13137-ceinture-coffrete
p1226
aV/fr/mmorpg/encyclopedie/equipements/15964-corset-decode
p1227
aV/fr/mmorpg/encyclopedie/equipements/10851-ceinture-kloug
p1228
aV/fr/mmorpg/encyclopedie/equipements/3203-anneau-tribal
p1229
aV/fr/mmorpg/encyclopedie/equipements/12378-capilozite
p1230
aV/fr/mmorpg/encyclopedie/equipements/6956-anneau-mulou
p1231
aV/fr/mmorpg/encyclopedie/equipements/1331-medaille-oly
p1232
aV/fr/mmorpg/encyclopedie/equipements/11352-bottes-karotz
p1233
aV/fr/mmorpg/encyclopedie/equipements/12628-ralentisseur-mineur
p1234
aV/fr/mmorpg/encyclopedie/equipements/12659-cuirasse-feu-mineur
p1235
aV/fr/mmorpg/encyclopedie/equipements/12680-cuirasse-terre-mineur
p1236
aV/fr/mmorpg/encyclopedie/equipements/12712-acrobate-mineur
p1237
aV/fr/mmorpg/encyclopedie/equipements/13760-astucieux-mineur
p1238
aV/fr/mmorpg/encyclopedie/equipements/13784-saccageur-air-mineur
p1239
aV/fr/mmorpg/encyclopedie/equipements/13823-puissant-mineur
p1240
aV/fr/mmorpg/encyclopedie/equipements/7121-anneau-zocomial
p1241
aV/fr/mmorpg/encyclopedie/equipements/9158-bloptes-griottes
p1242
aV/fr/mmorpg/encyclopedie/equipements/2094-makroute-sombre
p1243
aV/fr/mmorpg/encyclopedie/equipements/2443-amulette-royale-bouftou
p1244
aV/fr/mmorpg/encyclopedie/equipements/16194-enrage-mineur
p1245
aV/fr/mmorpg/encyclopedie/equipements/16202-erudit-mineur
p1246
aV/fr/mmorpg/encyclopedie/equipements/16303-culbuteur-mineur
p1247
aV/fr/mmorpg/encyclopedie/equipements/16327-carapace-air-mineur
p1248
aV/fr/mmorpg/encyclopedie/equipements/12643-adamantin-mineur
p1249
aV/fr/mmorpg/encyclopedie/equipements/9159-bloptes-reinette
p1250
aV/fr/mmorpg/encyclopedie/equipements/13754-docteur-mineur
p1251
aV/fr/mmorpg/encyclopedie/equipements/13778-saccageur-feu-mineur
p1252
aV/fr/mmorpg/encyclopedie/equipements/13817-muraille-eau-mineure
p1253
aV/fr/mmorpg/encyclopedie/equipements/13831-examinateur
p1254
aV/fr/mmorpg/encyclopedie/equipements/16188-guerisseur-mineur
p1255
aV/fr/mmorpg/encyclopedie/equipements/16258-devastateur-feu-mineur
p1256
aV/fr/mmorpg/encyclopedie/equipements/16265-devastateur-air-mineur
p1257
aV/fr/mmorpg/encyclopedie/equipements/16311-fonceur-mineur
p1258
aV/fr/mmorpg/encyclopedie/equipements/1667-ceinture-luthuthu
p1259
aV/fr/mmorpg/encyclopedie/equipements/12637-insaisissable-mineur
p1260
aV/fr/mmorpg/encyclopedie/equipements/12707-soigneur-mineur
p1261
aV/fr/mmorpg/encyclopedie/equipements/13748-bloqueur-mineur
p1262
aV/fr/mmorpg/encyclopedie/equipements/13793-imprenable-mineur
p1263
aV/fr/mmorpg/encyclopedie/equipements/13832-feroce-mineur
p1264
aV/fr/mmorpg/encyclopedie/equipements/9150-amublop-reinette
p1265
aV/fr/mmorpg/encyclopedie/equipements/9167-blopture-griotte
p1266
aV/fr/mmorpg/encyclopedie/equipements/2438-boufcoiffe-royale
p1267
aV/fr/mmorpg/encyclopedie/equipements/2445-cape-bouffante-royale
p1268
aV/fr/mmorpg/encyclopedie/equipements/16336-observateur
p1269
aV/fr/mmorpg/encyclopedie/equipements/127-bottes-bowisse
p1270
aV/fr/mmorpg/encyclopedie/equipements/9151-amublop-coco
p1271
aV/fr/mmorpg/encyclopedie/equipements/9168-blopture-reinette
p1272
aV/fr/mmorpg/encyclopedie/equipements/12652-cuirasse-eau-mineur
p1273
aV/fr/mmorpg/encyclopedie/equipements/12683-cuirasse-neutre-mineur
p1274
aV/fr/mmorpg/encyclopedie/equipements/12722-furibond-mineur
p1275
aV/fr/mmorpg/encyclopedie/equipements/13763-equilibriste-mineur
p1276
aV/fr/mmorpg/encyclopedie/equipements/13787-entraveur-mineur
p1277
aV/fr/mmorpg/encyclopedie/equipements/13802-inflexible-mineur
p1278
aV/fr/mmorpg/encyclopedie/equipements/13826-robuste-mineur
p1279
aV/fr/mmorpg/encyclopedie/equipements/16243-cascadeur-mineur
p1280
aV/fr/mmorpg/encyclopedie/equipements/16274-temporiseur-mineur
p1281
aV/fr/mmorpg/encyclopedie/equipements/16337-sanguinaire-mineur
p1282
aV/fr/mmorpg/encyclopedie/equipements/12033-anneau-logram
p1283
aV/fr/mmorpg/encyclopedie/equipements/12622-tacleur-mineur
p1284
aV/fr/mmorpg/encyclopedie/equipements/12646-rempart-mineur
p1285
aV/fr/mmorpg/encyclopedie/equipements/12691-ravageur-eau-mineur
p1286
aV/fr/mmorpg/encyclopedie/equipements/13757-forcene-mineur
p1287
aV/fr/mmorpg/encyclopedie/equipements/9152-amublop-indigo
p1288
aV/fr/mmorpg/encyclopedie/equipements/9169-blopture-coco
p1289
aV/fr/mmorpg/encyclopedie/equipements/1088-masque-kanniboul
p1290
aV/fr/mmorpg/encyclopedie/equipements/16282-etourdisseur-mineur
p1291
aV/fr/mmorpg/encyclopedie/equipements/16314-carapace-terre-mineur
p1292
aV/fr/mmorpg/encyclopedie/equipements/16321-carapace-feu-mineur
p1293
aV/fr/mmorpg/encyclopedie/equipements/2688-ceinture-kolante
p1294
aV/fr/mmorpg/encyclopedie/equipements/16182-obstructeur-mineur
p1295
aV/fr/mmorpg/encyclopedie/equipements/16252-devastateur-terre-mineur
p1296
aV/fr/mmorpg/encyclopedie/equipements/16308-solide-mineur
p1297
aV/fr/mmorpg/encyclopedie/equipements/12414-sac-voyage-parfait-petit-vulkain
p1298
aV/fr/mmorpg/encyclopedie/equipements/12717-joueur-mineur
p1299
aV/fr/mmorpg/encyclopedie/equipements/12748-ravageur-terre-mineur
p1300
aV/fr/mmorpg/encyclopedie/equipements/13020-sabots-aiguilles-feline
p1301
aV/fr/mmorpg/encyclopedie/equipements/13772-saccageur-terre-mineur
p1302
aV/fr/mmorpg/encyclopedie/equipements/13796-evanescent-mineur
p1303
aV/fr/mmorpg/encyclopedie/equipements/13811-muraille-neutre-mineure
p1304
aV/fr/mmorpg/encyclopedie/equipements/9122-blopanneau-griotte
p1305
aV/fr/mmorpg/encyclopedie/equipements/9160-bloptes-coco
p1306
aV/fr/mmorpg/encyclopedie/equipements/12631-engourdisseur-mineur
p1307
aV/fr/mmorpg/encyclopedie/equipements/12718-savant-mineur
p1308
aV/fr/mmorpg/encyclopedie/equipements/13766-taquin-mineur
p1309
aV/fr/mmorpg/encyclopedie/equipements/13805-precurseur-mineur
p1310
aV/fr/mmorpg/encyclopedie/equipements/14271-chance
p1311
aV/fr/mmorpg/encyclopedie/equipements/7552-capodindo
p1312
aV/fr/mmorpg/encyclopedie/equipements/9123-blopanneau-reinette
p1313
aV/fr/mmorpg/encyclopedie/equipements/9161-bloptes-indigo
p1314
aV/fr/mmorpg/encyclopedie/equipements/1910-cape-ouginak
p1315
aV/fr/mmorpg/encyclopedie/equipements/16246-chanceux-mineur
p1316
aV/fr/mmorpg/encyclopedie/equipements/16330-vigoureux-mineur
p1317
aV/fr/mmorpg/encyclopedie/equipements/13781-saccageur-eau-mineur
p1318
aV/fr/mmorpg/encyclopedie/equipements/13820-muraille-air-mineure
p1319
aV/fr/mmorpg/encyclopedie/equipements/16191-miracule-mineur
p1320
aV/fr/mmorpg/encyclopedie/equipements/16292-evasif-mineur
p1321
aV/fr/mmorpg/encyclopedie/equipements/16300-cavaleur-mineur
p1322
aV/fr/mmorpg/encyclopedie/equipements/16324-carapace-eau-mineur
p1323
aV/fr/mmorpg/encyclopedie/equipements/12625-fuyard-mineur
p1324
aV/fr/mmorpg/encyclopedie/equipements/12649-cuirasse-air-mineur
p1325
aV/fr/mmorpg/encyclopedie/equipements/12694-ravageur-feu-mineur
p1326
aV/fr/mmorpg/encyclopedie/equipements/12702-initiateur-mineur
p1327
aV/fr/mmorpg/encyclopedie/equipements/7553-chapodindo
p1328
aV/fr/mmorpg/encyclopedie/equipements/9124-blopanneau-coco
p1329
aV/fr/mmorpg/encyclopedie/equipements/16185-deserteur-mineur
p1330
aV/fr/mmorpg/encyclopedie/equipements/16255-devastateur-neutre-mineur
p1331
aV/fr/mmorpg/encyclopedie/equipements/16262-devastateur-eau-mineur
p1332
aV/fr/mmorpg/encyclopedie/equipements/16318-carapace-neutre-mineur
p1333
aV/fr/mmorpg/encyclopedie/equipements/12640-pousseur-mineur
p1334
aV/fr/mmorpg/encyclopedie/equipements/12688-ravageur-air-mineur
p1335
aV/fr/mmorpg/encyclopedie/equipements/12727-survivant-mineur
p1336
aV/fr/mmorpg/encyclopedie/equipements/13751-vagabond-mineur
p1337
aV/fr/mmorpg/encyclopedie/equipements/13775-saccageur-neutre-mineur
p1338
aV/fr/mmorpg/encyclopedie/equipements/13799-bousculeur-mineur
p1339
aV/fr/mmorpg/encyclopedie/equipements/13814-muraille-feu-mineure
p1340
aV/fr/mmorpg/encyclopedie/equipements/7554-botodindo
p1341
aV/fr/mmorpg/encyclopedie/equipements/9125-blopanneau-indigo
p1342
aV/fr/mmorpg/encyclopedie/equipements/9149-amublop-griotte
p1343
aV/fr/mmorpg/encyclopedie/equipements/9170-blopture-indigo
p1344
aV/fr/mmorpg/encyclopedie/equipements/1665-bottes-apprentissage
p1345
aV/fr/mmorpg/encyclopedie/equipements/2442-boufbottes-royales
p1346
aV/fr/mmorpg/encyclopedie/equipements/16249-fortification-mineure
p1347
aV/fr/mmorpg/encyclopedie/equipements/12634-fugitif-mineur
p1348
aV/fr/mmorpg/encyclopedie/equipements/12696-ravageur-neutre-mineur
p1349
aV/fr/mmorpg/encyclopedie/equipements/12704-porteur-mineur
p1350
aV/fr/mmorpg/encyclopedie/equipements/13769-bastion-mineur
p1351
aV/fr/mmorpg/encyclopedie/equipements/13790-paralyseur-mineur
p1352
aV/fr/mmorpg/encyclopedie/equipements/13808-muraille-terre-mineure
p1353
aV/fr/mmorpg/encyclopedie/equipements/7555-anodindo
p1354
aV/fr/mmorpg/encyclopedie/equipements/7239-ceinture-terrdala
p1355
aV/fr/mmorpg/encyclopedie/equipements/2809-ceinture-chafeuse
p1356
aV/fr/mmorpg/encyclopedie/equipements/1908-casque-chafer
p1357
aV/fr/mmorpg/encyclopedie/equipements/9655-sandales-papayou
p1358
aV/fr/mmorpg/encyclopedie/equipements/2383-cape-sanguine
p1359
aV/fr/mmorpg/encyclopedie/equipements/2390-amulette-boule
p1360
aV/fr/mmorpg/encyclopedie/equipements/9663-noreilles-slait
p1361
aV/fr/mmorpg/encyclopedie/equipements/11084-chapeau-gadjete
p1362
aV/fr/mmorpg/encyclopedie/equipements/12032-amulette-logram
p1363
aV/fr/mmorpg/encyclopedie/equipements/11085-ceinture-gadjete
p1364
aV/fr/mmorpg/encyclopedie/equipements/7132-anneau-rigami
p1365
aV/fr/mmorpg/encyclopedie/equipements/11086-cape-gadjete
p1366
aV/fr/mmorpg/encyclopedie/equipements/11087-anneau-gadjete
p1367
aV/fr/mmorpg/encyclopedie/equipements/11854-chapeau-stroud
p1368
aV/fr/mmorpg/encyclopedie/equipements/733-bottes-ragalde
p1369
aV/fr/mmorpg/encyclopedie/equipements/11088-coiffe-grilliane
p1370
aV/fr/mmorpg/encyclopedie/equipements/2403-chtevu
p1371
aV/fr/mmorpg/encyclopedie/equipements/9567-coiffe-black-wab
p1372
aV/fr/mmorpg/encyclopedie/equipements/11351-amulette-karotz
p1373
aV/fr/mmorpg/encyclopedie/equipements/6955-string-mulou
p1374
aV/fr/mmorpg/encyclopedie/equipements/9366-tutu-rose
p1375
aV/fr/mmorpg/encyclopedie/equipements/9654-cape-papayou
p1376
aV/fr/mmorpg/encyclopedie/equipements/6996-anneau-stradamus
p1377
aV/fr/mmorpg/encyclopedie/equipements/13298-bracelet-gume
p1378
aV/fr/mmorpg/encyclopedie/equipements/9453-ceinture-cristaline
p1379
aV/fr/mmorpg/encyclopedie/equipements/2104-kraignosse
p1380
aV/fr/mmorpg/encyclopedie/equipements/11976-amulette-boostache
p1381
aV/fr/mmorpg/encyclopedie/equipements/9549-calecon-bretelles-parrain
p1382
aV/fr/mmorpg/encyclopedie/equipements/8136-scaranneau-noir
p1383
aV/fr/mmorpg/encyclopedie/equipements/9540-cape-parrain
p1384
aV/fr/mmorpg/encyclopedie/equipements/13021-cape-feline
p1385
aV/fr/mmorpg/encyclopedie/equipements/11350-anneau-karotz
p1386
aV/fr/mmorpg/encyclopedie/equipements/12043-bottes-haku
p1387
aV/fr/mmorpg/encyclopedie/equipements/9186-ceinture-flash-gorgone
p1388
aV/fr/mmorpg/encyclopedie/equipements/1602-abranneau-sombre
p1389
aV/fr/mmorpg/encyclopedie/equipements/11089-cape-grilliane
p1390
aV/fr/mmorpg/encyclopedie/equipements/11818-masque-percimol
p1391
aV/fr/mmorpg/encyclopedie/equipements/1487-adelus
p1392
aV/fr/mmorpg/encyclopedie/equipements/9652-bandeau-papayou
p1393
aV/fr/mmorpg/encyclopedie/equipements/6933-bottes-craqueleur
p1394
aV/fr/mmorpg/encyclopedie/equipements/9576-bottines-black-wab
p1395
aV/fr/mmorpg/encyclopedie/equipements/9660-cape-slait
p1396
aV/fr/mmorpg/encyclopedie/equipements/7039-ceinture-noire-frank-lee-bruce
p1397
aV/fr/mmorpg/encyclopedie/equipements/639-amulette-abimes
p1398
aV/fr/mmorpg/encyclopedie/equipements/1476-amulette-craqueleur
p1399
aV/fr/mmorpg/encyclopedie/equipements/9658-amulette-papayou
p1400
aV/fr/mmorpg/encyclopedie/equipements/7886-coiffe-boufcoul
p1401
aV/fr/mmorpg/encyclopedie/equipements/16239-printatanes
p1402
aV/fr/mmorpg/encyclopedie/equipements/1478-harmonie
p1403
aV/fr/mmorpg/encyclopedie/equipements/13302-bottes-hedivines
p1404
aV/fr/mmorpg/encyclopedie/equipements/705-masque-tromatisant
p1405
aV/fr/mmorpg/encyclopedie/equipements/9569-cape-black-wab
p1406
aV/fr/mmorpg/encyclopedie/equipements/11354-anneau-grouillot
p1407
aV/fr/mmorpg/encyclopedie/equipements/6934-craquamulette
p1408
aV/fr/mmorpg/encyclopedie/equipements/1559-abranneau-mou
p1409
aV/fr/mmorpg/encyclopedie/equipements/11982-masque-kanniboul-ebil
p1410
aV/fr/mmorpg/encyclopedie/equipements/12024-bottes-tracon
p1411
aV/fr/mmorpg/encyclopedie/equipements/6950-scarature-rouge
p1412
aV/fr/mmorpg/encyclopedie/equipements/11091-bottes-grilliane
p1413
aV/fr/mmorpg/encyclopedie/equipements/6951-scarature-bleue
p1414
aV/fr/mmorpg/encyclopedie/equipements/7031-pendule-gudule
p1415
aV/fr/mmorpg/encyclopedie/equipements/2524-ceinture-vioutifoule
p1416
aV/fr/mmorpg/encyclopedie/equipements/16238-caprintaniere
p1417
aV/fr/mmorpg/encyclopedie/equipements/12887-gladialecon
p1418
aV/fr/mmorpg/encyclopedie/equipements/6991-goyave
p1419
aV/fr/mmorpg/encyclopedie/equipements/8872-palmano
p1420
aV/fr/mmorpg/encyclopedie/equipements/16069-cape-pain-epice
p1421
aV/fr/mmorpg/encyclopedie/equipements/1619-abramu
p1422
aV/fr/mmorpg/encyclopedie/equipements/12044-amulette-haku
p1423
aV/fr/mmorpg/encyclopedie/equipements/6931-craquelocape
p1424
aV/fr/mmorpg/encyclopedie/equipements/6948-scarature-verte
p1425
aV/fr/mmorpg/encyclopedie/equipements/6993-cape-ricefini
p1426
aV/fr/mmorpg/encyclopedie/equipements/9575-ceinture-black-wab
p1427
aV/fr/mmorpg/encyclopedie/equipements/12045-anneau-haku
p1428
aV/fr/mmorpg/encyclopedie/equipements/6949-scarature-blanche
p1429
aV/fr/mmorpg/encyclopedie/equipements/6940-scaracape-verte
p1430
aV/fr/mmorpg/encyclopedie/equipements/9196-cape-paupayahn
p1431
aV/fr/mmorpg/encyclopedie/equipements/2429-abrature
p1432
aV/fr/mmorpg/encyclopedie/equipements/16240-printanneau
p1433
aV/fr/mmorpg/encyclopedie/equipements/11981-ceinture-boostache
p1434
aV/fr/mmorpg/encyclopedie/equipements/13095-bandeau-rokwa
p1435
aV/fr/mmorpg/encyclopedie/equipements/6941-scaracape-bleue
p1436
aV/fr/mmorpg/encyclopedie/equipements/2413-abracapa
p1437
aV/fr/mmorpg/encyclopedie/equipements/2545-corbottes
p1438
aV/fr/mmorpg/encyclopedie/equipements/9198-anneau-paupayahn
p1439
aV/fr/mmorpg/encyclopedie/equipements/2546-corbacoiffe
p1440
aV/fr/mmorpg/encyclopedie/equipements/9198-anneau-paupayahn
p1441
aV/fr/mmorpg/encyclopedie/equipements/2546-corbacoiffe
p1442
aV/fr/mmorpg/encyclopedie/equipements/2523-megature
p1443
aV/fr/mmorpg/encyclopedie/equipements/12025-amulette-tracon
p1444
aV/fr/mmorpg/encyclopedie/equipements/6462-feuille
p1445
aV/fr/mmorpg/encyclopedie/equipements/6943-scaracape-blanche
p1446
aV/fr/mmorpg/encyclopedie/equipements/9479-poshocoiffe
p1447
aV/fr/mmorpg/encyclopedie/equipements/11092-amulette-grilliane
p1448
aV/fr/mmorpg/encyclopedie/equipements/6449-corbacape
p1449
aV/fr/mmorpg/encyclopedie/equipements/2423-abrabottes
p1450
aV/fr/mmorpg/encyclopedie/equipements/2517-megacape
p1451
aV/fr/mmorpg/encyclopedie/equipements/2518-cape-vioutifoule
p1452
aV/fr/mmorpg/encyclopedie/equipements/11358-bottes-kubitus
p1453
aV/fr/mmorpg/encyclopedie/equipements/1491-chaine-liche
p1454
aV/fr/mmorpg/encyclopedie/equipements/9921-bracelet-tetounik
p1455
aV/fr/mmorpg/encyclopedie/equipements/11816-ceinture-percimol
p1456
aV/fr/mmorpg/encyclopedie/equipements/12888-gladiabottes
p1457
aV/fr/mmorpg/encyclopedie/equipements/8120-amulette-scarabosse-dore
p1458
aV/fr/mmorpg/encyclopedie/equipements/9192-beignature
p1459
aV/fr/mmorpg/encyclopedie/equipements/11817-cape-percimol
p1460
aV/fr/mmorpg/encyclopedie/equipements/11855-bottes-stroud
p1461
aV/fr/mmorpg/encyclopedie/equipements/10055-amulette-vampyre
p1462
aV/fr/mmorpg/encyclopedie/equipements/2061-cape-corbac
p1463
aV/fr/mmorpg/encyclopedie/equipements/2410-abracaska
p1464
aV/fr/mmorpg/encyclopedie/equipements/9195-capogato
p1465
aV/fr/mmorpg/encyclopedie/equipements/13093-pagne-chafer-r\u014dnin
p1466
aV/fr/mmorpg/encyclopedie/equipements/13303-ceinture-nikoti
p1467
aV/fr/mmorpg/encyclopedie/equipements/9925-fulgu-poing
p1468
aV/fr/mmorpg/encyclopedie/equipements/2520-casque-vioutifoule
p1469
aV/fr/mmorpg/encyclopedie/equipements/9197-chapeau-paupayahn
p1470
aV/fr/mmorpg/encyclopedie/equipements/11355-bottes-grouillot
p1471
aV/fr/mmorpg/encyclopedie/equipements/777-cape-coq-hu
p1472
aV/fr/mmorpg/encyclopedie/equipements/10625-bottes-gruet
p1473
aV/fr/mmorpg/encyclopedie/equipements/12885-gladiasque
p1474
aV/fr/mmorpg/encyclopedie/equipements/6936-scaracoiffe-verte
p1475
aV/fr/mmorpg/encyclopedie/equipements/10633-anneau-gobeuf
p1476
aV/fr/mmorpg/encyclopedie/equipements/6463-anneau-forain
p1477
aV/fr/mmorpg/encyclopedie/equipements/6937-scaracoiffe-rouge
p1478
aV/fr/mmorpg/encyclopedie/equipements/16237-chaprintanier
p1479
aV/fr/mmorpg/encyclopedie/equipements/16307-enutroide
p1480
aV/fr/mmorpg/encyclopedie/equipements/6938-scaracoiffe-blanche
p1481
aV/fr/mmorpg/encyclopedie/equipements/11978-anneau-boostache
p1482
aV/fr/mmorpg/encyclopedie/equipements/1477-chance-mulette
p1483
aV/fr/mmorpg/encyclopedie/equipements/2519-megacoiffe
p1484
aV/fr/mmorpg/encyclopedie/equipements/6939-scaracoiffe-bleue
p1485
aV/fr/mmorpg/encyclopedie/equipements/12656-cosmocape
p1486
aV/fr/mmorpg/encyclopedie/equipements/13091-kabuto-chafer-r\u014dnin
p1487
aV/fr/mmorpg/encyclopedie/equipements/6930-casque-craqueleur
p1488
aV/fr/mmorpg/encyclopedie/equipements/9194-caskogato
p1489
aV/fr/mmorpg/encyclopedie/equipements/2388-amulette-puzzle-griffe
p1490
aV/fr/mmorpg/encyclopedie/equipements/7120-anneau
p1491
aV/fr/mmorpg/encyclopedie/equipements/7137-cape-huccino
p1492
aV/fr/mmorpg/encyclopedie/equipements/2435-eni-kere
p1493
aV/fr/mmorpg/encyclopedie/equipements/10171-mitaines-chisp
p1494
aV/fr/mmorpg/encyclopedie/equipements/2521-megabottes
p1495
aV/fr/mmorpg/encyclopedie/equipements/12023-ceinture-tracon
p1496
aV/fr/mmorpg/encyclopedie/equipements/13297-bague-rafe
p1497
aV/fr/mmorpg/encyclopedie/equipements/8132-scarature-noire
p1498
aV/fr/mmorpg/encyclopedie/equipements/11045-cape-stinence
p1499
aV/fr/mmorpg/encyclopedie/equipements/9662-anneau-slait
p1500
aV/fr/mmorpg/encyclopedie/equipements/2522-bottes-vioutifoule
p1501
aV/fr/mmorpg/encyclopedie/equipements/2097-champo
p1502
aV/fr/mmorpg/encyclopedie/equipements/11356-ceinture-grouillot
p1503
aV/fr/mmorpg/encyclopedie/equipements/9199-bottes-paupayahn
p1504
aV/fr/mmorpg/encyclopedie/equipements/9656-sleumpettes
p1505
aV/fr/mmorpg/encyclopedie/equipements/9943-chaplures
p1506
aV/fr/mmorpg/encyclopedie/equipements/11977-alliance-kanniboul-ebil
p1507
aV/fr/mmorpg/encyclopedie/equipements/6944-scaranneau-vert
p1508
aV/fr/mmorpg/encyclopedie/equipements/7226-chapeau-akwadala
p1509
aV/fr/mmorpg/encyclopedie/equipements/6945-scaranneau-rouge
p1510
aV/fr/mmorpg/encyclopedie/equipements/9944-chaplivate
p1511
aV/fr/mmorpg/encyclopedie/equipements/10557-gantelet-real-boitar
p1512
aV/fr/mmorpg/encyclopedie/equipements/10558-gantelet-bouftons-rouges
p1513
aV/fr/mmorpg/encyclopedie/equipements/12655-snarffe
p1514
aV/fr/mmorpg/encyclopedie/equipements/6946-scaranneau-blanc
p1515
aV/fr/mmorpg/encyclopedie/equipements/9541-borsalino-parrain
p1516
aV/fr/mmorpg/encyclopedie/equipements/9659-collier-sleump
p1517
aV/fr/mmorpg/encyclopedie/equipements/10643-anneau-grizou
p1518
aV/fr/mmorpg/encyclopedie/equipements/13301-bottes-o-feu
p1519
aV/fr/mmorpg/encyclopedie/equipements/6947-scaranneau-bleu
p1520
aV/fr/mmorpg/encyclopedie/equipements/8121-anneau-scarabosse-dore
p1521
aV/fr/mmorpg/encyclopedie/equipements/9193-tartamulette
p1522
aV/fr/mmorpg/encyclopedie/equipements/9667-bottes-slait
p1523
aV/fr/mmorpg/encyclopedie/equipements/10155-yugolette
p1524
aV/fr/mmorpg/encyclopedie/equipements/1500-mokette
p1525
aV/fr/mmorpg/encyclopedie/equipements/323-amulette-kam-assutra
p1526
aV/fr/mmorpg/encyclopedie/equipements/10637-bottes-laikteur
p1527
aV/fr/mmorpg/encyclopedie/equipements/11058-anneau-pomdeupin
p1528
aV/fr/mmorpg/encyclopedie/equipements/12037-amulette-kalkaneus
p1529
aV/fr/mmorpg/encyclopedie/equipements/10157-yugure
p1530
aV/fr/mmorpg/encyclopedie/equipements/10188-coiffe-denree
p1531
aV/fr/mmorpg/encyclopedie/equipements/10645-ceinture-grizou
p1532
aV/fr/mmorpg/encyclopedie/equipements/12881-chaponey
p1533
aV/fr/mmorpg/encyclopedie/equipements/10172-collertue
p1534
aV/fr/mmorpg/encyclopedie/equipements/13304-ceinture-teule
p1535
aV/fr/mmorpg/encyclopedie/equipements/6731-amukwak-glace
p1536
aV/fr/mmorpg/encyclopedie/equipements/8559-hmmmmmmmmm
p1537
aV/fr/mmorpg/encyclopedie/equipements/9653-kaskwette
p1538
aV/fr/mmorpg/encyclopedie/equipements/10172-collertue
p1539
aV/fr/mmorpg/encyclopedie/equipements/9933-cape-siks-won-naine
p1540
aV/fr/mmorpg/encyclopedie/equipements/10180-esteban
p1541
aV/fr/mmorpg/encyclopedie/equipements/10623-amulette-gruet
p1542
aV/fr/mmorpg/encyclopedie/equipements/12883-peignentif
p1543
aV/fr/mmorpg/encyclopedie/equipements/6732-kwakanneau-glace
p1544
aV/fr/mmorpg/encyclopedie/equipements/6749-kwakanneau-vent
p1545
aV/fr/mmorpg/encyclopedie/equipements/15015-chaponion
p1546
aV/fr/mmorpg/encyclopedie/equipements/12884-capriniere
p1547
aV/fr/mmorpg/encyclopedie/equipements/9927-golbottes
p1548
aV/fr/mmorpg/encyclopedie/equipements/10174-limape
p1549
aV/fr/mmorpg/encyclopedie/equipements/10561-bottes-real-boitar
p1550
aV/fr/mmorpg/encyclopedie/equipements/10631-amulette-gobeuf
p1551
aV/fr/mmorpg/encyclopedie/equipements/2678-ceinture-kokokette
p1552
aV/fr/mmorpg/encyclopedie/equipements/9928-bottes-siks-won-naine
p1553
aV/fr/mmorpg/encyclopedie/equipements/10168-chispottes
p1554
aV/fr/mmorpg/encyclopedie/equipements/10175-limasque
p1555
aV/fr/mmorpg/encyclopedie/equipements/10562-bottes-bouftons-rouges
p1556
aV/fr/mmorpg/encyclopedie/equipements/10632-ceinture-gobeuf
p1557
aV/fr/mmorpg/encyclopedie/equipements/10183-masque-solaire
p1558
aV/fr/mmorpg/encyclopedie/equipements/2392-dragolyre-remaniee
p1559
aV/fr/mmorpg/encyclopedie/equipements/2424-amukwak-flammes
p1560
aV/fr/mmorpg/encyclopedie/equipements/10184-masque-noke
p1561
aV/fr/mmorpg/encyclopedie/equipements/12058-chapeaudron
p1562
aV/fr/mmorpg/encyclopedie/equipements/10628-bottes-kocksis
p1563
aV/fr/mmorpg/encyclopedie/equipements/11056-capomdeupin
p1564
aV/fr/mmorpg/encyclopedie/equipements/11359-ceinture-kubitus
p1565
aV/fr/mmorpg/encyclopedie/equipements/11979-bottes-kanniboul-ebil
p1566
aV/fr/mmorpg/encyclopedie/equipements/2418-kwakanneau-flammes
p1567
aV/fr/mmorpg/encyclopedie/equipements/16068-chapeau-pain-epice
p1568
aV/fr/mmorpg/encyclopedie/equipements/1719-esprit-crocoburio
p1569
aV/fr/mmorpg/encyclopedie/equipements/10054-anneau-vampyre
p1570
aV/fr/mmorpg/encyclopedie/equipements/10629-ceinture-kocksis
p1571
aV/fr/mmorpg/encyclopedie/equipements/10636-anneau-laikteur
p1572
aV/fr/mmorpg/encyclopedie/equipements/2395-foulard-lard-fou
p1573
aV/fr/mmorpg/encyclopedie/equipements/6746-amukwak-terre
p1574
aV/fr/mmorpg/encyclopedie/equipements/9924-corno-fulgures
p1575
aV/fr/mmorpg/encyclopedie/equipements/10056-ceinture-vampyre
p1576
aV/fr/mmorpg/encyclopedie/equipements/10102-masque-vampyre
p1577
aV/fr/mmorpg/encyclopedie/equipements/11345-amulette-rapiat
p1578
aV/fr/mmorpg/encyclopedie/equipements/6747-amukwak-vent
p1579
aV/fr/mmorpg/encyclopedie/equipements/10552-yugonnet
p1580
aV/fr/mmorpg/encyclopedie/equipements/10639-amulette-rekto-topi
p1581
aV/fr/mmorpg/encyclopedie/equipements/11043-chapeau-kalipse
p1582
aV/fr/mmorpg/encyclopedie/equipements/11360-amulette-kubitus
p1583
aV/fr/mmorpg/encyclopedie/equipements/11980-cape-boostache
p1584
aV/fr/mmorpg/encyclopedie/equipements/12882-petits-sabots
p1585
aV/fr/mmorpg/encyclopedie/equipements/13094-bottes-chafer-primitif
p1586
aV/fr/mmorpg/encyclopedie/equipements/2063-bottes-volatiles
p1587
aV/fr/mmorpg/encyclopedie/equipements/2380-cape-bou
p1588
aV/fr/mmorpg/encyclopedie/equipements/2412-kwape-flammes
p1589
aV/fr/mmorpg/encyclopedie/equipements/2537-kwakture-glace
p1590
aV/fr/mmorpg/encyclopedie/equipements/10058-cape-vampyre
p1591
aV/fr/mmorpg/encyclopedie/equipements/10553-chapeau-tolot
p1592
aV/fr/mmorpg/encyclopedie/equipements/10560-ceinture-mounu
p1593
aV/fr/mmorpg/encyclopedie/equipements/6756-kwape-terre
p1594
aV/fr/mmorpg/encyclopedie/equipements/7230-cape-akwadala
p1595
aV/fr/mmorpg/encyclopedie/equipements/10181-anneau-solaire
p1596
aV/fr/mmorpg/encyclopedie/equipements/10554-chapeau-beneji
p1597
aV/fr/mmorpg/encyclopedie/equipements/6757-kwape-vent
p1598
aV/fr/mmorpg/encyclopedie/equipements/6758-kwakture-terre
p1599
aV/fr/mmorpg/encyclopedie/equipements/15017-bottes-donion
p1600
aV/fr/mmorpg/encyclopedie/equipements/6759-kwakture-vent
p1601
aV/fr/mmorpg/encyclopedie/equipements/9929-ceinture-siks-won-naine
p1602
aV/fr/mmorpg/encyclopedie/equipements/1482-embleme-livide
p1603
aV/fr/mmorpg/encyclopedie/equipements/2409-kwakoiffe-flammes
p1604
aV/fr/mmorpg/encyclopedie/equipements/617-amulette-pirate
p1605
aV/fr/mmorpg/encyclopedie/equipements/10627-anneau-kocksis
p1606
aV/fr/mmorpg/encyclopedie/equipements/10641-bottes-rekto-topi
p1607
aV/fr/mmorpg/encyclopedie/equipements/11055-chapomdeupin
p1608
aV/fr/mmorpg/encyclopedie/equipements/10185-cape-noke
p1609
aV/fr/mmorpg/encyclopedie/equipements/10635-amulette-laikteur
p1610
aV/fr/mmorpg/encyclopedie/equipements/905-bottes-klime
p1611
aV/fr/mmorpg/encyclopedie/equipements/2370-vegete-hatif
p1612
aV/fr/mmorpg/encyclopedie/equipements/2534-kwape-glace
p1613
aV/fr/mmorpg/encyclopedie/equipements/10061-bottes-vampyre
p1614
aV/fr/mmorpg/encyclopedie/equipements/10186-collier-noke
p1615
aV/fr/mmorpg/encyclopedie/equipements/10559-ceinture-tolot
p1616
aV/fr/mmorpg/encyclopedie/equipements/11343-bottes-rapiat
p1617
aV/fr/mmorpg/encyclopedie/equipements/7250-amulette-akwadala
p1618
aV/fr/mmorpg/encyclopedie/equipements/2427-kwakture-flammes
p1619
aV/fr/mmorpg/encyclopedie/equipements/2535-kwakoiffe-glace
p1620
aV/fr/mmorpg/encyclopedie/equipements/10156-yugoufle
p1621
aV/fr/mmorpg/encyclopedie/equipements/10644-bottes-grizou
p1622
aV/fr/mmorpg/encyclopedie/equipements/11856-ceinture-stroud
p1623
aV/fr/mmorpg/encyclopedie/equipements/12657-snarmulette
p1624
aV/fr/mmorpg/encyclopedie/equipements/6760-kwakoiffe-terre
p1625
aV/fr/mmorpg/encyclopedie/equipements/6761-kwakoiffe-vent
p1626
aV/fr/mmorpg/encyclopedie/equipements/7238-ceinture-akwadala
p1627
aV/fr/mmorpg/encyclopedie/equipements/6755-kwakobottes-vent
p1628
aV/fr/mmorpg/encyclopedie/equipements/8629-chapeau-grave
p1629
aV/fr/mmorpg/encyclopedie/equipements/8636-coiffe-robbie-capuche
p1630
aV/fr/mmorpg/encyclopedie/equipements/1705-sac-aventurier
p1631
aV/fr/mmorpg/encyclopedie/equipements/2498-vegamu
p1632
aV/fr/mmorpg/encyclopedie/equipements/17731-coiffe-dragocourse
p1633
aV/fr/mmorpg/encyclopedie/equipements/8637-bonnet-toual
p1634
aV/fr/mmorpg/encyclopedie/equipements/16140-masque-rosmique
p1635
aV/fr/mmorpg/encyclopedie/equipements/2420-anobra
p1636
aV/fr/mmorpg/encyclopedie/equipements/17011-cocochapeau
p1637
aV/fr/mmorpg/encyclopedie/equipements/17732-cape-dragocourse
p1638
aV/fr/mmorpg/encyclopedie/equipements/15016-caponion
p1639
aV/fr/mmorpg/encyclopedie/equipements/8638-chapeau-taufeu
p1640
aV/fr/mmorpg/encyclopedie/equipements/9408-jambanneau
p1641
aV/fr/mmorpg/encyclopedie/equipements/10624-ceinture-gruet
p1642
aV/fr/mmorpg/encyclopedie/equipements/2421-kwakobottes-flammes
p1643
aV/fr/mmorpg/encyclopedie/equipements/948-abracape
p1644
aV/fr/mmorpg/encyclopedie/equipements/17012-ceinture-chasseur
p1645
aV/fr/mmorpg/encyclopedie/equipements/17733-bottes-dragocourse
p1646
aV/fr/mmorpg/encyclopedie/equipements/17013-cocobottes
p1647
aV/fr/mmorpg/encyclopedie/equipements/17448-coiffe-ondamentale
p1648
aV/fr/mmorpg/encyclopedie/equipements/17501-couronne-monarque
p1649
aV/fr/mmorpg/encyclopedie/equipements/17734-ceinture-dragocourse
p1650
aV/fr/mmorpg/encyclopedie/equipements/7000-bambamulette
p1651
aV/fr/mmorpg/encyclopedie/equipements/8630-bonnet-nufar
p1652
aV/fr/mmorpg/encyclopedie/equipements/10640-ceinture-rekto-topi
p1653
aV/fr/mmorpg/encyclopedie/equipements/2485-vegacoiffe
p1654
aV/fr/mmorpg/encyclopedie/equipements/17014-cape-mouflage
p1655
aV/fr/mmorpg/encyclopedie/equipements/159-broche-celeste
p1656
aV/fr/mmorpg/encyclopedie/equipements/1661-ambramulette-moskito
p1657
aV/fr/mmorpg/encyclopedie/equipements/15994-casque-noix
p1658
aV/fr/mmorpg/encyclopedie/equipements/17301-ceinture-redroz
p1659
aV/fr/mmorpg/encyclopedie/equipements/17488-torque-monarque
p1660
aV/fr/mmorpg/encyclopedie/equipements/17503-ceinture-monarque
p1661
aV/fr/mmorpg/encyclopedie/equipements/6464-anneau-invocateur-satisfait
p1662
aV/fr/mmorpg/encyclopedie/equipements/8631-coiffe-fere
p1663
aV/fr/mmorpg/encyclopedie/equipements/12035-slip-kalkaneus
p1664
aV/fr/mmorpg/encyclopedie/equipements/13261-scaphandre-ojine
p1665
aV/fr/mmorpg/encyclopedie/equipements/8632-chapeau-tyron
p1666
aV/fr/mmorpg/encyclopedie/equipements/1718-force-crocoburio
p1667
aV/fr/mmorpg/encyclopedie/equipements/17496-bottes-monarque
p1668
aV/fr/mmorpg/encyclopedie/equipements/2426-araknamu
p1669
aV/fr/mmorpg/encyclopedie/equipements/9410-chapeau-bois
p1670
aV/fr/mmorpg/encyclopedie/equipements/9542-souliers-laques-parrain
p1671
aV/fr/mmorpg/encyclopedie/equipements/11057-ceinture-pomdeupin
p1672
aV/fr/mmorpg/encyclopedie/equipements/8619-casque-keutumedi
p1673
aV/fr/mmorpg/encyclopedie/equipements/8633-bonnet-spairance
p1674
aV/fr/mmorpg/encyclopedie/equipements/16015-casque-halouine
p1675
aV/fr/mmorpg/encyclopedie/equipements/836-abranneau
p1676
aV/fr/mmorpg/encyclopedie/equipements/9543-grosse-bagouze-parrain
p1677
aV/fr/mmorpg/encyclopedie/equipements/9923-chaussures-tetounik
p1678
aV/fr/mmorpg/encyclopedie/equipements/10170-chispocasque
p1679
aV/fr/mmorpg/encyclopedie/equipements/12385-coiffe-ainte
p1680
aV/fr/mmorpg/encyclopedie/equipements/6753-kwakobottes-glace
p1681
aV/fr/mmorpg/encyclopedie/equipements/8634-capuche-apin
p1682
aV/fr/mmorpg/encyclopedie/equipements/16016-cape-halouine
p1683
aV/fr/mmorpg/encyclopedie/equipements/17499-cape-monarque
p1684
aV/fr/mmorpg/encyclopedie/equipements/11042-cordon-pere-gnon
p1685
aV/fr/mmorpg/encyclopedie/equipements/12386-masque-arpone
p1686
aV/fr/mmorpg/encyclopedie/equipements/6754-kwakobottes-terre
p1687
aV/fr/mmorpg/encyclopedie/equipements/8628-chapeau-leufere
p1688
aV/fr/mmorpg/encyclopedie/equipements/8635-chapeau-lithique
p1689
aV/fr/mmorpg/encyclopedie/equipements/9188-sombrero-pepitox
p1690
aV/fr/mmorpg/encyclopedie/equipements/10173-libottes
p1691
aV/fr/mmorpg/encyclopedie/equipements/909-puissantes-bottes-poursuite
p1692
aV/fr/mmorpg/encyclopedie/equipements/9409-ceinture-lardiere
p1693
aV/fr/mmorpg/encyclopedie/equipements/1904-dragocoiffe-blanche
p1694
aV/fr/mmorpg/encyclopedie/equipements/12036-botte-kalkaneus
p1695
aV/fr/mmorpg/encyclopedie/equipements/6459-amulette-mineur-sombre
p1696
aV/fr/mmorpg/encyclopedie/equipements/8873-krustoture
p1697
aV/fr/mmorpg/encyclopedie/equipements/11344-ceinture-rapiat
p1698
aV/fr/mmorpg/encyclopedie/equipements/2372-bottes-lymphe-tik
p1699
aV/fr/mmorpg/encyclopedie/equipements/9931-coiffe-mulet-tetounik
p1700
aV/fr/mmorpg/encyclopedie/equipements/12658-cosmobracelet
p1701
aV/fr/mmorpg/encyclopedie/equipements/7881-anneau-boufcoul
p1702
aV/fr/mmorpg/encyclopedie/equipements/2374-bottes-tarsy
p1703
aV/fr/mmorpg/encyclopedie/equipements/6928-anneau-prespic
p1704
aV/fr/mmorpg/encyclopedie/equipements/1480-accord
p1705
aV/fr/mmorpg/encyclopedie/equipements/7883-bottes-boufcoul
p1706
aV/fr/mmorpg/encyclopedie/equipements/10190-bottines-denree
p1707
aV/fr/mmorpg/encyclopedie/equipements/15993-cape-lumette
p1708
aV/fr/mmorpg/encyclopedie/equipements/9945-sac-bouba-prophete
p1709
aV/fr/mmorpg/encyclopedie/equipements/17505-casque-garde-royal
p1710
aV/fr/mmorpg/encyclopedie/equipements/9922-ceinture-tetounik
p1711
aV/fr/mmorpg/encyclopedie/equipements/17506-ceinture-garde-royal
p1712
aV/fr/mmorpg/encyclopedie/equipements/9930-masque-siks-won-naine
p1713
aV/fr/mmorpg/encyclopedie/equipements/17507-bottes-garde-royal
p1714
aV/fr/mmorpg/encyclopedie/equipements/7246-alliance-akwadala
p1715
aV/fr/mmorpg/encyclopedie/equipements/10189-oxano
p1716
aV/fr/mmorpg/encyclopedie/equipements/908-grandes-bottes-poursuite
p1717
aV/fr/mmorpg/encyclopedie/equipements/9407-cape-bouchon
p1718
aV/fr/mmorpg/encyclopedie/equipements/6927-cape-prespic
p1719
aV/fr/mmorpg/encyclopedie/equipements/916-amulette-silicate
p1720
aV/fr/mmorpg/encyclopedie/equipements/2367-ami-lehunui
p1721
aV/fr/mmorpg/encyclopedie/equipements/2096-dora-sombre-brave
p1722
aV/fr/mmorpg/encyclopedie/equipements/709-lorko-kasko
p1723
aV/fr/mmorpg/encyclopedie/equipements/9936-caskostar
p1724
aV/fr/mmorpg/encyclopedie/equipements/9937-chapleau
p1725
aV/fr/mmorpg/encyclopedie/equipements/10191-oxolature
p1726
aV/fr/mmorpg/encyclopedie/equipements/7885-ceinture-boufcoul
p1727
aV/fr/mmorpg/encyclopedie/equipements/15995-amulette-perle
p1728
aV/fr/mmorpg/encyclopedie/equipements/9405-caskabeille
p1729
aV/fr/mmorpg/encyclopedie/equipements/6926-coiffe-prespic
p1730
aV/fr/mmorpg/encyclopedie/equipements/9406-cochobits
p1731
aV/fr/mmorpg/encyclopedie/equipements/953-cape-tofu-fou
p1732
aV/fr/mmorpg/encyclopedie/equipements/1495-anneau-dhyn
p1733
aV/fr/mmorpg/encyclopedie/equipements/2368-ramoume-eternelle
p1734
aV/fr/mmorpg/encyclopedie/equipements/2382-cape-maimpa
p1735
aV/fr/mmorpg/encyclopedie/equipements/9942-anneau-mort
p1736
aV/fr/mmorpg/encyclopedie/equipements/15992-anneau-bille
p1737
aV/fr/mmorpg/encyclopedie/equipements/8678-chapeau-satanusse
p1738
aV/fr/mmorpg/encyclopedie/equipements/703-dora
p1739
aV/fr/mmorpg/encyclopedie/equipements/704-dantgoule
p1740
aV/fr/mmorpg/encyclopedie/equipements/9411-cape-bois
p1741
aV/fr/mmorpg/encyclopedie/equipements/10987-givrature
p1742
aV/fr/mmorpg/encyclopedie/equipements/10957-cape-corbeau-noir
p1743
aV/fr/mmorpg/encyclopedie/equipements/10988-givracoiffe
p1744
aV/fr/mmorpg/encyclopedie/equipements/2095-ours
p1745
aV/fr/mmorpg/encyclopedie/equipements/638-amulette-pecheur-somoon
p1746
aV/fr/mmorpg/encyclopedie/equipements/11813-platycap
p1747
aV/fr/mmorpg/encyclopedie/equipements/9190-coiffe-cra-crame
p1748
aV/fr/mmorpg/encyclopedie/equipements/7242-geta-akwadala
p1749
aV/fr/mmorpg/encyclopedie/equipements/2070-shako
p1750
aV/fr/mmorpg/encyclopedie/equipements/1720-puissance-crocoburio
p1751
aV/fr/mmorpg/encyclopedie/equipements/11052-clementobottes
p1752
aV/fr/mmorpg/encyclopedie/equipements/7109-larvacoiffe
p1753
aV/fr/mmorpg/encyclopedie/equipements/955-cape-hilere
p1754
aV/fr/mmorpg/encyclopedie/equipements/779-cape-maj-hic
p1755
aV/fr/mmorpg/encyclopedie/equipements/9402-pantoufrelons
p1756
aV/fr/mmorpg/encyclopedie/equipements/1662-ambramulette-arackne
p1757
aV/fr/mmorpg/encyclopedie/equipements/907-bottes-poursuite
p1758
aV/fr/mmorpg/encyclopedie/equipements/7107-larvabottes
p1759
aV/fr/mmorpg/encyclopedie/equipements/326-amulette-deulegarnoulle
p1760
aV/fr/mmorpg/encyclopedie/equipements/698-choipo-podlard
p1761
aV/fr/mmorpg/encyclopedie/equipements/707-minotokorno
p1762
aV/fr/mmorpg/encyclopedie/equipements/10989-givracape
p1763
aV/fr/mmorpg/encyclopedie/equipements/203-ceinture-tot
p1764
aV/fr/mmorpg/encyclopedie/equipements/6929-ceinture-prespic
p1765
aV/fr/mmorpg/encyclopedie/equipements/9486-cigalocoiffe
p1766
aV/fr/mmorpg/encyclopedie/equipements/9184-casque-galgarion
p1767
aV/fr/mmorpg/encyclopedie/equipements/9456-pompocape
p1768
aV/fr/mmorpg/encyclopedie/equipements/10976-anneau-phong-huss
p1769
aV/fr/mmorpg/encyclopedie/equipements/10990-givrabottes
p1770
aV/fr/mmorpg/encyclopedie/equipements/8531-lapinocoiffe
p1771
aV/fr/mmorpg/encyclopedie/equipements/9457-pompocoiffe
p1772
aV/fr/mmorpg/encyclopedie/equipements/759-cape-poolay-chogrelotant
p1773
aV/fr/mmorpg/encyclopedie/equipements/9480-poshocape
p1774
aV/fr/mmorpg/encyclopedie/equipements/9187-coiffe-maitre-noir-jack
p1775
aV/fr/mmorpg/encyclopedie/equipements/9404-cape-kifebzz
p1776
aV/fr/mmorpg/encyclopedie/equipements/952-cape-mulou-fou
p1777
aV/fr/mmorpg/encyclopedie/equipements/10955-anneau-corbeau-noir
p1778
aV/fr/mmorpg/encyclopedie/equipements/10956-bottes-corbeau-noir
p1779
aV/fr/mmorpg/encyclopedie/equipements/10963-bottes-rapine
p1780
aV/fr/mmorpg/encyclopedie/equipements/11050-clementocape
p1781
aV/fr/mmorpg/encyclopedie/equipements/15526-gant-frakacia
p1782
aV/fr/mmorpg/encyclopedie/equipements/11051-clementamulette
p1783
aV/fr/mmorpg/encyclopedie/equipements/10958-casque-corbeau-noir
p1784
aV/fr/mmorpg/encyclopedie/equipements/956-cape-rice
p1785
aV/fr/mmorpg/encyclopedie/equipements/10980-amulette-hectaupe
p1786
aV/fr/mmorpg/encyclopedie/equipements/10981-anneau-hectaupe
p1787
aV/fr/mmorpg/encyclopedie/equipements/2710-ceinture-banisation-sauvage
p1788
aV/fr/mmorpg/encyclopedie/equipements/10982-ceinture-hectaupe
p1789
aV/fr/mmorpg/encyclopedie/equipements/11049-clementocoiffe
p1790
aV/fr/mmorpg/encyclopedie/equipements/2394-bourgeonette
p1791
aV/fr/mmorpg/encyclopedie/equipements/867-dragolyre
p1792
aV/fr/mmorpg/encyclopedie/equipements/10978-bottes-phong-huss
p1793
aV/fr/mmorpg/encyclopedie/equipements/712-gulliver
p1794
aV/fr/mmorpg/encyclopedie/equipements/2389-amulette-badoul
p1795
aV/fr/mmorpg/encyclopedie/equipements/9412-ceinture-bois
p1796
aV/fr/mmorpg/encyclopedie/equipements/10964-ceinture-rapine
p1797
aV/fr/mmorpg/encyclopedie/equipements/156-ceinture-puissance
p1798
aV/fr/mmorpg/encyclopedie/equipements/10965-amulette-rapine
p1799
aV/fr/mmorpg/encyclopedie/equipements/11083-bague-boufbowl
p1800
aV/fr/mmorpg/encyclopedie/equipements/6999-medaille-lahilama
p1801
aV/fr/mmorpg/encyclopedie/equipements/906-petites-bottes-poursuite
p1802
aV/fr/mmorpg/encyclopedie/equipements/1486-medaille-holy
p1803
aV/fr/mmorpg/encyclopedie/equipements/8881-anneau-solo
p1804
aV/fr/mmorpg/encyclopedie/equipements/15658-shushac
p1805
aV/fr/mmorpg/encyclopedie/equipements/9413-bottes-bois
p1806
aV/fr/mmorpg/encyclopedie/equipements/1907-oreilles-lapineupe
p1807
aV/fr/mmorpg/encyclopedie/equipements/2397-bibelaw
p1808
aV/fr/mmorpg/encyclopedie/equipements/17298-casque-pamous
p1809
aV/fr/mmorpg/encyclopedie/equipements/9414-borsitrono
p1810
aV/fr/mmorpg/encyclopedie/equipements/9452-anneau-cristaline
p1811
aV/fr/mmorpg/encyclopedie/equipements/11811-bottes-peau-prespic
p1812
aV/fr/mmorpg/encyclopedie/equipements/790-cape-bonne-esperance
p1813
aV/fr/mmorpg/encyclopedie/equipements/17299-casque-zoblaks
p1814
aV/fr/mmorpg/encyclopedie/equipements/17491-coiffe-marline
p1815
aV/fr/mmorpg/encyclopedie/equipements/15542-coiffe-verrehor
p1816
aV/fr/mmorpg/encyclopedie/equipements/9415-cape-grume
p1817
aV/fr/mmorpg/encyclopedie/equipements/708-houde
p1818
aV/fr/mmorpg/encyclopedie/equipements/1497-passe-xelor
p1819
aV/fr/mmorpg/encyclopedie/equipements/1498-souvenir-enutrof
p1820
aV/fr/mmorpg/encyclopedie/equipements/8918-casque-ameliore
p1821
aV/fr/mmorpg/encyclopedie/equipements/9120-chapeau-fin-patraque
p1822
aV/fr/mmorpg/encyclopedie/equipements/9485-cigalocape
p1823
aV/fr/mmorpg/encyclopedie/equipements/17284-chapeau-agence-touriste
p1824
aV/fr/mmorpg/encyclopedie/equipements/8919-ailes-bois-ameliorees
p1825
aV/fr/mmorpg/encyclopedie/equipements/9121-cape-fin-patraque
p1826
aV/fr/mmorpg/encyclopedie/equipements/9455-pompanneau
p1827
aV/fr/mmorpg/encyclopedie/equipements/17285-cape-agence-touriste
p1828
aV/fr/mmorpg/encyclopedie/equipements/17292-bottes-grocoricos
p1829
aV/fr/mmorpg/encyclopedie/equipements/17300-ceinture-grocoricos
p1830
aV/fr/mmorpg/encyclopedie/equipements/17293-bottes-redroz
p1831
aV/fr/mmorpg/encyclopedie/equipements/17495-bottes-marline
p1832
aV/fr/mmorpg/encyclopedie/equipements/6471-souliers-vernis-porkass
p1833
aV/fr/mmorpg/encyclopedie/equipements/13209-masque-taff
p1834
aV/fr/mmorpg/encyclopedie/equipements/9185-coiffe-goultard
p1835
aV/fr/mmorpg/encyclopedie/equipements/702-kritter
p1836
aV/fr/mmorpg/encyclopedie/equipements/2641-toady
p1837
aV/fr/mmorpg/encyclopedie/equipements/17294-bottes-pamous
p1838
aV/fr/mmorpg/encyclopedie/equipements/17302-ceinture-pamous
p1839
aV/fr/mmorpg/encyclopedie/equipements/15547-bouclier-verrehor
p1840
aV/fr/mmorpg/encyclopedie/equipements/17295-bottes-zoblaks
p1841
aV/fr/mmorpg/encyclopedie/equipements/17303-ceinture-zoblaks
p1842
aV/fr/mmorpg/encyclopedie/equipements/758-cape-justicier
p1843
aV/fr/mmorpg/encyclopedie/equipements/10977-ceinture-phong-huss
p1844
aV/fr/mmorpg/encyclopedie/equipements/15548-ceinture-verrehor
p1845
aV/fr/mmorpg/encyclopedie/equipements/17296-casque-grocoricos
p1846
aV/fr/mmorpg/encyclopedie/equipements/968-ceinture-fulgurante
p1847
aV/fr/mmorpg/encyclopedie/equipements/2441-anneau-royal-bouftou
p1848
aV/fr/mmorpg/encyclopedie/equipements/15525-bottes-frakacia
p1849
aV/fr/mmorpg/encyclopedie/equipements/15549-amulette-verrehor
p1850
aV/fr/mmorpg/encyclopedie/equipements/17297-casque-redroz
p1851
aV/fr/mmorpg/encyclopedie/equipements/7214-sandales-macien
p1852
aV/fr/mmorpg/encyclopedie/equipements/359-ecaliseur
p1853
aV/fr/mmorpg/encyclopedie/equipements/754-cape-vampire
p1854
aV/fr/mmorpg/encyclopedie/equipements/10828-casque-boufbowl
p1855
aV/fr/mmorpg/encyclopedie/equipements/1483-kabale
p1856
aV/fr/mmorpg/encyclopedie/equipements/2689-ceinture-banisation
p1857
aV/fr/mmorpg/encyclopedie/equipements/6466-amulette-shika
p1858
aV/fr/mmorpg/encyclopedie/equipements/11082-bottes-boufbowl
p1859
aV/fr/mmorpg/encyclopedie/equipements/1489-broche-hete
p1860
aV/fr/mmorpg/encyclopedie/equipements/15524-masque-frakacia
p1861
aV/fr/mmorpg/encyclopedie/equipements/2233-croqueuse
p1862
aV/fr/mmorpg/encyclopedie/equipements/10830-banana-cape
p1863
aV/fr/mmorpg/encyclopedie/equipements/7108-larvasac
p1864
aV/fr/mmorpg/encyclopedie/equipements/9454-pompamulette
p1865
aV/fr/mmorpg/encyclopedie/equipements/1700-ceinture-celerite
p1866
aV/fr/mmorpg/encyclopedie/equipements/889-puissantes-bottes-concentration
p1867
aV/fr/mmorpg/encyclopedie/equipements/2371-mouthmou
p1868
aV/fr/mmorpg/encyclopedie/equipements/130-ecrabouilleur-iop
p1869
aV/fr/mmorpg/encyclopedie/equipements/161-celebrite
p1870
aV/fr/mmorpg/encyclopedie/equipements/356-ceinture-endurance
p1871
aV/fr/mmorpg/encyclopedie/equipements/2810-ceinture-piquante
p1872
aV/fr/mmorpg/encyclopedie/equipements/732-alliance-silimelle
p1873
aV/fr/mmorpg/encyclopedie/equipements/888-grandes-bottes-concentration
p1874
aV/fr/mmorpg/encyclopedie/equipements/7342-amulette-kitsou
p1875
aV/fr/mmorpg/encyclopedie/equipements/8112-cape-tofu
p1876
aV/fr/mmorpg/encyclopedie/equipements/1656-fecaliseur-magicien
p1877
aV/fr/mmorpg/encyclopedie/equipements/711-jouik-krampe
p1878
aV/fr/mmorpg/encyclopedie/equipements/1657-fecaliseur-guerrier
p1879
aV/fr/mmorpg/encyclopedie/equipements/7106-larvamulette
p1880
aV/fr/mmorpg/encyclopedie/equipements/11810-ruche
p1881
aV/fr/mmorpg/encyclopedie/equipements/12851-bracelet-glutin
p1882
aV/fr/mmorpg/encyclopedie/equipements/6793-anneau
p1883
aV/fr/mmorpg/encyclopedie/equipements/1729-anneau-mer
p1884
aV/fr/mmorpg/encyclopedie/equipements/12848-manteau-glutin
p1885
aV/fr/mmorpg/encyclopedie/equipements/12849-bonnet-glutin
p1886
aV/fr/mmorpg/encyclopedie/equipements/12850-calecon-fourre-glutin
p1887
aV/fr/mmorpg/encyclopedie/equipements/706-crystal-o-boul
p1888
aV/fr/mmorpg/encyclopedie/equipements/129-bottes-concentration
p1889
aV/fr/mmorpg/encyclopedie/equipements/299-bottes-faillete
p1890
aV/fr/mmorpg/encyclopedie/equipements/610-amulette-crabe
p1891
aV/fr/mmorpg/encyclopedie/equipements/1481-entente
p1892
aV/fr/mmorpg/encyclopedie/equipements/8111-pantoufles-tofu
p1893
aV/fr/mmorpg/encyclopedie/equipements/957-boufteuse
p1894
aV/fr/mmorpg/encyclopedie/equipements/8114-kaskofu
p1895
aV/fr/mmorpg/encyclopedie/equipements/6958-geniallissime-coiffe-torte-hou
p1896
aV/fr/mmorpg/encyclopedie/equipements/8334-chapeau-papa-nowel
p1897
aV/fr/mmorpg/encyclopedie/equipements/699-troma
p1898
aV/fr/mmorpg/encyclopedie/equipements/783-amulette-bucheron
p1899
aV/fr/mmorpg/encyclopedie/equipements/954-samoulaille
p1900
aV/fr/mmorpg/encyclopedie/equipements/1621-bottes-maitrise
p1901
aV/fr/mmorpg/encyclopedie/equipements/616-amulette-marin
p1902
aV/fr/mmorpg/encyclopedie/equipements/701-oiram
p1903
aV/fr/mmorpg/encyclopedie/equipements/1623-bottes-anticipation
p1904
aV/fr/mmorpg/encyclopedie/equipements/9418-coiffe-cristaline
p1905
aV/fr/mmorpg/encyclopedie/equipements/8113-ceinture-tofu
p1906
aV/fr/mmorpg/encyclopedie/equipements/772-cape-edepee
p1907
aV/fr/mmorpg/encyclopedie/equipements/1485-reinette
p1908
aV/fr/mmorpg/encyclopedie/equipements/6909-pieds-sanglier
p1909
aV/fr/mmorpg/encyclopedie/equipements/8108-amulette-tofu
p1910
aV/fr/mmorpg/encyclopedie/equipements/9451-cape-cristaline
p1911
aV/fr/mmorpg/encyclopedie/equipements/629-chapeau-pointu
p1912
aV/fr/mmorpg/encyclopedie/equipements/128-petites-bottes-concentration
p1913
aV/fr/mmorpg/encyclopedie/equipements/6915-mos-kitano
p1914
aV/fr/mmorpg/encyclopedie/equipements/781-cape-itou-lascione
p1915
aV/fr/mmorpg/encyclopedie/equipements/8109-anneau-tofu
p1916
aV/fr/mmorpg/encyclopedie/equipements/15122-couronne-ballotin
p1917
aV/fr/mmorpg/encyclopedie/equipements/6724-ceinture-homme-ours
p1918
aV/fr/mmorpg/encyclopedie/equipements/7880-amulette-boufcoul
p1919
aV/fr/mmorpg/encyclopedie/equipements/8124-ceinturemuda-paysan
p1920
aV/fr/mmorpg/encyclopedie/equipements/8256-bottes-mousse
p1921
aV/fr/mmorpg/encyclopedie/equipements/9189-cornes-xvii
p1922
aV/fr/mmorpg/encyclopedie/equipements/744-cape-bowisse
p1923
aV/fr/mmorpg/encyclopedie/equipements/1496-chance-ecaflip
p1924
aV/fr/mmorpg/encyclopedie/equipements/16171-cape-invisible
p1925
aV/fr/mmorpg/encyclopedie/equipements/10971-sac-ripant
p1926
aV/fr/mmorpg/encyclopedie/equipements/15123-ailes-ballotin
p1927
aV/fr/mmorpg/encyclopedie/equipements/8257-ceinture-mousse
p1928
aV/fr/mmorpg/encyclopedie/equipements/15100-bottes-karnaval
p1929
aV/fr/mmorpg/encyclopedie/equipements/15124-bouclier-ballotin
p1930
aV/fr/mmorpg/encyclopedie/equipements/6719-coiffe-homme-ours
p1931
aV/fr/mmorpg/encyclopedie/equipements/7077-bouclier-mousse
p1932
aV/fr/mmorpg/encyclopedie/equipements/8258-cape-mousse
p1933
aV/fr/mmorpg/encyclopedie/equipements/2414-cape-bouffante
p1934
aV/fr/mmorpg/encyclopedie/equipements/16172-coiffe-invisible
p1935
aV/fr/mmorpg/encyclopedie/equipements/16235-bicorne
p1936
aV/fr/mmorpg/encyclopedie/equipements/2422-boufbottes
p1937
aV/fr/mmorpg/encyclopedie/equipements/17215-casque-tactile
p1938
aV/fr/mmorpg/encyclopedie/equipements/8259-coiffe-mousse
p1939
aV/fr/mmorpg/encyclopedie/equipements/9416-anneau-zest
p1940
aV/fr/mmorpg/encyclopedie/equipements/12398-cape-rentie
p1941
aV/fr/mmorpg/encyclopedie/equipements/1019-casque
p1942
aV/fr/mmorpg/encyclopedie/equipements/11808-collier-perles-iles
p1943
aV/fr/mmorpg/encyclopedie/equipements/15158-beraileron
p1944
aV/fr/mmorpg/encyclopedie/equipements/16221-bouclier-ridite
p1945
aV/fr/mmorpg/encyclopedie/equipements/2425-amulette-bouftou
p1946
aV/fr/mmorpg/encyclopedie/equipements/15159-chapanniversaire
p1947
aV/fr/mmorpg/encyclopedie/equipements/6720-cape-homme-ours
p1948
aV/fr/mmorpg/encyclopedie/equipements/15097-caskarnaval
p1949
aV/fr/mmorpg/encyclopedie/equipements/6721-bottes-homme-ours
p1950
aV/fr/mmorpg/encyclopedie/equipements/8253-amulette-mousse
p1951
aV/fr/mmorpg/encyclopedie/equipements/2419-anneau-bouze-clerc
p1952
aV/fr/mmorpg/encyclopedie/equipements/16223-cape-tagrame
p1953
aV/fr/mmorpg/encyclopedie/equipements/15098-cape-karnaval
p1954
aV/fr/mmorpg/encyclopedie/equipements/6722-alliance-homme-ours
p1955
aV/fr/mmorpg/encyclopedie/equipements/8254-anneau-mousse
p1956
aV/fr/mmorpg/encyclopedie/equipements/696-coiffe-ploukosse
p1957
aV/fr/mmorpg/encyclopedie/equipements/1703-sac-grand-recolteur
p1958
aV/fr/mmorpg/encyclopedie/equipements/16224-chapeau-bleure
p1959
aV/fr/mmorpg/encyclopedie/equipements/6723-amulette-homme-ours
p1960
aV/fr/mmorpg/encyclopedie/equipements/8123-amulette-paysanne
p1961
aV/fr/mmorpg/encyclopedie/equipements/976-citwouille
p1962
aV/fr/mmorpg/encyclopedie/equipements/1021-ailes-bois
p1963
aV/fr/mmorpg/encyclopedie/equipements/1090-astrocoiffe
p1964
aV/fr/mmorpg/encyclopedie/equipements/1704-sac-staca-noviste
p1965
aV/fr/mmorpg/encyclopedie/equipements/2411-coiffe-bouftou
p1966
aV/fr/mmorpg/encyclopedie/equipements/2428-ceinture-bouftou
p1967
aV/fr/mmorpg/encyclopedie/equipements/15099-ceinture-karnaval
p1968
aV/fr/mmorpg/encyclopedie/equipements/8333-cape-papa-nowel
p1969
aV/fr/mmorpg/encyclopedie/equipements/458-amulette-chafer
p1970
aV/fr/mmorpg/encyclopedie/equipements/6910-anneau-sanglier
p1971
aV/fr/mmorpg/encyclopedie/equipements/8125-bob-paysan
p1972
aV/fr/mmorpg/encyclopedie/equipements/8128-bottes-paysannes
p1973
aV/fr/mmorpg/encyclopedie/equipements/8131-sac-paysan
p1974
aV/fr/mmorpg/encyclopedie/equipements/947-cape-sombre
p1975
aV/fr/mmorpg/encyclopedie/equipements/7122-anneau-vice
p1976
aV/fr/mmorpg/encyclopedie/equipements/12776-amulette-bibliothecaire
p1977
aV/fr/mmorpg/encyclopedie/equipements/6908-sanglature
p1978
aV/fr/mmorpg/encyclopedie/equipements/775-cape-abilite
p1979
aV/fr/mmorpg/encyclopedie/equipements/157-gougnole
p1980
aV/fr/mmorpg/encyclopedie/equipements/346-anneau-rak
p1981
aV/fr/mmorpg/encyclopedie/equipements/2393-omelette-amulette
p1982
aV/fr/mmorpg/encyclopedie/equipements/6961-anneau-bandit
p1983
aV/fr/mmorpg/encyclopedie/equipements/710-korko-klako
p1984
aV/fr/mmorpg/encyclopedie/equipements/734-ceinture-securite
p1985
aV/fr/mmorpg/encyclopedie/equipements/1622-bottes-puissance
p1986
aV/fr/mmorpg/encyclopedie/equipements/934-cape-rougeur
p1987
aV/fr/mmorpg/encyclopedie/equipements/6916-sac-petit-moskito
p1988
aV/fr/mmorpg/encyclopedie/equipements/6923-amulette-bandit
p1989
aV/fr/mmorpg/encyclopedie/equipements/6789-amulette-champs
p1990
aV/fr/mmorpg/encyclopedie/equipements/1702-sac-recolteur
p1991
aV/fr/mmorpg/encyclopedie/equipements/6791-anneau-champetre
p1992
aV/fr/mmorpg/encyclopedie/equipements/6917-moskitogalurette
p1993
aV/fr/mmorpg/encyclopedie/equipements/1493-blessure-sacrieur
p1994
aV/fr/mmorpg/encyclopedie/equipements/6918-amulette-moskito
p1995
aV/fr/mmorpg/encyclopedie/equipements/6925-ceinture-bandit
p1996
aV/fr/mmorpg/encyclopedie/equipements/1494-bagueur
p1997
aV/fr/mmorpg/encyclopedie/equipements/2396-lou-ptiote
p1998
aV/fr/mmorpg/encyclopedie/equipements/776-cape-sulcorpe
p1999
aV/fr/mmorpg/encyclopedie/equipements/6794-bottes-champetres
p2000
aV/fr/mmorpg/encyclopedie/equipements/1087-anneau-mental
p2001
aV/fr/mmorpg/encyclopedie/equipements/6797-coiffe-champetre
p2002
aV/fr/mmorpg/encyclopedie/equipements/8532-cape-lapino-blase
p2003
aV/fr/mmorpg/encyclopedie/equipements/773-cape-ellinie
p2004
aV/fr/mmorpg/encyclopedie/equipements/774-cape-ulais
p2005
aV/fr/mmorpg/encyclopedie/equipements/8527-gobtroteur
p2006
aV/fr/mmorpg/encyclopedie/equipements/6919-anneau-champ-champ
p2007
aV/fr/mmorpg/encyclopedie/equipements/11804-bleu-tofu
p2008
aV/fr/mmorpg/encyclopedie/equipements/6795-capouze-champs
p2009
aV/fr/mmorpg/encyclopedie/equipements/6796-ceinture-fleurie
p2010
aV/fr/mmorpg/encyclopedie/equipements/1490-chaine-nhanor-kibrill
p2011
aV/fr/mmorpg/encyclopedie/equipements/1701-ceinture-poche
p2012
aV/fr/mmorpg/encyclopedie/equipements/2474-chapeau-aventurier
p2013
aV/fr/mmorpg/encyclopedie/equipements/3207-bottes-satisfaction
p2014
aV/fr/mmorpg/encyclopedie/equipements/8126-mitaines-mitees-paysan
p2015
aV/fr/mmorpg/encyclopedie/equipements/8234-cape-piou-violet
p2016
aV/fr/mmorpg/encyclopedie/equipements/924-puissantes-bottes-klime
p2017
aV/fr/mmorpg/encyclopedie/equipements/158-destinee-doree
p2018
aV/fr/mmorpg/encyclopedie/equipements/8243-chapeau-piou-rouge
p2019
aV/fr/mmorpg/encyclopedie/equipements/6921-champcoiffe
p2020
aV/fr/mmorpg/encyclopedie/equipements/16500-casque-kardorim
p2021
aV/fr/mmorpg/encyclopedie/equipements/1484-amulette-itby
p2022
aV/fr/mmorpg/encyclopedie/equipements/16501-cape-kardorim
p2023
aV/fr/mmorpg/encyclopedie/equipements/8238-ceinture-piou-bleu
p2024
aV/fr/mmorpg/encyclopedie/equipements/8222-anneau-piou-vert
p2025
aV/fr/mmorpg/encyclopedie/equipements/16502-bracelet-kardorim
p2026
aV/fr/mmorpg/encyclopedie/equipements/8230-sandales-piou-rose
p2027
aV/fr/mmorpg/encyclopedie/equipements/355-anneau-valeur
p2028
aV/fr/mmorpg/encyclopedie/equipements/8217-amulette-piou-jaune
p2029
aV/fr/mmorpg/encyclopedie/equipements/2399-veaux-doux
p2030
aV/fr/mmorpg/encyclopedie/equipements/2476-bottes-aventurier
p2031
aV/fr/mmorpg/encyclopedie/equipements/6912-araknoture
p2032
aV/fr/mmorpg/encyclopedie/equipements/8228-sandales-piou-vert
p2033
aV/fr/mmorpg/encyclopedie/equipements/8235-cape-piou-rose
p2034
aV/fr/mmorpg/encyclopedie/equipements/8521-cape-rouge
p2035
aV/fr/mmorpg/encyclopedie/equipements/6920-alliance-champ-champ
p2036
aV/fr/mmorpg/encyclopedie/equipements/8213-amulette-piou-rouge
p2037
aV/fr/mmorpg/encyclopedie/equipements/8244-chapeau-piou-bleu
p2038
aV/fr/mmorpg/encyclopedie/equipements/6922-cape-champ-champ
p2039
aV/fr/mmorpg/encyclopedie/equipements/8239-ceinture-piou-violet
p2040
aV/fr/mmorpg/encyclopedie/equipements/7174-cape-pandawushu
p2041
aV/fr/mmorpg/encyclopedie/equipements/8223-anneau-piou-jaune
p2042
aV/fr/mmorpg/encyclopedie/equipements/278-anneau-rocheuses
p2043
aV/fr/mmorpg/encyclopedie/equipements/14592-capnomen-tengu
p2044
aV/fr/mmorpg/encyclopedie/equipements/14600-capewaii
p2045
aV/fr/mmorpg/encyclopedie/equipements/14617-ninjamu-blanche
p2046
aV/fr/mmorpg/encyclopedie/equipements/14624-ailoclier
p2047
aV/fr/mmorpg/encyclopedie/equipements/14631-dragoucoiffe-rose
p2048
aV/fr/mmorpg/encyclopedie/equipements/17490-bandeau-bakara
p2049
aV/fr/mmorpg/encyclopedie/equipements/17508-collier-lilotte
p2050
aV/fr/mmorpg/encyclopedie/equipements/12597-chapeau-envahisseur
p2051
aV/fr/mmorpg/encyclopedie/equipements/12751-capong
p2052
aV/fr/mmorpg/encyclopedie/equipements/14593-anomen-tengu
p2053
aV/fr/mmorpg/encyclopedie/equipements/14601-slipwaii
p2054
aV/fr/mmorpg/encyclopedie/equipements/14625-ailobottes
p2055
aV/fr/mmorpg/encyclopedie/equipements/14632-dragoucape-rose
p2056
aV/fr/mmorpg/encyclopedie/equipements/14803-bottes-n\u014d
p2057
aV/fr/mmorpg/encyclopedie/equipements/8219-anneau-piou-rouge
p2058
aV/fr/mmorpg/encyclopedie/equipements/8233-cape-piou-vert
p2059
aV/fr/mmorpg/encyclopedie/equipements/12598-anneau-envahisseur
p2060
aV/fr/mmorpg/encyclopedie/equipements/14587-coiffulotte
p2061
aV/fr/mmorpg/encyclopedie/equipements/14619-ninchapeau-noir
p2062
aV/fr/mmorpg/encyclopedie/equipements/14633-dragoubottes-roses
p2063
aV/fr/mmorpg/encyclopedie/equipements/14796-casque-samourai
p2064
aV/fr/mmorpg/encyclopedie/equipements/14804-bandolita
p2065
aV/fr/mmorpg/encyclopedie/equipements/1699-sac-petit-aventurier
p2066
aV/fr/mmorpg/encyclopedie/equipements/785-anneau-fortifiant
p2067
aV/fr/mmorpg/encyclopedie/equipements/2477-ceinture-aventurier
p2068
aV/fr/mmorpg/encyclopedie/equipements/10834-coiffe-wouaf
p2069
aV/fr/mmorpg/encyclopedie/equipements/12599-ceinture-envahisseur
p2070
aV/fr/mmorpg/encyclopedie/equipements/12753-ceinturong
p2071
aV/fr/mmorpg/encyclopedie/equipements/14588-capulotte
p2072
aV/fr/mmorpg/encyclopedie/equipements/14595-capushincha
p2073
aV/fr/mmorpg/encyclopedie/equipements/14603-geishapeau
p2074
aV/fr/mmorpg/encyclopedie/equipements/14627-maklier
p2075
aV/fr/mmorpg/encyclopedie/equipements/14641-soubrecape
p2076
aV/fr/mmorpg/encyclopedie/equipements/14797-cape-samourai
p2077
aV/fr/mmorpg/encyclopedie/equipements/14805-capolita
p2078
aV/fr/mmorpg/encyclopedie/equipements/8242-ceinture-piou-rose
p2079
aV/fr/mmorpg/encyclopedie/equipements/12420-cape-tetriste
p2080
aV/fr/mmorpg/encyclopedie/equipements/12754-amulettong
p2081
aV/fr/mmorpg/encyclopedie/equipements/6913-araknacoiffe
p2082
aV/fr/mmorpg/encyclopedie/equipements/8229-sandales-piou-jaune
p2083
aV/fr/mmorpg/encyclopedie/equipements/14589-ceintulotte
p2084
aV/fr/mmorpg/encyclopedie/equipements/14596-boushincha
p2085
aV/fr/mmorpg/encyclopedie/equipements/14604-geishape
p2086
aV/fr/mmorpg/encyclopedie/equipements/14611-kouinkasque-jaune
p2087
aV/fr/mmorpg/encyclopedie/equipements/14628-maski
p2088
aV/fr/mmorpg/encyclopedie/equipements/14642-soubrecoiffe
p2089
aV/fr/mmorpg/encyclopedie/equipements/14798-ceinture-samourai
p2090
aV/fr/mmorpg/encyclopedie/equipements/14806-annolita
p2091
aV/fr/mmorpg/encyclopedie/equipements/15157-casquete
p2092
aV/fr/mmorpg/encyclopedie/equipements/17487-collier-khan-karkass
p2093
aV/fr/mmorpg/encyclopedie/equipements/17502-slip-khan-karkass
p2094
aV/fr/mmorpg/encyclopedie/equipements/12421-amulette-tetriste
p2095
aV/fr/mmorpg/encyclopedie/equipements/12755-cape-nam
p2096
aV/fr/mmorpg/encyclopedie/equipements/13424-troma-vieux-john
p2097
aV/fr/mmorpg/encyclopedie/equipements/14597-shinchamu
p2098
aV/fr/mmorpg/encyclopedie/equipements/14605-geishanneau
p2099
aV/fr/mmorpg/encyclopedie/equipements/14612-kouinkape-jaune
p2100
aV/fr/mmorpg/encyclopedie/equipements/14629-makiture
p2101
aV/fr/mmorpg/encyclopedie/equipements/17489-clochette-lilotte
p2102
aV/fr/mmorpg/encyclopedie/equipements/12756-pacmamulette
p2103
aV/fr/mmorpg/encyclopedie/equipements/13711-chapeau-keke
p2104
aV/fr/mmorpg/encyclopedie/equipements/14613-kouinkano-jaune
p2105
aV/fr/mmorpg/encyclopedie/equipements/14620-ninjacape-noire
p2106
aV/fr/mmorpg/encyclopedie/equipements/14644-soubretture
p2107
aV/fr/mmorpg/encyclopedie/equipements/8214-amulette-piou-bleu
p2108
aV/fr/mmorpg/encyclopedie/equipements/8245-chapeau-piou-violet
p2109
aV/fr/mmorpg/encyclopedie/equipements/12423-anneau-tetriste
p2110
aV/fr/mmorpg/encyclopedie/equipements/12757-pacmabottes
p2111
aV/fr/mmorpg/encyclopedie/equipements/14599-koifwaii
p2112
aV/fr/mmorpg/encyclopedie/equipements/15794-coiffe-fouduglen
p2113
aV/fr/mmorpg/encyclopedie/equipements/17497-cape-bakara
p2114
aV/fr/mmorpg/encyclopedie/equipements/12423-anneau-tetriste
p2115
aV/fr/mmorpg/encyclopedie/equipements/12757-pacmabottes
p2116
aV/fr/mmorpg/encyclopedie/equipements/14608-kouinkape-noire
p2117
aV/fr/mmorpg/encyclopedie/equipements/14615-ninchapeau-blanc
p2118
aV/fr/mmorpg/encyclopedie/equipements/14800-masque-n\u014d
p2119
aV/fr/mmorpg/encyclopedie/equipements/15795-bottes-fouduglen
p2120
aV/fr/mmorpg/encyclopedie/equipements/17498-cape-joris
p2121
aV/fr/mmorpg/encyclopedie/equipements/14801-cape-n\u014d
p2122
aV/fr/mmorpg/encyclopedie/equipements/15796-amulette-fouduglen
p2123
aV/fr/mmorpg/encyclopedie/equipements/14591-maskomen-tengu
p2124
aV/fr/mmorpg/encyclopedie/equipements/14609-kouinkano-noir
p2125
aV/fr/mmorpg/encyclopedie/equipements/14616-ninjacape-blanche
p2126
aV/fr/mmorpg/encyclopedie/equipements/14623-ailocape
p2127
aV/fr/mmorpg/encyclopedie/equipements/8225-sandales-piou-rouge
p2128
aV/fr/mmorpg/encyclopedie/equipements/8240-ceinture-piou-vert
p2129
aV/fr/mmorpg/encyclopedie/equipements/6911-araknoton
p2130
aV/fr/mmorpg/encyclopedie/equipements/103-anneau-sagesse
p2131
aV/fr/mmorpg/encyclopedie/equipements/280-collier-arc-ciel
p2132
aV/fr/mmorpg/encyclopedie/equipements/13423-slip-rechange-captain-chafer
p2133
aV/fr/mmorpg/encyclopedie/equipements/8236-cape-piou-jaune
p2134
aV/fr/mmorpg/encyclopedie/equipements/112-anneau-chance
p2135
aV/fr/mmorpg/encyclopedie/equipements/8220-anneau-piou-bleu
p2136
aV/fr/mmorpg/encyclopedie/equipements/121-anneau-agilite
p2137
aV/fr/mmorpg/encyclopedie/equipements/8215-amulette-piou-violet
p2138
aV/fr/mmorpg/encyclopedie/equipements/324-amulette-krokette
p2139
aV/fr/mmorpg/encyclopedie/equipements/255-ceinture-vitalesque
p2140
aV/fr/mmorpg/encyclopedie/equipements/2473-cape-aventurier
p2141
aV/fr/mmorpg/encyclopedie/equipements/8248-chapeau-piou-rose
p2142
aV/fr/mmorpg/encyclopedie/equipements/8218-amulette-piou-rose
p2143
aV/fr/mmorpg/encyclopedie/equipements/263-ceinture-agilesque
p2144
aV/fr/mmorpg/encyclopedie/equipements/8226-sandales-piou-bleu
p2145
aV/fr/mmorpg/encyclopedie/equipements/2475-anneau-aventurier
p2146
aV/fr/mmorpg/encyclopedie/equipements/8241-ceinture-piou-jaune
p2147
aV/fr/mmorpg/encyclopedie/equipements/70-amulette-hibou
p2148
aV/fr/mmorpg/encyclopedie/equipements/259-ceinture-forcesque
p2149
aV/fr/mmorpg/encyclopedie/equipements/8221-anneau-piou-violet
p2150
aV/fr/mmorpg/encyclopedie/equipements/841-anneau-satisfaction
p2151
aV/fr/mmorpg/encyclopedie/equipements/1624-bottes-nexus
p2152
aV/fr/mmorpg/encyclopedie/equipements/16843-sac-main-renforce
p2153
aV/fr/mmorpg/encyclopedie/equipements/8246-chapeau-piou-vert
p2154
aV/fr/mmorpg/encyclopedie/equipements/16503-coiffe-antome
p2155
aV/fr/mmorpg/encyclopedie/equipements/77-amulette-ours
p2156
aV/fr/mmorpg/encyclopedie/equipements/84-amulette-loup
p2157
aV/fr/mmorpg/encyclopedie/equipements/16504-cape-syche
p2158
aV/fr/mmorpg/encyclopedie/equipements/8231-cape-piou-rouge
p2159
aV/fr/mmorpg/encyclopedie/equipements/8232-cape-piou-bleu
p2160
aV/fr/mmorpg/encyclopedie/equipements/16505-animulette
p2161
aV/fr/mmorpg/encyclopedie/equipements/8227-sandales-piou-violet
p2162
aV/fr/mmorpg/encyclopedie/equipements/700-pandawa
p2163
aV/fr/mmorpg/encyclopedie/equipements/2478-amulette-aventurier
p2164
aV/fr/mmorpg/encyclopedie/equipements/2803-ceinture-kwabe
p2165
aV/fr/mmorpg/encyclopedie/equipements/864-bottes-chance
p2166
aV/fr/mmorpg/encyclopedie/equipements/8237-ceinture-piou-rouge
p2167
aV/fr/mmorpg/encyclopedie/equipements/937-cape-bleutee
p2168
aV/fr/mmorpg/encyclopedie/equipements/8216-amulette-piou-vert
p2169
aV/fr/mmorpg/encyclopedie/equipements/8247-chapeau-piou-jaune
p2170
aV/fr/mmorpg/encyclopedie/equipements/325-amulette-sram
p2171
aV/fr/mmorpg/encyclopedie/equipements/837-bottes-kluh
p2172
aV/fr/mmorpg/encyclopedie/equipements/8224-anneau-piou-rose
p2173
aV/fr/mmorpg/encyclopedie/equipements/8698-dofus-nebuleux
p2174
aV/fr/mmorpg/encyclopedie/equipements/737-dofus-emeraude
p2175
aV/fr/mmorpg/encyclopedie/equipements/1698-sac-petit-recolteur
p2176
aV/fr/mmorpg/encyclopedie/equipements/13344-dolmanax
p2177
aV/fr/mmorpg/encyclopedie/equipements/6980-dofus-vulbis
p2178
aV/fr/mmorpg/encyclopedie/equipements/739-dofus-turquoise
p2179
aV/fr/mmorpg/encyclopedie/equipements/778-cape-mori-arty
p2180
aV/fr/mmorpg/encyclopedie/equipements/862-sandales-intelligence
p2181
aV/fr/mmorpg/encyclopedie/equipements/8072-dofus-kaliptus
p2182
aV/fr/mmorpg/encyclopedie/equipements/863-bottes-agilesques
p2183
aV/fr/mmorpg/encyclopedie/equipements/958-dofusteuse
p2184
aV/fr/mmorpg/encyclopedie/equipements/972-dofus-cawotte
p2185
aV/fr/mmorpg/encyclopedie/equipements/15235-dotruche
p2186
aV/fr/mmorpg/encyclopedie/equipements/10907-dokille
p2187
aV/fr/mmorpg/encyclopedie/equipements/7754-dofus-ocre
p2188
aV/fr/mmorpg/encyclopedie/equipements/694-dofus-pourpre
p2189
aV/fr/mmorpg/encyclopedie/equipements/697-makroute
p2190
aV/fr/mmorpg/encyclopedie/equipements/767-gantie-royal
p2191
aV/fr/mmorpg/encyclopedie/equipements/16061-dofus-veilleurs
p2192
aV/fr/mmorpg/encyclopedie/equipements/7043-dofus-glaces
p2193
aV/fr/mmorpg/encyclopedie/equipements/7113-dofawa
p2194
aV/fr/mmorpg/encyclopedie/equipements/8558-chapeau-lapino
p2195
aV/fr/mmorpg/encyclopedie/equipements/769-einekeineux
p2196
aV/fr/mmorpg/encyclopedie/equipements/12661-sac-main
p2197
aV/fr/mmorpg/encyclopedie/equipements/279-larme-bouftou
p2198
aV/fr/mmorpg/encyclopedie/equipements/768-camaineux
p2199
aV/fr/mmorpg/encyclopedie/equipements/7177-bandeau-pandawushu
p2200
aV/fr/mmorpg/encyclopedie/equipements/784-bottes-chat-bute
p2201
aV/fr/mmorpg/encyclopedie/equipements/892-bottes-bouftou
p2202
aV/fr/mmorpg/encyclopedie/equipements/949-bandeau-vitalite
p2203
aV/fr/mmorpg/encyclopedie/equipements/786-pendentif-hibou-chetif
p2204
aV/fr/mmorpg/encyclopedie/equipements/298-sandales-tofuesques
p2205
aV/fr/mmorpg/encyclopedie/equipements/941-bandeau-komintot
p2206
aV/fr/mmorpg/encyclopedie/equipements/17524-fecaflip
p2207
aV/fr/mmorpg/encyclopedie/equipements/849-anneau-forcesque
p2208
aV/fr/mmorpg/encyclopedie/equipements/942-lisseur
p2209
aV/fr/mmorpg/encyclopedie/equipements/850-anneau-agilesque
p2210
aV/fr/mmorpg/encyclopedie/equipements/851-anneau-vitalesque
p2211
aV/fr/mmorpg/encyclopedie/equipements/10158-bouclier-trophee-dark-vlad
p2212
aV/fr/mmorpg/encyclopedie/equipements/10165-bouclier-trophee-koulosse
p2213
aV/fr/mmorpg/encyclopedie/equipements/10785-anneau-debutant
p2214
aV/fr/mmorpg/encyclopedie/equipements/10800-cape-debutant
p2215
aV/fr/mmorpg/encyclopedie/equipements/10925-bouclier-forgeur-marteaux-primordial
p2216
aV/fr/mmorpg/encyclopedie/equipements/10932-bouclier-mineur-primordial
p2217
aV/fr/mmorpg/encyclopedie/equipements/10949-bouclier-poissonnier-primordial
p2218
aV/fr/mmorpg/encyclopedie/equipements/12798-bouclier-survivant
p2219
aV/fr/mmorpg/encyclopedie/equipements/13272-amulette-mini-mister-amakna
p2220
aV/fr/mmorpg/encyclopedie/equipements/6801-cape-hivernale
p2221
aV/fr/mmorpg/encyclopedie/equipements/8162-tete-citwouille
p2222
aV/fr/mmorpg/encyclopedie/equipements/8535-incrustes
p2223
aV/fr/mmorpg/encyclopedie/equipements/9002-ftalmo
p2224
aV/fr/mmorpg/encyclopedie/equipements/9019-bouclier-bawbawe
p2225
aV/fr/mmorpg/encyclopedie/equipements/9026-bouclier-bowisse
p2226
aV/fr/mmorpg/encyclopedie/equipements/9482-cigaloclier
p2227
aV/fr/mmorpg/encyclopedie/equipements/1628-artefact-feu
p2228
aV/fr/mmorpg/encyclopedie/equipements/1697-petit-sac-laine-boufton
p2229
aV/fr/mmorpg/encyclopedie/equipements/2119-cape-bontarienne
p2230
aV/fr/mmorpg/encyclopedie/equipements/16017-bouclier-halouine
p2231
aV/fr/mmorpg/encyclopedie/equipements/17010-bouclier-demoniaque
p2232
aV/fr/mmorpg/encyclopedie/equipements/17801-bouclier-merkator
p2233
aV/fr/mmorpg/encyclopedie/equipements/852-petit-anneau-magique
p2234
aV/fr/mmorpg/encyclopedie/equipements/853-petit-anneau-chanceux
p2235
aV/fr/mmorpg/encyclopedie/equipements/860-ceinture-chance
p2236
aV/fr/mmorpg/encyclopedie/equipements/1629-artefact-terre
p2237
aV/fr/mmorpg/encyclopedie/equipements/16070-bouclier-pain-epice
p2238
aV/fr/mmorpg/encyclopedie/equipements/16241-bouclier-cochon
p2239
aV/fr/mmorpg/encyclopedie/equipements/10414-couronne-koninginnedag
p2240
aV/fr/mmorpg/encyclopedie/equipements/10801-chapeau-debutant
p2241
aV/fr/mmorpg/encyclopedie/equipements/10926-bouclier-cordonnier-primordial
p2242
aV/fr/mmorpg/encyclopedie/equipements/10933-bouclier-boulanger-primordial
p2243
aV/fr/mmorpg/encyclopedie/equipements/10940-bouclier-forgemage-dagues-primordial
p2244
aV/fr/mmorpg/encyclopedie/equipements/12131-bouclier-pete
p2245
aV/fr/mmorpg/encyclopedie/equipements/12528-amulette-mister-amakna
p2246
aV/fr/mmorpg/encyclopedie/equipements/13468-bouclier-champion-642
p2247
aV/fr/mmorpg/encyclopedie/equipements/14308-justoclier
p2248
aV/fr/mmorpg/encyclopedie/equipements/15116-kaniclier
p2249
aV/fr/mmorpg/encyclopedie/equipements/6662-chapeau-mariee
p2250
aV/fr/mmorpg/encyclopedie/equipements/6802-cache-oreilles
p2251
aV/fr/mmorpg/encyclopedie/equipements/7999-capananas
p2252
aV/fr/mmorpg/encyclopedie/equipements/8341-bottananas
p2253
aV/fr/mmorpg/encyclopedie/equipements/8536-spamette
p2254
aV/fr/mmorpg/encyclopedie/equipements/9003-bouclier-taverne
p2255
aV/fr/mmorpg/encyclopedie/equipements/9010-bouclier-pandawa
p2256
aV/fr/mmorpg/encyclopedie/equipements/9027-bouclier-craqueleur
p2257
aV/fr/mmorpg/encyclopedie/equipements/9483-bouclier-boh-bihn
p2258
aV/fr/mmorpg/encyclopedie/equipements/10159-bouclier-trophee-moon
p2259
aV/fr/mmorpg/encyclopedie/equipements/10166-bouclier-trophee-sphincter-cell
p2260
aV/fr/mmorpg/encyclopedie/equipements/10794-bottes-debutant
p2261
aV/fr/mmorpg/encyclopedie/equipements/10927-bouclier-bijoutier-primordial
p2262
aV/fr/mmorpg/encyclopedie/equipements/10934-bouclier-alchimiste-primordial
p2263
aV/fr/mmorpg/encyclopedie/equipements/10941-bouclier-forgemage-epees-primordial
p2264
aV/fr/mmorpg/encyclopedie/equipements/11812-elianneau
p2265
aV/fr/mmorpg/encyclopedie/equipements/12529-amulette-miss-amakna
p2266
aV/fr/mmorpg/encyclopedie/equipements/13849-bouclier-stroplante
p2267
aV/fr/mmorpg/encyclopedie/equipements/15117-bworklier
p2268
aV/fr/mmorpg/encyclopedie/equipements/8070-ceinture-champion
p2269
aV/fr/mmorpg/encyclopedie/equipements/8537-plussain
p2270
aV/fr/mmorpg/encyclopedie/equipements/8854-crack-sparrow-own-withered
p2271
aV/fr/mmorpg/encyclopedie/equipements/9004-bouclier-akwadala
p2272
aV/fr/mmorpg/encyclopedie/equipements/9011-cadran-feu
p2273
aV/fr/mmorpg/encyclopedie/equipements/9028-bouclier-terrdala
p2274
aV/fr/mmorpg/encyclopedie/equipements/9484-bouclier-tigre
p2275
aV/fr/mmorpg/encyclopedie/equipements/10167-bouclier-trophee-bworker
p2276
aV/fr/mmorpg/encyclopedie/equipements/861-bottes-force
p2277
aV/fr/mmorpg/encyclopedie/equipements/17290-bouclier-pamous
p2278
aV/fr/mmorpg/encyclopedie/equipements/677-cape-pirate
p2279
aV/fr/mmorpg/encyclopedie/equipements/15240-kamatongues
p2280
aV/fr/mmorpg/encyclopedie/equipements/16236-bouclier-batailleur
p2281
aV/fr/mmorpg/encyclopedie/equipements/17291-bouclier-zoblaks
p2282
aV/fr/mmorpg/encyclopedie/equipements/10182-bouclier-solaire
p2283
aV/fr/mmorpg/encyclopedie/equipements/10555-bouclier-real-boitar
p2284
aV/fr/mmorpg/encyclopedie/equipements/10928-bouclier-forgeur-dagues-primordial
p2285
aV/fr/mmorpg/encyclopedie/equipements/10935-bouclier-tailleur-primordial
p2286
aV/fr/mmorpg/encyclopedie/equipements/10942-bouclier-forgemage-marteaux-primordial
p2287
aV/fr/mmorpg/encyclopedie/equipements/12892-rondache-pete
p2288
aV/fr/mmorpg/encyclopedie/equipements/13376-bouclier-kiafin
p2289
aV/fr/mmorpg/encyclopedie/equipements/8538-mesme
p2290
aV/fr/mmorpg/encyclopedie/equipements/8855-bouclier-fi-squale
p2291
aV/fr/mmorpg/encyclopedie/equipements/9005-bouclier-ventaille
p2292
aV/fr/mmorpg/encyclopedie/equipements/9012-cadran-air
p2293
aV/fr/mmorpg/encyclopedie/equipements/9029-bouclier-feudala
p2294
aV/fr/mmorpg/encyclopedie/equipements/10169-chispouclier
p2295
aV/fr/mmorpg/encyclopedie/equipements/10556-bouclier-bouftons-rouges
p2296
aV/fr/mmorpg/encyclopedie/equipements/10929-bouclier-sculpteur-batons-primordial
p2297
aV/fr/mmorpg/encyclopedie/equipements/10943-bouclier-forgemage-pelles-primordial
p2298
aV/fr/mmorpg/encyclopedie/equipements/10950-bouclier-forgeur-boucliers-primordial
p2299
aV/fr/mmorpg/encyclopedie/equipements/12406-bouclier-champion-639
p2300
aV/fr/mmorpg/encyclopedie/equipements/12660-bouclier-incarnam
p2301
aV/fr/mmorpg/encyclopedie/equipements/12893-ecu-pete
p2302
aV/fr/mmorpg/encyclopedie/equipements/6773-amulette-tude
p2303
aV/fr/mmorpg/encyclopedie/equipements/7581-sakananas
p2304
aV/fr/mmorpg/encyclopedie/equipements/9013-cadran-terre
p2305
aV/fr/mmorpg/encyclopedie/equipements/9020-derma-tho
p2306
aV/fr/mmorpg/encyclopedie/equipements/10169-chispouclier
p2307
aV/fr/mmorpg/encyclopedie/equipements/10556-bouclier-bouftons-rouges
p2308
aV/fr/mmorpg/encyclopedie/equipements/856-grenouillette
p2309
aV/fr/mmorpg/encyclopedie/equipements/940-louffeur
p2310
aV/fr/mmorpg/encyclopedie/equipements/787-anneau-rexik
p2311
aV/fr/mmorpg/encyclopedie/equipements/1630-artefact-air
p2312
aV/fr/mmorpg/encyclopedie/equipements/14504-chapokapi
p2313
aV/fr/mmorpg/encyclopedie/equipements/14636-bouclier-champion-643
p2314
aV/fr/mmorpg/encyclopedie/equipements/15242-perfidoclier
p2315
aV/fr/mmorpg/encyclopedie/equipements/17286-bouclier-agence-touriste
p2316
aV/fr/mmorpg/encyclopedie/equipements/17527-bouclier-1001-griffes
p2317
aV/fr/mmorpg/encyclopedie/equipements/10160-bouclier-trophee-chene-mou
p2318
aV/fr/mmorpg/encyclopedie/equipements/10906-bouclier-draconique
p2319
aV/fr/mmorpg/encyclopedie/equipements/10937-bouclier-forgeur-haches-primordial
p2320
aV/fr/mmorpg/encyclopedie/equipements/10944-bouclier-forgemage-haches-primordial
p2321
aV/fr/mmorpg/encyclopedie/equipements/10951-bouclier-cordomage-primordial
p2322
aV/fr/mmorpg/encyclopedie/equipements/14201-kouloclier
p2323
aV/fr/mmorpg/encyclopedie/equipements/7070-bouclier-brigandins-ecorche
p2324
aV/fr/mmorpg/encyclopedie/equipements/9007-bouclier-slip
p2325
aV/fr/mmorpg/encyclopedie/equipements/9014-cadran-eau
p2326
aV/fr/mmorpg/encyclopedie/equipements/9021-bouclier-captain-amakna
p2327
aV/fr/mmorpg/encyclopedie/equipements/10161-bouclier-trophee-dragon-cochon
p2328
aV/fr/mmorpg/encyclopedie/equipements/10798-bouclier-debutant
p2329
aV/fr/mmorpg/encyclopedie/equipements/10938-bouclier-pecheur-primordial
p2330
aV/fr/mmorpg/encyclopedie/equipements/10945-bouclier-sculptemage-arcs-primordial
p2331
aV/fr/mmorpg/encyclopedie/equipements/10952-bouclier-joaillomage-primordial
p2332
aV/fr/mmorpg/encyclopedie/equipements/11809-stasili
p2333
aV/fr/mmorpg/encyclopedie/equipements/12530-amulette-mister-monde-douze
p2334
aV/fr/mmorpg/encyclopedie/equipements/14396-bouclier-alliance
p2335
aV/fr/mmorpg/encyclopedie/equipements/14505-coupe-dragokart
p2336
aV/fr/mmorpg/encyclopedie/equipements/8067-bottes-champion
p2337
aV/fr/mmorpg/encyclopedie/equipements/9008-bouclier-asse
p2338
aV/fr/mmorpg/encyclopedie/equipements/9015-bouclier-bucheron
p2339
aV/fr/mmorpg/encyclopedie/equipements/9022-kloume
p2340
aV/fr/mmorpg/encyclopedie/equipements/9471-chapeau-sain-ballotin
p2341
aV/fr/mmorpg/encyclopedie/equipements/911-bottes-usees-hogmeiser
p2342
aV/fr/mmorpg/encyclopedie/equipements/1631-artefact-eau
p2343
aV/fr/mmorpg/encyclopedie/equipements/16222-bouclier-hitche
p2344
aV/fr/mmorpg/encyclopedie/equipements/17009-bouclier-gunsen
p2345
aV/fr/mmorpg/encyclopedie/equipements/17782-pwaklier
p2346
aV/fr/mmorpg/encyclopedie/equipements/15617-bouclier-champion-644
p2347
aV/fr/mmorpg/encyclopedie/equipements/17271-bouclier-exotique
p2348
aV/fr/mmorpg/encyclopedie/equipements/17288-bouclier-grocoricos
p2349
aV/fr/mmorpg/encyclopedie/equipements/789-ceinture-kobeer
p2350
aV/fr/mmorpg/encyclopedie/equipements/1632-artefact-lumiere
p2351
aV/fr/mmorpg/encyclopedie/equipements/10799-ceinture-debutant
p2352
aV/fr/mmorpg/encyclopedie/equipements/10922-bouclier-bucheron-primordial
p2353
aV/fr/mmorpg/encyclopedie/equipements/10939-bouclier-chasseur-primordial
p2354
aV/fr/mmorpg/encyclopedie/equipements/10946-bouclier-sculptemage-baguettes-primordial
p2355
aV/fr/mmorpg/encyclopedie/equipements/10953-bouclier-costumage-primordial
p2356
aV/fr/mmorpg/encyclopedie/equipements/12531-amulette-miss-monde-douze
p2357
aV/fr/mmorpg/encyclopedie/equipements/8068-cape-champion
p2358
aV/fr/mmorpg/encyclopedie/equipements/9009-bouclier-abraknyde
p2359
aV/fr/mmorpg/encyclopedie/equipements/9016-bouclier-mont-kipou
p2360
aV/fr/mmorpg/encyclopedie/equipements/9023-bouclier-volant
p2361
aV/fr/mmorpg/encyclopedie/equipements/9030-bouclier-aerdala
p2362
aV/fr/mmorpg/encyclopedie/equipements/10163-bouclier-trophee-kimbo
p2363
aV/fr/mmorpg/encyclopedie/equipements/10923-bouclier-forgeur-epees-primordial
p2364
aV/fr/mmorpg/encyclopedie/equipements/10930-bouclier-sculpteur-baguettes-primordial
p2365
aV/fr/mmorpg/encyclopedie/equipements/10947-bouclier-sculptemage-batons-primordial
p2366
aV/fr/mmorpg/encyclopedie/equipements/10954-bouclier-bricoleur-primordial
p2367
aV/fr/mmorpg/encyclopedie/equipements/12796-bouclier-champion-640
p2368
aV/fr/mmorpg/encyclopedie/equipements/13890-glaglaclier
p2369
aV/fr/mmorpg/encyclopedie/equipements/14305-darclier
p2370
aV/fr/mmorpg/encyclopedie/equipements/15238-kamapo
p2371
aV/fr/mmorpg/encyclopedie/equipements/7097-bouclier-entrainement
p2372
aV/fr/mmorpg/encyclopedie/equipements/7422-maskananas
p2373
aV/fr/mmorpg/encyclopedie/equipements/8069-coiffe-champion
p2374
aV/fr/mmorpg/encyclopedie/equipements/8533-floude
p2375
aV/fr/mmorpg/encyclopedie/equipements/9017-bouclier-brigandins
p2376
aV/fr/mmorpg/encyclopedie/equipements/9024-bouclier-chouque
p2377
aV/fr/mmorpg/encyclopedie/equipements/766-koliet-aclou
p2378
aV/fr/mmorpg/encyclopedie/equipements/1501-alliance
p2379
aV/fr/mmorpg/encyclopedie/equipements/1633-artefact-vie
p2380
aV/fr/mmorpg/encyclopedie/equipements/17289-bouclier-redroz
p2381
aV/fr/mmorpg/encyclopedie/equipements/17784-bouclier-tofu-royal
p2382
aV/fr/mmorpg/encyclopedie/equipements/2118-cape-brakmarienne
p2383
aV/fr/mmorpg/encyclopedie/equipements/15239-kamasac
p2384
aV/fr/mmorpg/encyclopedie/equipements/17002-bouclier-champion-645
p2385
aV/fr/mmorpg/encyclopedie/equipements/17800-skeunklier
p2386
aV/fr/mmorpg/encyclopedie/equipements/10164-bouclier-trophee-wa-wabbit
p2387
aV/fr/mmorpg/encyclopedie/equipements/10784-amulette-debutant
p2388
aV/fr/mmorpg/encyclopedie/equipements/10924-bouclier-sculpteur-arcs-primordial
p2389
aV/fr/mmorpg/encyclopedie/equipements/10948-bouclier-boucher-primordial
p2390
aV/fr/mmorpg/encyclopedie/equipements/12797-bouclier-champion-641
p2391
aV/fr/mmorpg/encyclopedie/equipements/13240-bouclier-guilde
p2392
aV/fr/mmorpg/encyclopedie/equipements/13271-amulette-mini-miss-amakna
p2393
aV/fr/mmorpg/encyclopedie/equipements/14298-fesses-bouclier
p2394
aV/fr/mmorpg/encyclopedie/equipements/14306-bouclier-rats
p2395
aV/fr/mmorpg/encyclopedie/equipements/6660-chapeau-marie
p2396
aV/fr/mmorpg/encyclopedie/equipements/6800-cape-banale
p2397
aV/fr/mmorpg/encyclopedie/equipements/8534-cape-loque
p2398
aV/fr/mmorpg/encyclopedie/equipements/9001-bouclier-sidimote
p2399
aV/fr/mmorpg/encyclopedie/equipements/9018-karde-coeur
p2400
aV/fr/mmorpg/encyclopedie/equipements/9025-bouclier-bouftou
p2401
aV/fr/mmorpg/encyclopedie/equipements/9481-poshoclier
p2402
a.