(lp0
V/fr/mmorpg/encyclopedie/familiers/12541-dragouf
p1
aV/fr/mmorpg/encyclopedie/familiers/11966-blerodoudou
p2
aV/fr/mmorpg/encyclopedie/familiers/11950-kanigloups
p3
aV/fr/mmorpg/encyclopedie/familiers/11955-bulbisou
p4
aV/fr/mmorpg/encyclopedie/familiers/11971-bisouglours
p5
aV/fr/mmorpg/encyclopedie/familiers/14833-siroko
p6
aV/fr/mmorpg/encyclopedie/familiers/15254-phortiche
p7
aV/fr/mmorpg/encyclopedie/familiers/14827-kwaltess
p8
aV/fr/mmorpg/encyclopedie/familiers/15978-blokus
p9
aV/fr/mmorpg/encyclopedie/familiers/12963-hurledent
p10
aV/fr/mmorpg/encyclopedie/familiers/13182-kramkram
p11
aV/fr/mmorpg/encyclopedie/familiers/17379-titard
p12
aV/fr/mmorpg/encyclopedie/familiers/14838-dehluge
p13
aV/fr/mmorpg/encyclopedie/familiers/15110-chachyene
p14
aV/fr/mmorpg/encyclopedie/familiers/13603-balafreux
p15
aV/fr/mmorpg/encyclopedie/familiers/15243-phorror
p16
aV/fr/mmorpg/encyclopedie/familiers/15469-homlett
p17
aV/fr/mmorpg/encyclopedie/familiers/18088-kougnard
p18
aV/fr/mmorpg/encyclopedie/familiers/6978-peki
p19
aV/fr/mmorpg/encyclopedie/familiers/14854-brulih
p20
aV/fr/mmorpg/encyclopedie/familiers/13465-sakochere
p21
aV/fr/mmorpg/encyclopedie/familiers/14848-kompost
p22
aV/fr/mmorpg/encyclopedie/familiers/16116-eliome
p23
aV/fr/mmorpg/encyclopedie/familiers/9785-shushu-rushu
p24
aV/fr/mmorpg/encyclopedie/familiers/11012-chienchien-tigre
p25
aV/fr/mmorpg/encyclopedie/familiers/11771-medugivre
p26
aV/fr/mmorpg/encyclopedie/familiers/11858-gwo-tofu-ventripotent
p27
aV/fr/mmorpg/encyclopedie/familiers/6717-chienchien-noir
p28
aV/fr/mmorpg/encyclopedie/familiers/7518-fotome
p29
aV/fr/mmorpg/encyclopedie/familiers/7703-vilain-petit-corbac
p30
aV/fr/mmorpg/encyclopedie/familiers/7710-pioute-rose
p31
aV/fr/mmorpg/encyclopedie/familiers/8155-tifoux
p32
aV/fr/mmorpg/encyclopedie/familiers/16295-moumoute
p33
aV/fr/mmorpg/encyclopedie/familiers/17700-chaperlipopette
p34
aV/fr/mmorpg/encyclopedie/familiers/10863-raknaille
p35
aV/fr/mmorpg/encyclopedie/familiers/11013-kouin-kouin-noir
p36
aV/fr/mmorpg/encyclopedie/familiers/11765-cromeugnon
p37
aV/fr/mmorpg/encyclopedie/familiers/12009-platypus
p38
aV/fr/mmorpg/encyclopedie/familiers/13071-mekrabe
p39
aV/fr/mmorpg/encyclopedie/familiers/6718-chacha-blanc
p40
aV/fr/mmorpg/encyclopedie/familiers/7519-dragoune-rose
p41
aV/fr/mmorpg/encyclopedie/familiers/7704-ecureuil-chenapan
p42
aV/fr/mmorpg/encyclopedie/familiers/7711-pioute-rouge
p43
aV/fr/mmorpg/encyclopedie/familiers/8000-bworky
p44
aV/fr/mmorpg/encyclopedie/familiers/9623-crocodaille
p45
aV/fr/mmorpg/encyclopedie/familiers/17004-gerbouille
p46
aV/fr/mmorpg/encyclopedie/familiers/17028-brakarien
p47
aV/fr/mmorpg/encyclopedie/familiers/17833-titcham
p48
aV/fr/mmorpg/encyclopedie/familiers/10802-dragoune-doree
p49
aV/fr/mmorpg/encyclopedie/familiers/10864-meuch
p50
aV/fr/mmorpg/encyclopedie/familiers/11014-chauffe-souris-delavee
p51
aV/fr/mmorpg/encyclopedie/familiers/12125-phenix
p52
aV/fr/mmorpg/encyclopedie/familiers/13661-kafarce
p53
aV/fr/mmorpg/encyclopedie/familiers/7705-leopardo
p54
aV/fr/mmorpg/encyclopedie/familiers/7712-pioute-vert
p55
aV/fr/mmorpg/encyclopedie/familiers/9617-chacha-angora
p56
aV/fr/mmorpg/encyclopedie/familiers/9624-dragoune-noire
p57
aV/fr/mmorpg/encyclopedie/familiers/15249-snouffle
p58
aV/fr/mmorpg/encyclopedie/familiers/17795-tirubim
p59
aV/fr/mmorpg/encyclopedie/familiers/7706-bilby
p60
aV/fr/mmorpg/encyclopedie/familiers/7713-pioute-violet
p61
aV/fr/mmorpg/encyclopedie/familiers/8071-mini-champion
p62
aV/fr/mmorpg/encyclopedie/familiers/8211-walk
p63
aV/fr/mmorpg/encyclopedie/familiers/8677-ross
p64
aV/fr/mmorpg/encyclopedie/familiers/10106-vampyrette
p65
aV/fr/mmorpg/encyclopedie/familiers/10865-tofoudre
p66
aV/fr/mmorpg/encyclopedie/familiers/11015-gupin
p67
aV/fr/mmorpg/encyclopedie/familiers/12133-serpete
p68
aV/fr/mmorpg/encyclopedie/familiers/13679-toukancre
p69
aV/fr/mmorpg/encyclopedie/familiers/10866-pykur
p70
aV/fr/mmorpg/encyclopedie/familiers/12994-rauleur
p71
aV/fr/mmorpg/encyclopedie/familiers/14433-boskito
p72
aV/fr/mmorpg/encyclopedie/familiers/7707-marcassin
p73
aV/fr/mmorpg/encyclopedie/familiers/7714-atouin
p74
aV/fr/mmorpg/encyclopedie/familiers/7891-mini-wa
p75
aV/fr/mmorpg/encyclopedie/familiers/9594-bouloute-parrain
p76
aV/fr/mmorpg/encyclopedie/familiers/9619-tiwabbit-kiafin
p77
aV/fr/mmorpg/encyclopedie/familiers/10107-chauffe-souris
p78
aV/fr/mmorpg/encyclopedie/familiers/10657-chercheur-ogrines
p79
aV/fr/mmorpg/encyclopedie/familiers/15133-black-tiwabbit
p80
aV/fr/mmorpg/encyclopedie/familiers/15607-tatouf
p81
aV/fr/mmorpg/encyclopedie/familiers/2074-bwak-feu
p82
aV/fr/mmorpg/encyclopedie/familiers/11783-givrefoux
p83
aV/fr/mmorpg/encyclopedie/familiers/12988-scarakiri
p84
aV/fr/mmorpg/encyclopedie/familiers/13099-ploup
p85
aV/fr/mmorpg/encyclopedie/familiers/16269-tanuk
p86
aV/fr/mmorpg/encyclopedie/familiers/16276-bloalak
p87
aV/fr/mmorpg/encyclopedie/familiers/7520-croum
p88
aV/fr/mmorpg/encyclopedie/familiers/7708-pioute-bleu
p89
aV/fr/mmorpg/encyclopedie/familiers/7892-willy-relou
p90
aV/fr/mmorpg/encyclopedie/familiers/8561-bebe-pandawa
p91
aV/fr/mmorpg/encyclopedie/familiers/8693-feanor
p92
aV/fr/mmorpg/encyclopedie/familiers/1748-wabbit
p93
aV/fr/mmorpg/encyclopedie/familiers/2075-bwak-eau
p94
aV/fr/mmorpg/encyclopedie/familiers/6604-kouin-kouin
p95
aV/fr/mmorpg/encyclopedie/familiers/17813-glub
p96
aV/fr/mmorpg/encyclopedie/familiers/11777-ecumouth
p97
aV/fr/mmorpg/encyclopedie/familiers/13230-krolimea
p98
aV/fr/mmorpg/encyclopedie/familiers/7709-pioute-jaune
p99
aV/fr/mmorpg/encyclopedie/familiers/8151-bouloute
p100
aV/fr/mmorpg/encyclopedie/familiers/17023-bontique
p101
aV/fr/mmorpg/encyclopedie/familiers/17511-minikrone
p102
aV/fr/mmorpg/encyclopedie/familiers/2076-bwak-air
p103
aV/fr/mmorpg/encyclopedie/familiers/7414-petit-chacha-blanc
p104
aV/fr/mmorpg/encyclopedie/familiers/7522-minimino
p105
aV/fr/mmorpg/encyclopedie/familiers/13673-kokulte
p106
aV/fr/mmorpg/encyclopedie/familiers/16122-drakopin
p107
aV/fr/mmorpg/encyclopedie/familiers/2077-bwak-terre
p108
aV/fr/mmorpg/encyclopedie/familiers/9620-miniminotot
p109
aV/fr/mmorpg/encyclopedie/familiers/10985-chacha-glaces
p110
aV/fr/mmorpg/encyclopedie/familiers/11104-kouin-kouin-ameliore
p111
aV/fr/mmorpg/encyclopedie/familiers/13667-bulbouture
p112
aV/fr/mmorpg/encyclopedie/familiers/14545-fosfo
p113
aV/fr/mmorpg/encyclopedie/familiers/7415-petit-chienchien-noir
p114
aV/fr/mmorpg/encyclopedie/familiers/7523-chachatte-rousse
p115
aV/fr/mmorpg/encyclopedie/familiers/8153-abra-kadabra
p116
aV/fr/mmorpg/encyclopedie/familiers/6716-nomoon
p117
aV/fr/mmorpg/encyclopedie/familiers/7524-chacha-tigre
p118
aV/fr/mmorpg/encyclopedie/familiers/7911-koalak-sanguin
p119
aV/fr/mmorpg/encyclopedie/familiers/8154-scarador
p120
aV/fr/mmorpg/encyclopedie/familiers/12177-tofuem
p121
aV/fr/mmorpg/encyclopedie/familiers/12975-tofu-givre
p122
aV/fr/mmorpg/encyclopedie/familiers/12982-sourisette
p123
aV/fr/mmorpg/encyclopedie/familiers/13000-meulourd
p124
aV/fr/mmorpg/encyclopedie/familiers/10544-gelutin
p125
aV/fr/mmorpg/encyclopedie/familiers/11011-tifoux-tigre
p126
aV/fr/mmorpg/encyclopedie/familiers/1711-chienchien
p127
aV/fr/mmorpg/encyclopedie/familiers/1728-chacha
p128
a.