(lp0
V/fr/mmorpg/encyclopedie/idoles/69-aroumb
p1
aV/fr/mmorpg/encyclopedie/idoles/19-bihilete
p2
aV/fr/mmorpg/encyclopedie/idoles/21-bihilete-magistrale
p3
aV/fr/mmorpg/encyclopedie/idoles/20-bihilete-majeure
p4
aV/fr/mmorpg/encyclopedie/idoles/18-bihilete-mineure
p5
aV/fr/mmorpg/encyclopedie/idoles/52-binar
p6
aV/fr/mmorpg/encyclopedie/idoles/39-boble
p7
aV/fr/mmorpg/encyclopedie/idoles/41-boble-magistrale
p8
aV/fr/mmorpg/encyclopedie/idoles/40-boble-majeure
p9
aV/fr/mmorpg/encyclopedie/idoles/38-boble-mineure
p10
aV/fr/mmorpg/encyclopedie/idoles/11-butor
p11
aV/fr/mmorpg/encyclopedie/idoles/13-butor-magistrale
p12
aV/fr/mmorpg/encyclopedie/idoles/12-butor-majeure
p13
aV/fr/mmorpg/encyclopedie/idoles/10-butor-mineure
p14
aV/fr/mmorpg/encyclopedie/idoles/66-cafra
p15
aV/fr/mmorpg/encyclopedie/idoles/68-cafra-magistrale
p16
aV/fr/mmorpg/encyclopedie/idoles/67-cafra-majeure
p17
aV/fr/mmorpg/encyclopedie/idoles/65-cafra-mineure
p18
aV/fr/mmorpg/encyclopedie/idoles/36-corrode
p19
aV/fr/mmorpg/encyclopedie/idoles/37-critus
p20
aV/fr/mmorpg/encyclopedie/idoles/23-dagob
p21
aV/fr/mmorpg/encyclopedie/idoles/25-dagob-magistrale
p22
aV/fr/mmorpg/encyclopedie/idoles/24-dagob-majeure
p23
aV/fr/mmorpg/encyclopedie/idoles/22-dagob-mineure
p24
aV/fr/mmorpg/encyclopedie/idoles/51-djim
p25
aV/fr/mmorpg/encyclopedie/idoles/85-domo
p26
aV/fr/mmorpg/encyclopedie/idoles/87-domo-magistrale
p27
aV/fr/mmorpg/encyclopedie/idoles/86-domo-majeure
p28
aV/fr/mmorpg/encyclopedie/idoles/84-domo-mineure
p29
aV/fr/mmorpg/encyclopedie/idoles/32-dynamo
p30
aV/fr/mmorpg/encyclopedie/idoles/34-dynamo-magistrale
p31
aV/fr/mmorpg/encyclopedie/idoles/33-dynamo-majeure
p32
aV/fr/mmorpg/encyclopedie/idoles/31-dynamo-mineure
p33
aV/fr/mmorpg/encyclopedie/idoles/15-horize
p34
aV/fr/mmorpg/encyclopedie/idoles/17-horize-magistrale
p35
aV/fr/mmorpg/encyclopedie/idoles/16-horize-majeure
p36
aV/fr/mmorpg/encyclopedie/idoles/14-horize-mineure
p37
aV/fr/mmorpg/encyclopedie/idoles/45-hoskar
p38
aV/fr/mmorpg/encyclopedie/idoles/58-hulhu
p39
aV/fr/mmorpg/encyclopedie/idoles/60-hulhu-magistrale
p40
aV/fr/mmorpg/encyclopedie/idoles/59-hulhu-majeure
p41
aV/fr/mmorpg/encyclopedie/idoles/57-hulhu-mineure
p42
aV/fr/mmorpg/encyclopedie/idoles/54-korria
p43
aV/fr/mmorpg/encyclopedie/idoles/98-kyoub
p44
aV/fr/mmorpg/encyclopedie/idoles/100-kyoub-magistrale
p45
aV/fr/mmorpg/encyclopedie/idoles/99-kyoub-majeure
p46
aV/fr/mmorpg/encyclopedie/idoles/97-kyoub-mineure
p47
aV/fr/mmorpg/encyclopedie/idoles/46-leukide
p48
aV/fr/mmorpg/encyclopedie/idoles/43-muta
p49
aV/fr/mmorpg/encyclopedie/idoles/88-nahuatl
p50
aV/fr/mmorpg/encyclopedie/idoles/30-nekineko
p51
aV/fr/mmorpg/encyclopedie/idoles/44-nyan
p52
aV/fr/mmorpg/encyclopedie/idoles/4-nyoro
p53
aV/fr/mmorpg/encyclopedie/idoles/8-nyoro-magistrale
p54
aV/fr/mmorpg/encyclopedie/idoles/7-nyoro-majeure
p55
aV/fr/mmorpg/encyclopedie/idoles/6-nyoro-mineure
p56
aV/fr/mmorpg/encyclopedie/idoles/42-ougah
p57
aV/fr/mmorpg/encyclopedie/idoles/95-peho
p58
aV/fr/mmorpg/encyclopedie/idoles/96-peho-magistrale
p59
aV/fr/mmorpg/encyclopedie/idoles/94-peho-majeure
p60
aV/fr/mmorpg/encyclopedie/idoles/93-peho-mineure
p61
aV/fr/mmorpg/encyclopedie/idoles/35-penitent
p62
aV/fr/mmorpg/encyclopedie/idoles/72-petunia
p63
aV/fr/mmorpg/encyclopedie/idoles/74-petunia-magistrale
p64
aV/fr/mmorpg/encyclopedie/idoles/73-petunia-majeure
p65
aV/fr/mmorpg/encyclopedie/idoles/71-petunia-mineure
p66
aV/fr/mmorpg/encyclopedie/idoles/90-pikmi
p67
aV/fr/mmorpg/encyclopedie/idoles/92-pikmi-magistrale
p68
aV/fr/mmorpg/encyclopedie/idoles/91-pikmi-majeure
p69
aV/fr/mmorpg/encyclopedie/idoles/89-pikmi-mineure
p70
aV/fr/mmorpg/encyclopedie/idoles/9-proxima
p71
aV/fr/mmorpg/encyclopedie/idoles/27-sak
p72
aV/fr/mmorpg/encyclopedie/idoles/29-sak-magistrale
p73
aV/fr/mmorpg/encyclopedie/idoles/28-sak-majeure
p74
aV/fr/mmorpg/encyclopedie/idoles/26-sak-mineure
p75
aV/fr/mmorpg/encyclopedie/idoles/81-teleb
p76
aV/fr/mmorpg/encyclopedie/idoles/101-teleb-magistrale
p77
aV/fr/mmorpg/encyclopedie/idoles/82-teleb-majeure
p78
aV/fr/mmorpg/encyclopedie/idoles/80-teleb-mineure
p79
aV/fr/mmorpg/encyclopedie/idoles/79-ultram
p80
aV/fr/mmorpg/encyclopedie/idoles/70-vaude
p81
aV/fr/mmorpg/encyclopedie/idoles/62-yoche
p82
aV/fr/mmorpg/encyclopedie/idoles/64-yoche-magistrale
p83
aV/fr/mmorpg/encyclopedie/idoles/63-yoche-majeure
p84
aV/fr/mmorpg/encyclopedie/idoles/61-yoche-mineure
p85
aV/fr/mmorpg/encyclopedie/idoles/48-zaihn
p86
aV/fr/mmorpg/encyclopedie/idoles/50-zaihn-magistrale
p87
aV/fr/mmorpg/encyclopedie/idoles/49-zaihn-majeure
p88
aV/fr/mmorpg/encyclopedie/idoles/47-zaihn-mineure
p89
a.