(lp0
V/fr/mmorpg/encyclopedie/ressources/11106-poisskaille
p1
aV/fr/mmorpg/encyclopedie/ressources/11199-graine-frostiz
p2
aV/fr/mmorpg/encyclopedie/ressources/11500-poisskaille-givre
p3
aV/fr/mmorpg/encyclopedie/ressources/13917-cervelle-peunch
p4
aV/fr/mmorpg/encyclopedie/ressources/13924-scalp-klime
p5
aV/fr/mmorpg/encyclopedie/ressources/13931-incus-verglasseur
p6
aV/fr/mmorpg/encyclopedie/ressources/13948-braguette-nileza
p7
aV/fr/mmorpg/encyclopedie/ressources/13986-griffe-strigide
p8
aV/fr/mmorpg/encyclopedie/ressources/13993-pic-nocturlabe
p9
aV/fr/mmorpg/encyclopedie/ressources/14143-fermeture-eclair
p10
aV/fr/mmorpg/encyclopedie/ressources/14268-poche-magma-grasmera
p11
aV/fr/mmorpg/encyclopedie/ressources/14819-carapace-krabouilleur
p12
aV/fr/mmorpg/encyclopedie/ressources/14864-barbe-merkator
p13
aV/fr/mmorpg/encyclopedie/ressources/15177-corne-kamasterisk
p14
aV/fr/mmorpg/encyclopedie/ressources/15386-fragment-carte-gein-4-8
p15
aV/fr/mmorpg/encyclopedie/ressources/15449-epaulette-bouroliste
p16
aV/fr/mmorpg/encyclopedie/ressources/15689-noyau-protozorreur
p17
aV/fr/mmorpg/encyclopedie/ressources/15704-essence-reine-voleurs
p18
aV/fr/mmorpg/encyclopedie/ressources/16031-fragment-carte-hyperscampe-7-8
p19
aV/fr/mmorpg/encyclopedie/ressources/17229-fragment-carte-kongoku-8-8
p20
aV/fr/mmorpg/encyclopedie/ressources/17236-fragment-carte-voldelor-5-8
p21
aV/fr/mmorpg/encyclopedie/ressources/17623-gilet-valet
p22
aV/fr/mmorpg/encyclopedie/ressources/17647-fragment-carte-atcham-4-8
p23
aV/fr/mmorpg/encyclopedie/ressources/11107-bois-tremble
p24
aV/fr/mmorpg/encyclopedie/ressources/11501-etoile-neiges
p25
aV/fr/mmorpg/encyclopedie/ressources/13918-cuir-peunch
p26
aV/fr/mmorpg/encyclopedie/ressources/13925-sang-ventrublion
p27
aV/fr/mmorpg/encyclopedie/ressources/13932-cervelle-verglasseur
p28
aV/fr/mmorpg/encyclopedie/ressources/13949-canine-kanimate
p29
aV/fr/mmorpg/encyclopedie/ressources/13987-bec-strigide
p30
aV/fr/mmorpg/encyclopedie/ressources/13994-scapula-comte-harebourg
p31
aV/fr/mmorpg/encyclopedie/ressources/14043-clef-forgefroide-missiz-frizz
p32
aV/fr/mmorpg/encyclopedie/ressources/14144-mycoses-gelees
p33
aV/fr/mmorpg/encyclopedie/ressources/14795-pile-steamer
p34
aV/fr/mmorpg/encyclopedie/ressources/14865-coeur-merkator
p35
aV/fr/mmorpg/encyclopedie/ressources/15178-sourcil-barbetoal
p36
aV/fr/mmorpg/encyclopedie/ressources/15387-fragment-carte-gein-5-8
p37
aV/fr/mmorpg/encyclopedie/ressources/15705-essence-protozorreur
p38
aV/fr/mmorpg/encyclopedie/ressources/16032-fragment-carte-hyperscampe-6-8
p39
aV/fr/mmorpg/encyclopedie/ressources/17237-fragment-carte-voldelor-6-8
p40
aV/fr/mmorpg/encyclopedie/ressources/17275-orbe-regenerant-magistral
p41
aV/fr/mmorpg/encyclopedie/ressources/17624-ceinture-dame
p42
aV/fr/mmorpg/encyclopedie/ressources/17648-fragment-carte-atcham-5-8
p43
aV/fr/mmorpg/encyclopedie/ressources/13919-cuir-empaille
p44
aV/fr/mmorpg/encyclopedie/ressources/13926-molaire-ventrublion
p45
aV/fr/mmorpg/encyclopedie/ressources/13933-stapes-frimar
p46
aV/fr/mmorpg/encyclopedie/ressources/13940-criniere-krakal
p47
aV/fr/mmorpg/encyclopedie/ressources/13971-maxillaire-brikoglours
p48
aV/fr/mmorpg/encyclopedie/ressources/13988-oeil-cycloide
p49
aV/fr/mmorpg/encyclopedie/ressources/13995-bandelette-comte-harebourg
p50
aV/fr/mmorpg/encyclopedie/ressources/14044-clef-transporteur-sylargh
p51
aV/fr/mmorpg/encyclopedie/ressources/14145-oeil-verre
p52
aV/fr/mmorpg/encyclopedie/ressources/14859-sang-harpo
p53
aV/fr/mmorpg/encyclopedie/ressources/14936-insigne-justiciers
p54
aV/fr/mmorpg/encyclopedie/ressources/15179-dent-levitrof
p55
aV/fr/mmorpg/encyclopedie/ressources/15388-fragment-carte-gein-6-8
p56
aV/fr/mmorpg/encyclopedie/ressources/15720-plume-brabuzar
p57
aV/fr/mmorpg/encyclopedie/ressources/16499-planche-salut
p58
aV/fr/mmorpg/encyclopedie/ressources/17238-fragment-carte-voldelor-7-8
p59
aV/fr/mmorpg/encyclopedie/ressources/17625-sceau-roi-joueur
p60
aV/fr/mmorpg/encyclopedie/ressources/17649-fragment-carte-atcham-6-8
p61
aV/fr/mmorpg/encyclopedie/ressources/15389-fragment-carte-gein-7-8
p62
aV/fr/mmorpg/encyclopedie/ressources/15808-clef-oeil-vortex
p63
aV/fr/mmorpg/encyclopedie/ressources/16034-fragment-carte-hyperscampe-5-8
p64
aV/fr/mmorpg/encyclopedie/ressources/16926-seve-tremble
p65
aV/fr/mmorpg/encyclopedie/ressources/17222-fragment-carte-kongoku-1-8
p66
aV/fr/mmorpg/encyclopedie/ressources/17239-fragment-carte-voldelor-8-8
p67
aV/fr/mmorpg/encyclopedie/ressources/17570-carte-grand-jeu
p68
aV/fr/mmorpg/encyclopedie/ressources/17626-chaloeil
p69
aV/fr/mmorpg/encyclopedie/ressources/11109-frostiz
p70
aV/fr/mmorpg/encyclopedie/ressources/13927-incisive-stalak
p71
aV/fr/mmorpg/encyclopedie/ressources/13934-moustache-frimar
p72
aV/fr/mmorpg/encyclopedie/ressources/13941-plume-dodox
p73
aV/fr/mmorpg/encyclopedie/ressources/13972-queue-brikoglours
p74
aV/fr/mmorpg/encyclopedie/ressources/13989-plume-cycloide
p75
aV/fr/mmorpg/encyclopedie/ressources/14045-clef-salons-prives-klime
p76
aV/fr/mmorpg/encyclopedie/ressources/7302-peau-pandore
p77
aV/fr/mmorpg/encyclopedie/ressources/13928-ethmoide-stalak
p78
aV/fr/mmorpg/encyclopedie/ressources/13935-poil-aisselle-missiz-frizz
p79
aV/fr/mmorpg/encyclopedie/ressources/13942-bec-dodox
p80
aV/fr/mmorpg/encyclopedie/ressources/13973-bec-mansordide
p81
aV/fr/mmorpg/encyclopedie/ressources/14046-clef-laboratoire-nileza
p82
aV/fr/mmorpg/encyclopedie/ressources/14705-essence-comte-harebourg
p83
aV/fr/mmorpg/encyclopedie/ressources/14868-vieille-tete-marteau
p84
aV/fr/mmorpg/encyclopedie/ressources/15272-essence-roi-nidas
p85
aV/fr/mmorpg/encyclopedie/ressources/15450-crane-magique-magouille
p86
aV/fr/mmorpg/encyclopedie/ressources/15551-bouteille-gein
p87
aV/fr/mmorpg/encyclopedie/ressources/15690-clef-ventre-baleine
p88
aV/fr/mmorpg/encyclopedie/ressources/15715-aile-vortex
p89
aV/fr/mmorpg/encyclopedie/ressources/7295-poils-pandore
p90
aV/fr/mmorpg/encyclopedie/ressources/16035-fragment-carte-hyperscampe-4-8
p91
aV/fr/mmorpg/encyclopedie/ressources/16042-carte-hyperscampe
p92
aV/fr/mmorpg/encyclopedie/ressources/16460-substrat-sylve
p93
aV/fr/mmorpg/encyclopedie/ressources/17160-viande-goutue
p94
aV/fr/mmorpg/encyclopedie/ressources/17223-fragment-carte-kongoku-2-8
p95
aV/fr/mmorpg/encyclopedie/ressources/17230-carte-kongoku
p96
aV/fr/mmorpg/encyclopedie/ressources/17641-cheveu-atcham
p97
aV/fr/mmorpg/encyclopedie/ressources/17735-essence-chaloeil
p98
aV/fr/mmorpg/encyclopedie/ressources/15228-poils-barbe-enutrofor
p99
aV/fr/mmorpg/encyclopedie/ressources/15280-clef-palais-roi-nidas
p100
aV/fr/mmorpg/encyclopedie/ressources/15475-clef-trone-cour-sombre
p101
aV/fr/mmorpg/encyclopedie/ressources/15684-oeil-verminocule
p102
aV/fr/mmorpg/encyclopedie/ressources/15691-sel-baleine
p103
aV/fr/mmorpg/encyclopedie/ressources/15716-serre-ikargn
p104
aV/fr/mmorpg/encyclopedie/ressources/16036-fragment-carte-hyperscampe-3-8
p105
aV/fr/mmorpg/encyclopedie/ressources/17161-bidoche-goutue
p106
aV/fr/mmorpg/encyclopedie/ressources/17224-fragment-carte-kongoku-3-8
p107
aV/fr/mmorpg/encyclopedie/ressources/17565-clef-defi-chaloeil
p108
aV/fr/mmorpg/encyclopedie/ressources/11497-huile-frostiz
p109
aV/fr/mmorpg/encyclopedie/ressources/13929-sang-karkanik
p110
aV/fr/mmorpg/encyclopedie/ressources/13936-culotte-missiz-frizz
p111
aV/fr/mmorpg/encyclopedie/ressources/13943-patte-termystique
p112
aV/fr/mmorpg/encyclopedie/ressources/13950-griffe-kanimate
p113
aV/fr/mmorpg/encyclopedie/ressources/13974-sternum-mansordide
p114
aV/fr/mmorpg/encyclopedie/ressources/14047-clef-donjon-comte-harebourg
p115
aV/fr/mmorpg/encyclopedie/ressources/15180-morceau-clef-paspartou
p116
aV/fr/mmorpg/encyclopedie/ressources/15382-carte-gein
p117
aV/fr/mmorpg/encyclopedie/ressources/15414-etoffe-cour-sombre
p118
aV/fr/mmorpg/encyclopedie/ressources/15445-broderie-reine-voleurs
p119
aV/fr/mmorpg/encyclopedie/ressources/15685-patte-tabacille
p120
aV/fr/mmorpg/encyclopedie/ressources/15717-corne-mejaire
p121
aV/fr/mmorpg/encyclopedie/ressources/16037-fragment-carte-hyperscampe-2-8
p122
aV/fr/mmorpg/encyclopedie/ressources/17117-pied-voldelor
p123
aV/fr/mmorpg/encyclopedie/ressources/17225-fragment-carte-kongoku-4-8
p124
aV/fr/mmorpg/encyclopedie/ressources/17232-fragment-carte-voldelor-1-8
p125
aV/fr/mmorpg/encyclopedie/ressources/17643-carte-atcham
p126
aV/fr/mmorpg/encyclopedie/ressources/17713-jeton-chazino-grand-jeu
p127
aV/fr/mmorpg/encyclopedie/ressources/11102-perce-neige
p128
aV/fr/mmorpg/encyclopedie/ressources/13913-oeil-harrogant
p129
aV/fr/mmorpg/encyclopedie/ressources/13920-coeur-empaille
p130
aV/fr/mmorpg/encyclopedie/ressources/13937-bave-nessil
p131
aV/fr/mmorpg/encyclopedie/ressources/13944-carapace-termystique
p132
aV/fr/mmorpg/encyclopedie/ressources/13975-astragale-mecanofoux
p133
aV/fr/mmorpg/encyclopedie/ressources/13982-laine-sylargh
p134
aV/fr/mmorpg/encyclopedie/ressources/14822-pic-pikoleur
p135
aV/fr/mmorpg/encyclopedie/ressources/14853-oeil-harpo
p136
aV/fr/mmorpg/encyclopedie/ressources/14860-cuir-eskoglyphe
p137
aV/fr/mmorpg/encyclopedie/ressources/11110-obsidienne
p138
aV/fr/mmorpg/encyclopedie/ressources/11499-frostiz-souffle
p139
aV/fr/mmorpg/encyclopedie/ressources/13914-culotte-harrogant
p140
aV/fr/mmorpg/encyclopedie/ressources/13921-cuir-cuirboule
p141
aV/fr/mmorpg/encyclopedie/ressources/13938-molaire-nessil
p142
aV/fr/mmorpg/encyclopedie/ressources/13945-bractee-droserale
p143
aV/fr/mmorpg/encyclopedie/ressources/13976-oreille-mecanofoux
p144
aV/fr/mmorpg/encyclopedie/ressources/13983-incisive-sylargh
p145
aV/fr/mmorpg/encyclopedie/ressources/13990-aile-sinistrofu
p146
aV/fr/mmorpg/encyclopedie/ressources/14823-huile-pikoleur
p147
aV/fr/mmorpg/encyclopedie/ressources/14861-broderie-eskoglyphe
p148
aV/fr/mmorpg/encyclopedie/ressources/15181-boule-piloztere
p149
aV/fr/mmorpg/encyclopedie/ressources/15383-fragment-carte-gein-1-8
p150
aV/fr/mmorpg/encyclopedie/ressources/15390-fragment-carte-gein-8-8
p151
aV/fr/mmorpg/encyclopedie/ressources/15446-piege-desamorce-machassin
p152
aV/fr/mmorpg/encyclopedie/ressources/15686-antenne-bacterrib
p153
aV/fr/mmorpg/encyclopedie/ressources/15718-oeil-harpille
p154
aV/fr/mmorpg/encyclopedie/ressources/16038-fragment-carte-hyperscampe-1-8
p155
aV/fr/mmorpg/encyclopedie/ressources/17118-peau-grand-kongoku
p156
aV/fr/mmorpg/encyclopedie/ressources/17226-fragment-carte-kongoku-5-8
p157
aV/fr/mmorpg/encyclopedie/ressources/17233-fragment-carte-voldelor-2-8
p158
aV/fr/mmorpg/encyclopedie/ressources/17240-carte-voldelor
p159
aV/fr/mmorpg/encyclopedie/ressources/17644-fragment-carte-atcham-1-8
p160
aV/fr/mmorpg/encyclopedie/ressources/17651-fragment-carte-atcham-7-8
p161
aV/fr/mmorpg/encyclopedie/ressources/13193-fiole-gaz-draconique
p162
aV/fr/mmorpg/encyclopedie/ressources/13915-cuir-grodruche
p163
aV/fr/mmorpg/encyclopedie/ressources/13922-dent-cuirboule
p164
aV/fr/mmorpg/encyclopedie/ressources/13939-canine-krakal
p165
aV/fr/mmorpg/encyclopedie/ressources/13946-sepale-droserale
p166
aV/fr/mmorpg/encyclopedie/ressources/13977-volve-merulor
p167
aV/fr/mmorpg/encyclopedie/ressources/13984-plume-granduk
p168
aV/fr/mmorpg/encyclopedie/ressources/13991-queue-sinistrofu
p169
aV/fr/mmorpg/encyclopedie/ressources/14141-racine-cristalline
p170
aV/fr/mmorpg/encyclopedie/ressources/14817-pince-krabouilleur
p171
aV/fr/mmorpg/encyclopedie/ressources/14862-barbe-cyclophandre
p172
aV/fr/mmorpg/encyclopedie/ressources/15384-fragment-carte-gein-2-8
p173
aV/fr/mmorpg/encyclopedie/ressources/15447-meche-bombe-terristocrate
p174
aV/fr/mmorpg/encyclopedie/ressources/7307-etoffe-pandore
p175
aV/fr/mmorpg/encyclopedie/ressources/8812-encre-kralamoure-geant
p176
aV/fr/mmorpg/encyclopedie/ressources/15687-coquille-virustine
p177
aV/fr/mmorpg/encyclopedie/ressources/15719-griffe-buboxor
p178
aV/fr/mmorpg/encyclopedie/ressources/16008-batterie-rechargeable-hyperscampe
p179
aV/fr/mmorpg/encyclopedie/ressources/17227-fragment-carte-kongoku-6-8
p180
aV/fr/mmorpg/encyclopedie/ressources/17234-fragment-carte-voldelor-3-8
p181
aV/fr/mmorpg/encyclopedie/ressources/17621-pique-soldat
p182
aV/fr/mmorpg/encyclopedie/ressources/17645-fragment-carte-atcham-2-8
p183
aV/fr/mmorpg/encyclopedie/ressources/17652-fragment-carte-atcham-8-8
p184
aV/fr/mmorpg/encyclopedie/ressources/14863-chaussette-cyclophandre
p185
aV/fr/mmorpg/encyclopedie/ressources/14870-clef-aquadome-merkator
p186
aV/fr/mmorpg/encyclopedie/ressources/15176-joyau-couronne-roi-nidas
p187
aV/fr/mmorpg/encyclopedie/ressources/15385-fragment-carte-gein-3-8
p188
aV/fr/mmorpg/encyclopedie/ressources/15448-chouchou-doublure
p189
aV/fr/mmorpg/encyclopedie/ressources/15688-peau-pataugerme
p190
aV/fr/mmorpg/encyclopedie/ressources/15734-essence-vortex
p191
aV/fr/mmorpg/encyclopedie/ressources/15811-boucle-egares
p192
aV/fr/mmorpg/encyclopedie/ressources/16030-fragment-carte-hyperscampe-8-8
p193
aV/fr/mmorpg/encyclopedie/ressources/17228-fragment-carte-kongoku-7-8
p194
aV/fr/mmorpg/encyclopedie/ressources/17235-fragment-carte-voldelor-4-8
p195
aV/fr/mmorpg/encyclopedie/ressources/17622-plume-cavalier
p196
aV/fr/mmorpg/encyclopedie/ressources/17646-fragment-carte-atcham-3-8
p197
aV/fr/mmorpg/encyclopedie/ressources/12728-ardonite
p198
aV/fr/mmorpg/encyclopedie/ressources/13916-etoffe-grodruche
p199
aV/fr/mmorpg/encyclopedie/ressources/13923-moustache-klime
p200
aV/fr/mmorpg/encyclopedie/ressources/13930-malleus-karkanik
p201
aV/fr/mmorpg/encyclopedie/ressources/13947-broderie-nileza
p202
aV/fr/mmorpg/encyclopedie/ressources/13978-pedoncule-merulor
p203
aV/fr/mmorpg/encyclopedie/ressources/13985-bec-granduk
p204
aV/fr/mmorpg/encyclopedie/ressources/13992-aile-nocturlabe
p205
aV/fr/mmorpg/encyclopedie/ressources/14142-boulon-neuf
p206
aV/fr/mmorpg/encyclopedie/ressources/14267-pointe-osseuse-grasmera
p207
aV/fr/mmorpg/encyclopedie/ressources/8813-ventouse-kralamoure-geant
p208
aV/fr/mmorpg/encyclopedie/ressources/13196-cuir-synthetique
p209
aV/fr/mmorpg/encyclopedie/ressources/12970-paquet-cadeau-minotoboule-nowel
p210
aV/fr/mmorpg/encyclopedie/ressources/8808-etoffe-roissingue
p211
aV/fr/mmorpg/encyclopedie/ressources/8809-culotte-envers-roissingue
p212
aV/fr/mmorpg/encyclopedie/ressources/11339-laine-yokai-givrefoux
p213
aV/fr/mmorpg/encyclopedie/ressources/11340-crane-yokai-givrefoux
p214
aV/fr/mmorpg/encyclopedie/ressources/11517-eclat-temporel
p215
aV/fr/mmorpg/encyclopedie/ressources/11928-oreille-blerice
p216
aV/fr/mmorpg/encyclopedie/ressources/11935-iris-boulglours
p217
aV/fr/mmorpg/encyclopedie/ressources/11942-antenne-gloursaya
p218
aV/fr/mmorpg/encyclopedie/ressources/14701-essence-missiz-frizz
p219
aV/fr/mmorpg/encyclopedie/ressources/14927-symbole-obscuranti
p220
aV/fr/mmorpg/encyclopedie/ressources/17159-bidoche-noire
p221
aV/fr/mmorpg/encyclopedie/ressources/11518-fragment-gele
p222
aV/fr/mmorpg/encyclopedie/ressources/11929-queue-blerom
p223
aV/fr/mmorpg/encyclopedie/ressources/11936-poils-boulglours
p224
aV/fr/mmorpg/encyclopedie/ressources/11943-queue-glourseleste
p225
aV/fr/mmorpg/encyclopedie/ressources/7014-bois-bambou-sacre
p226
aV/fr/mmorpg/encyclopedie/ressources/14702-essence-sylargh
p227
aV/fr/mmorpg/encyclopedie/ressources/14928-corne-ombre
p228
aV/fr/mmorpg/encyclopedie/ressources/14935-clef-pyramide-ombre
p229
aV/fr/mmorpg/encyclopedie/ressources/15008-patron-pere-fwetar
p230
aV/fr/mmorpg/encyclopedie/ressources/11937-laine-glouragan
p231
aV/fr/mmorpg/encyclopedie/ressources/11944-hamatum-glourseleste
p232
aV/fr/mmorpg/encyclopedie/ressources/14703-essence-klime
p233
aV/fr/mmorpg/encyclopedie/ressources/16925-seve-bambou-sacre
p234
aV/fr/mmorpg/encyclopedie/ressources/14975-essence-ombre
p235
aV/fr/mmorpg/encyclopedie/ressources/11938-cuir-glouragan
p236
aV/fr/mmorpg/encyclopedie/ressources/11945-queue-meliglours
p237
aV/fr/mmorpg/encyclopedie/ressources/12001-larme-givrefoux
p238
aV/fr/mmorpg/encyclopedie/ressources/14704-essence-nileza
p239
aV/fr/mmorpg/encyclopedie/ressources/8329-clef-mine-sakai
p240
aV/fr/mmorpg/encyclopedie/ressources/11883-condyle-fuji-givrefoux
p241
aV/fr/mmorpg/encyclopedie/ressources/11939-incisive-glourmand
p242
aV/fr/mmorpg/encyclopedie/ressources/11946-calcaneus-meliglours
p243
aV/fr/mmorpg/encyclopedie/ressources/14697-essence-kolosso
p244
aV/fr/mmorpg/encyclopedie/ressources/14698-essence-fuji-givrefoux
p245
aV/fr/mmorpg/encyclopedie/ressources/14706-essence-merkator
p246
aV/fr/mmorpg/encyclopedie/ressources/14922-masque-vide
p247
aV/fr/mmorpg/encyclopedie/ressources/11884-cuir-fuji-givrefoux
p248
aV/fr/mmorpg/encyclopedie/ressources/11923-griffe-blerauve
p249
aV/fr/mmorpg/encyclopedie/ressources/11930-omoplate-blerom
p250
aV/fr/mmorpg/encyclopedie/ressources/14923-masque-vengeance
p251
aV/fr/mmorpg/encyclopedie/ressources/14954-eclat-obscur
p252
aV/fr/mmorpg/encyclopedie/ressources/11924-poil-blerauve
p253
aV/fr/mmorpg/encyclopedie/ressources/11931-griffe-kolosso
p254
aV/fr/mmorpg/encyclopedie/ressources/11948-cornee-kami-givrefoux
p255
aV/fr/mmorpg/encyclopedie/ressources/14699-essence-grolloum
p256
aV/fr/mmorpg/encyclopedie/ressources/11925-etoffe-croleur
p257
aV/fr/mmorpg/encyclopedie/ressources/11932-etoffe-kolosso
p258
aV/fr/mmorpg/encyclopedie/ressources/11949-incisive-kami-givrefoux
p259
aV/fr/mmorpg/encyclopedie/ressources/13154-poudre-glaciale
p260
aV/fr/mmorpg/encyclopedie/ressources/14924-masque-violence
p261
aV/fr/mmorpg/encyclopedie/ressources/11180-clef-cavernes-kolosso
p262
aV/fr/mmorpg/encyclopedie/ressources/11337-cuir-maho-givrefoux
p263
aV/fr/mmorpg/encyclopedie/ressources/11926-oreille-croleur
p264
aV/fr/mmorpg/encyclopedie/ressources/11940-etoffe-glourmand
p265
aV/fr/mmorpg/encyclopedie/ressources/14925-masque-vivacite
p266
aV/fr/mmorpg/encyclopedie/ressources/16471-espadon
p267
aV/fr/mmorpg/encyclopedie/ressources/14700-essence-glourseleste
p268
aV/fr/mmorpg/encyclopedie/ressources/14926-masque-vice
p269
aV/fr/mmorpg/encyclopedie/ressources/16472-espadon-quichotte
p270
aV/fr/mmorpg/encyclopedie/ressources/17158-viande-noire
p271
aV/fr/mmorpg/encyclopedie/ressources/11181-clef-antichambre-gloursons
p272
aV/fr/mmorpg/encyclopedie/ressources/11338-laine-maho-givrefoux
p273
aV/fr/mmorpg/encyclopedie/ressources/11516-etoffe-givree
p274
aV/fr/mmorpg/encyclopedie/ressources/11927-molaire-blerice
p275
aV/fr/mmorpg/encyclopedie/ressources/11941-aile-gloursaya
p276
aV/fr/mmorpg/encyclopedie/ressources/11532-bois-gobus
p277
aV/fr/mmorpg/encyclopedie/ressources/11533-oeuf-gobus
p278
aV/fr/mmorpg/encyclopedie/ressources/16970-cafra-magistrale
p279
aV/fr/mmorpg/encyclopedie/ressources/11531-cervelle-courtilieur
p280
aV/fr/mmorpg/encyclopedie/ressources/11530-pierre-courtilieur
p281
aV/fr/mmorpg/encyclopedie/ressources/11528-delko-perkue
p282
aV/fr/mmorpg/encyclopedie/ressources/9277-oeil-champmane
p283
aV/fr/mmorpg/encyclopedie/ressources/11529-estomac-perkue
p284
aV/fr/mmorpg/encyclopedie/ressources/11333-scorie-obsidiantre
p285
aV/fr/mmorpg/encyclopedie/ressources/11334-vertebre-obsidiantre
p286
aV/fr/mmorpg/encyclopedie/ressources/11335-patte-soryo-givrefoux
p287
aV/fr/mmorpg/encyclopedie/ressources/11336-oreille-soryo-givrefoux
p288
aV/fr/mmorpg/encyclopedie/ressources/11522-fragment-pepite-sakai
p289
aV/fr/mmorpg/encyclopedie/ressources/11524-queue-marodeur
p290
aV/fr/mmorpg/encyclopedie/ressources/11525-perone-marodeur
p291
aV/fr/mmorpg/encyclopedie/ressources/11526-radius-ouilleur
p292
aV/fr/mmorpg/encyclopedie/ressources/11527-peau-ouilleur
p293
aV/fr/mmorpg/encyclopedie/ressources/9279-bave-champ-gnons
p294
aV/fr/mmorpg/encyclopedie/ressources/16885-zaihn-magistrale
p295
aV/fr/mmorpg/encyclopedie/ressources/11521-oeil-sapeur
p296
aV/fr/mmorpg/encyclopedie/ressources/11523-moumoute-sapeur
p297
aV/fr/mmorpg/encyclopedie/ressources/11795-racine-synthese
p298
aV/fr/mmorpg/encyclopedie/ressources/11889-pedoncule-fongeur
p299
aV/fr/mmorpg/encyclopedie/ressources/11896-oeil-korriandre
p300
aV/fr/mmorpg/encyclopedie/ressources/12837-moule-clef-maison-papa-nowel
p301
aV/fr/mmorpg/encyclopedie/ressources/13157-ongle-bworker
p302
aV/fr/mmorpg/encyclopedie/ressources/14693-essence-korriandre
p303
aV/fr/mmorpg/encyclopedie/ressources/9280-epine-ougah
p304
aV/fr/mmorpg/encyclopedie/ressources/15456-dard-morfrelon
p305
aV/fr/mmorpg/encyclopedie/ressources/16389-mandragore
p306
aV/fr/mmorpg/encyclopedie/ressources/16459-substrat-foret-vierge
p307
aV/fr/mmorpg/encyclopedie/ressources/17243-fragment-carte-guerrier-k-o-2-5
p308
aV/fr/mmorpg/encyclopedie/ressources/17274-orbe-regenerant-majeur
p309
aV/fr/mmorpg/encyclopedie/ressources/16498-planche-dessin
p310
aV/fr/mmorpg/encyclopedie/ressources/16924-seve-orme
p311
aV/fr/mmorpg/encyclopedie/ressources/17244-fragment-carte-guerrier-k-o-3-5
p312
aV/fr/mmorpg/encyclopedie/ressources/11880-malleole-yomi-givrefoux
p313
aV/fr/mmorpg/encyclopedie/ressources/14694-essence-kralamoure-geant
p314
aV/fr/mmorpg/encyclopedie/ressources/9281-fragment-ougalurette
p315
aV/fr/mmorpg/encyclopedie/ressources/11519-oreille-gobosteur
p316
aV/fr/mmorpg/encyclopedie/ressources/11920-oreille-fleuro
p317
aV/fr/mmorpg/encyclopedie/ressources/14695-essence-bworker
p318
aV/fr/mmorpg/encyclopedie/ressources/16994-nahuatl
p319
aV/fr/mmorpg/encyclopedie/ressources/17245-fragment-carte-guerrier-k-o-4-5
p320
aV/fr/mmorpg/encyclopedie/ressources/11882-queue-yomi-givrefoux
p321
aV/fr/mmorpg/encyclopedie/ressources/11921-queue-wolvero
p322
aV/fr/mmorpg/encyclopedie/ressources/14696-essence-ougah
p323
aV/fr/mmorpg/encyclopedie/ressources/15480-fragment-carte-dremoan-1-5
p324
aV/fr/mmorpg/encyclopedie/ressources/16469-tanche
p325
aV/fr/mmorpg/encyclopedie/ressources/17246-fragment-carte-guerrier-k-o-5-5
p326
aV/fr/mmorpg/encyclopedie/ressources/11179-clef-antre-korriandre
p327
aV/fr/mmorpg/encyclopedie/ressources/11890-volve-fongeur
p328
aV/fr/mmorpg/encyclopedie/ressources/11922-manubrium-wolvero
p329
aV/fr/mmorpg/encyclopedie/ressources/15481-fragment-carte-dremoan-2-5
p330
aV/fr/mmorpg/encyclopedie/ressources/16390-mandragorgonzola
p331
aV/fr/mmorpg/encyclopedie/ressources/17247-carte-guerrier-k-o
p332
aV/fr/mmorpg/encyclopedie/ressources/9247-clef-donjon-fungus
p333
aV/fr/mmorpg/encyclopedie/ressources/9278-lamelle-champbis
p334
aV/fr/mmorpg/encyclopedie/ressources/9401-peau-bworker
p335
aV/fr/mmorpg/encyclopedie/ressources/11891-ecorce-abrazif
p336
aV/fr/mmorpg/encyclopedie/ressources/15451-sang-toxoliath
p337
aV/fr/mmorpg/encyclopedie/ressources/15482-fragment-carte-dremoan-3-5
p338
aV/fr/mmorpg/encyclopedie/ressources/17116-epaulette-massive-k-o
p339
aV/fr/mmorpg/encyclopedie/ressources/11520-patte-gobosteur
p340
aV/fr/mmorpg/encyclopedie/ressources/11885-lamelle-dramanite
p341
aV/fr/mmorpg/encyclopedie/ressources/11892-racine-abrazif
p342
aV/fr/mmorpg/encyclopedie/ressources/7033-dolomite
p343
aV/fr/mmorpg/encyclopedie/ressources/15452-patte-scoliopode
p344
aV/fr/mmorpg/encyclopedie/ressources/15476-clef-cave-toxoliath
p345
aV/fr/mmorpg/encyclopedie/ressources/15483-fragment-carte-dremoan-4-5
p346
aV/fr/mmorpg/encyclopedie/ressources/15415-chitine-necrotique
p347
aV/fr/mmorpg/encyclopedie/ressources/15453-aile-puceronde
p348
aV/fr/mmorpg/encyclopedie/ressources/15484-fragment-carte-dremoan-5-5
p349
aV/fr/mmorpg/encyclopedie/ressources/16456-millet
p350
aV/fr/mmorpg/encyclopedie/ressources/16470-tanche-hantee
p351
aV/fr/mmorpg/encyclopedie/ressources/17156-viande-gatee
p352
aV/fr/mmorpg/encyclopedie/ressources/11886-oeil-dramanite
p353
aV/fr/mmorpg/encyclopedie/ressources/11893-lamelle-merulette
p354
aV/fr/mmorpg/encyclopedie/ressources/6884-clef-donjon-bworker
p355
aV/fr/mmorpg/encyclopedie/ressources/15454-pince-lucrane
p356
aV/fr/mmorpg/encyclopedie/ressources/15485-sporme-dremoan
p357
aV/fr/mmorpg/encyclopedie/ressources/16457-millet-zime
p358
aV/fr/mmorpg/encyclopedie/ressources/17157-bidoche-gatee
p359
aV/fr/mmorpg/encyclopedie/ressources/470-bois-orme
p360
aV/fr/mmorpg/encyclopedie/ressources/11887-oreille-fistulor
p361
aV/fr/mmorpg/encyclopedie/ressources/11894-pedoncule-merulette
p362
aV/fr/mmorpg/encyclopedie/ressources/11919-oeil-fleuro
p363
aV/fr/mmorpg/encyclopedie/ressources/11933-vomer-aperiglours
p364
aV/fr/mmorpg/encyclopedie/ressources/12152-clef-maison-papa-nowel
p365
aV/fr/mmorpg/encyclopedie/ressources/7035-pyrute
p366
aV/fr/mmorpg/encyclopedie/ressources/11888-volve-fistulor
p367
aV/fr/mmorpg/encyclopedie/ressources/11895-patte-korriandre
p368
aV/fr/mmorpg/encyclopedie/ressources/11934-oreille-aperiglours
p369
aV/fr/mmorpg/encyclopedie/ressources/13156-oeil-ougah
p370
aV/fr/mmorpg/encyclopedie/ressources/15455-venin-eperfide
p371
aV/fr/mmorpg/encyclopedie/ressources/15479-carte-dremoan
p372
aV/fr/mmorpg/encyclopedie/ressources/15703-essence-toxoliath
p373
aV/fr/mmorpg/encyclopedie/ressources/17242-fragment-carte-guerrier-k-o-1-5
p374
aV/fr/mmorpg/encyclopedie/ressources/13746-boulon-cybwork
p375
aV/fr/mmorpg/encyclopedie/ressources/13747-calecon-cybwork
p376
aV/fr/mmorpg/encyclopedie/ressources/14977-bitte-amarrage
p377
aV/fr/mmorpg/encyclopedie/ressources/9269-langue-champodonte
p378
aV/fr/mmorpg/encyclopedie/ressources/16862-sak-magistrale
p379
aV/fr/mmorpg/encyclopedie/ressources/11331-pierre-mofette
p380
aV/fr/mmorpg/encyclopedie/ressources/12435-poudre-venerable
p381
aV/fr/mmorpg/encyclopedie/ressources/16420-potion-glandage
p382
aV/fr/mmorpg/encyclopedie/ressources/11332-tuf-mofette
p383
aV/fr/mmorpg/encyclopedie/ressources/12443-flaque-venerable
p384
aV/fr/mmorpg/encyclopedie/ressources/12451-croc-krokille
p385
aV/fr/mmorpg/encyclopedie/ressources/13740-bandeau-troue-terre
p386
aV/fr/mmorpg/encyclopedie/ressources/11327-coeur-crapeur
p387
aV/fr/mmorpg/encyclopedie/ressources/11328-oeuf-crapeur
p388
aV/fr/mmorpg/encyclopedie/ressources/12439-cendres-venerables
p389
aV/fr/mmorpg/encyclopedie/ressources/13742-bandeau-troue-eau
p390
aV/fr/mmorpg/encyclopedie/ressources/12447-fumee-venerable
p391
aV/fr/mmorpg/encyclopedie/ressources/13743-calecon-bleu
p392
aV/fr/mmorpg/encyclopedie/ressources/13744-bandeau-troue-air
p393
aV/fr/mmorpg/encyclopedie/ressources/13738-bandeau-troue-feu
p394
aV/fr/mmorpg/encyclopedie/ressources/13745-calecon-blanc
p395
aV/fr/mmorpg/encyclopedie/ressources/9267-trompe-tromperelle
p396
aV/fr/mmorpg/encyclopedie/ressources/13736-furoncle-mama-bwork
p397
aV/fr/mmorpg/encyclopedie/ressources/16985-teleb-magistrale
p398
aV/fr/mmorpg/encyclopedie/ressources/9263-ecorce-champaknyde
p399
aV/fr/mmorpg/encyclopedie/ressources/15735-essence-xlii
p400
aV/fr/mmorpg/encyclopedie/ressources/16923-seve-bambou-sombre
p401
aV/fr/mmorpg/encyclopedie/ressources/11323-pierre-atomystique
p402
aV/fr/mmorpg/encyclopedie/ressources/11330-artefact-fumrirolle
p403
aV/fr/mmorpg/encyclopedie/ressources/16467-morue
p404
aV/fr/mmorpg/encyclopedie/ressources/11324-tephra-atomystique
p405
aV/fr/mmorpg/encyclopedie/ressources/15807-clef-horologium-xlii
p406
aV/fr/mmorpg/encyclopedie/ressources/16468-morue-barbue
p407
aV/fr/mmorpg/encyclopedie/ressources/15721-corne-xlii
p408
aV/fr/mmorpg/encyclopedie/ressources/16887-binar
p409
aV/fr/mmorpg/encyclopedie/ressources/11178-clef-taniere-givrefoux
p410
aV/fr/mmorpg/encyclopedie/ressources/7016-bois-bambou-sombre
p411
aV/fr/mmorpg/encyclopedie/ressources/15722-dent-trezz
p412
aV/fr/mmorpg/encyclopedie/ressources/15723-peau-vindeux
p413
aV/fr/mmorpg/encyclopedie/ressources/17154-viande-maigre
p414
aV/fr/mmorpg/encyclopedie/ressources/11341-laine-tengu-givrefoux
p415
aV/fr/mmorpg/encyclopedie/ressources/15724-pagne-trantroa
p416
aV/fr/mmorpg/encyclopedie/ressources/17155-bidoche-maigre
p417
aV/fr/mmorpg/encyclopedie/ressources/11342-cuir-tengu-givrefoux
p418
aV/fr/mmorpg/encyclopedie/ressources/11329-pierre-fumrirolle
p419
aV/fr/mmorpg/encyclopedie/ressources/15725-barbe-seith
p420
aV/fr/mmorpg/encyclopedie/ressources/15726-touffe-cheveux-soissanth
p421
aV/fr/mmorpg/encyclopedie/ressources/15810-poils-hordemon
p422
aV/fr/mmorpg/encyclopedie/ressources/14692-essence-tengu-givrefoux
p423
aV/fr/mmorpg/encyclopedie/ressources/16874-boble-magistrale
p424
aV/fr/mmorpg/encyclopedie/ressources/11322-scapula-ben-ripate
p425
aV/fr/mmorpg/encyclopedie/ressources/11325-residu-solfatare
p426
aV/fr/mmorpg/encyclopedie/ressources/11326-ulna-solfatare
p427
aV/fr/mmorpg/encyclopedie/ressources/16858-dagob-magistrale
p428
aV/fr/mmorpg/encyclopedie/ressources/11321-poil-ben-ripate
p429
aV/fr/mmorpg/encyclopedie/ressources/16951-korria
p430
aV/fr/mmorpg/encyclopedie/ressources/16886-djim
p431
aV/fr/mmorpg/encyclopedie/ressources/13164-sphenoide-kimbo
p432
aV/fr/mmorpg/encyclopedie/ressources/8410-femur-minotot
p433
aV/fr/mmorpg/encyclopedie/ressources/8977-clef-canopee-kimbo
p434
aV/fr/mmorpg/encyclopedie/ressources/472-bois-charme
p435
aV/fr/mmorpg/encyclopedie/ressources/16497-planche-pain
p436
aV/fr/mmorpg/encyclopedie/ressources/17250-fragment-carte-anatak-2-5
p437
aV/fr/mmorpg/encyclopedie/ressources/17616-poil-chacrebleu
p438
aV/fr/mmorpg/encyclopedie/ressources/13172-casque-machouille
p439
aV/fr/mmorpg/encyclopedie/ressources/14290-alliogemme
p440
aV/fr/mmorpg/encyclopedie/ressources/15039-poils-kanigroula
p441
aV/fr/mmorpg/encyclopedie/ressources/17251-fragment-carte-anatak-3-5
p442
aV/fr/mmorpg/encyclopedie/ressources/17617-collier-chakichan
p443
aV/fr/mmorpg/encyclopedie/ressources/11177-clef-hypogee-obsidiantre
p444
aV/fr/mmorpg/encyclopedie/ressources/6904-protection-usagee-bworker
p445
aV/fr/mmorpg/encyclopedie/ressources/17252-fragment-carte-anatak-4-5
p446
aV/fr/mmorpg/encyclopedie/ressources/17618-oreille-chargus
p447
aV/fr/mmorpg/encyclopedie/ressources/15093-clef-grotte-kanigroula
p448
aV/fr/mmorpg/encyclopedie/ressources/17152-viande-fraiche
p449
aV/fr/mmorpg/encyclopedie/ressources/17253-fragment-carte-anatak-5-5
p450
aV/fr/mmorpg/encyclopedie/ressources/17619-dent-chakaroze
p451
aV/fr/mmorpg/encyclopedie/ressources/14689-essence-kimbo
p452
aV/fr/mmorpg/encyclopedie/ressources/8406-laine-minotot
p453
aV/fr/mmorpg/encyclopedie/ressources/13168-ethmoide-minotot
p454
aV/fr/mmorpg/encyclopedie/ressources/8407-cuir-minotot
p455
aV/fr/mmorpg/encyclopedie/ressources/313-or
p456
aV/fr/mmorpg/encyclopedie/ressources/1792-bar-iton
p457
aV/fr/mmorpg/encyclopedie/ressources/17115-scalp-anatak
p458
aV/fr/mmorpg/encyclopedie/ressources/17153-bidoche-fraiche
p459
aV/fr/mmorpg/encyclopedie/ressources/17254-carte-anatak
p460
aV/fr/mmorpg/encyclopedie/ressources/1779-bar-rikain
p461
aV/fr/mmorpg/encyclopedie/ressources/15040-queue-kanigroula
p462
aV/fr/mmorpg/encyclopedie/ressources/15095-essence-kanigroula
p463
aV/fr/mmorpg/encyclopedie/ressources/16454-mais
p464
aV/fr/mmorpg/encyclopedie/ressources/17736-essence-ush
p465
aV/fr/mmorpg/encyclopedie/ressources/8307-clef-salle-minotot
p466
aV/fr/mmorpg/encyclopedie/ressources/8408-sabot-minotot
p467
aV/fr/mmorpg/encyclopedie/ressources/2526-faux-maitre-corbac
p468
aV/fr/mmorpg/encyclopedie/ressources/16455-maisseho
p469
aV/fr/mmorpg/encyclopedie/ressources/17249-fragment-carte-anatak-1-5
p470
aV/fr/mmorpg/encyclopedie/ressources/8409-corne-minotot
p471
aV/fr/mmorpg/encyclopedie/ressources/8795-perruque-kimbo
p472
aV/fr/mmorpg/encyclopedie/ressources/14690-essence-minotot
p473
aV/fr/mmorpg/encyclopedie/ressources/8789-chaussette-kimbo
p474
aV/fr/mmorpg/encyclopedie/ressources/8998-pierre-precieuse-kimbo
p475
aV/fr/mmorpg/encyclopedie/ressources/17620-moustache-ush
p476
aV/fr/mmorpg/encyclopedie/ressources/17714-jeton-chazino-matougarous
p477
aV/fr/mmorpg/encyclopedie/ressources/14691-essence-obsidiantre
p478
aV/fr/mmorpg/encyclopedie/ressources/16387-belladone
p479
aV/fr/mmorpg/encyclopedie/ressources/16388-belladonzelle
p480
aV/fr/mmorpg/encyclopedie/ressources/16388-belladonzelle
p481
aV/fr/mmorpg/encyclopedie/ressources/16458-substrat-foret-primaire
p482
aV/fr/mmorpg/encyclopedie/ressources/16922-seve-charme
p483
aV/fr/mmorpg/encyclopedie/ressources/17615-queue-chasquatch
p484
aV/fr/mmorpg/encyclopedie/ressources/16998-pikmi-magistrale
p485
aV/fr/mmorpg/encyclopedie/ressources/15041-tignasse-kanihilan
p486
aV/fr/mmorpg/encyclopedie/ressources/15042-peau-kanihilan
p487
aV/fr/mmorpg/encyclopedie/ressources/8796-noeud-abrakleur-clair
p488
aV/fr/mmorpg/encyclopedie/ressources/15043-cheveux-alhyene
p489
aV/fr/mmorpg/encyclopedie/ressources/8797-souche-abrakleur-clair
p490
aV/fr/mmorpg/encyclopedie/ressources/15044-frimousse-alhyene
p491
aV/fr/mmorpg/encyclopedie/ressources/15052-boucle-orfelin
p492
aV/fr/mmorpg/encyclopedie/ressources/11317-coquille-harpirate
p493
aV/fr/mmorpg/encyclopedie/ressources/11318-ecaille-harpirate
p494
aV/fr/mmorpg/encyclopedie/ressources/11319-etoffe-vigie-pirate
p495
aV/fr/mmorpg/encyclopedie/ressources/15049-oreille-kaniblou
p496
aV/fr/mmorpg/encyclopedie/ressources/16850-horize-magistrale
p497
aV/fr/mmorpg/encyclopedie/ressources/15050-etoffe-kaniblou
p498
aV/fr/mmorpg/encyclopedie/ressources/10031-teinture-orange-sanguine
p499
aV/fr/mmorpg/encyclopedie/ressources/11320-oeil-vigie-pirate
p500
aV/fr/mmorpg/encyclopedie/ressources/12734-potion-alteration
p501
aV/fr/mmorpg/encyclopedie/ressources/13341-patte-gardienne-egouts
p502
aV/fr/mmorpg/encyclopedie/ressources/15051-criniere-orfelin
p503
aV/fr/mmorpg/encyclopedie/ressources/15045-griffe-felygiene
p504
aV/fr/mmorpg/encyclopedie/ressources/15046-canine-felygiene
p505
aV/fr/mmorpg/encyclopedie/ressources/15047-chaine-panthegros
p506
aV/fr/mmorpg/encyclopedie/ressources/15048-boule-panthegros
p507
aV/fr/mmorpg/encyclopedie/ressources/8793-coquille-kaskargo
p508
aV/fr/mmorpg/encyclopedie/ressources/8832-bave-kaskargo
p509
aV/fr/mmorpg/encyclopedie/ressources/8792-coco-bitouf-aerien
p510
aV/fr/mmorpg/encyclopedie/ressources/16958-hulhu-magistrale
p511
aV/fr/mmorpg/encyclopedie/ressources/8788-croupion-bitouf-aerien
p512
aV/fr/mmorpg/encyclopedie/ressources/11315-mat-fantomat
p513
aV/fr/mmorpg/encyclopedie/ressources/17150-viande-brousse
p514
aV/fr/mmorpg/encyclopedie/ressources/11176-clef-grolandais-violent
p515
aV/fr/mmorpg/encyclopedie/ressources/11316-dent-fantomat
p516
aV/fr/mmorpg/encyclopedie/ressources/13367-galet-solaire
p517
aV/fr/mmorpg/encyclopedie/ressources/14687-essence-ben-ripate
p518
aV/fr/mmorpg/encyclopedie/ressources/15279-clef-galerie-phossile
p519
aV/fr/mmorpg/encyclopedie/ressources/7292-poils-maho-firefoux
p520
aV/fr/mmorpg/encyclopedie/ressources/14688-essence-sphincter-cell
p521
aV/fr/mmorpg/encyclopedie/ressources/1853-requin-marche-libre
p522
aV/fr/mmorpg/encyclopedie/ressources/17151-bidoche-brousse
p523
aV/fr/mmorpg/encyclopedie/ressources/9391-fleur-blop-multicolore-royal
p524
aV/fr/mmorpg/encyclopedie/ressources/12467-epine-dorsale-grozilla
p525
aV/fr/mmorpg/encyclopedie/ressources/15170-defense-phossile
p526
aV/fr/mmorpg/encyclopedie/ressources/17114-poils-zatoishwan
p527
aV/fr/mmorpg/encyclopedie/ressources/17260-fragment-carte-zatoishwan-4-5
p528
aV/fr/mmorpg/encyclopedie/ressources/11636-trousseau-clefs-ben-ripate
p529
aV/fr/mmorpg/encyclopedie/ressources/12468-bezoard-ardent-grozilla
p530
aV/fr/mmorpg/encyclopedie/ressources/8476-premiere-clef-donjon-sphincter
p531
aV/fr/mmorpg/encyclopedie/ressources/8490-femur-sphincter-cell
p532
aV/fr/mmorpg/encyclopedie/ressources/8786-tresse-poolay
p533
aV/fr/mmorpg/encyclopedie/ressources/15171-griffe-phorreveur
p534
aV/fr/mmorpg/encyclopedie/ressources/17261-fragment-carte-zatoishwan-5-5
p535
aV/fr/mmorpg/encyclopedie/ressources/17564-clef-plateau-ush
p536
aV/fr/mmorpg/encyclopedie/ressources/7304-etoffe-maho-firefoux
p537
aV/fr/mmorpg/encyclopedie/ressources/8477-deuxieme-clef-donjon-sphincter
p538
aV/fr/mmorpg/encyclopedie/ressources/8787-cloaque-poolay
p539
aV/fr/mmorpg/encyclopedie/ressources/12351-clef-donjon-rats-chateau-amakna
p540
aV/fr/mmorpg/encyclopedie/ressources/12863-ratelier-oogie-betty
p541
aV/fr/mmorpg/encyclopedie/ressources/13981-alliage-ivre
p542
aV/fr/mmorpg/encyclopedie/ressources/15172-peau-metaphorreur
p543
aV/fr/mmorpg/encyclopedie/ressources/17262-carte-zatoishwan
p544
aV/fr/mmorpg/encyclopedie/ressources/7026-aigue-marine
p545
aV/fr/mmorpg/encyclopedie/ressources/7925-bois-kaliptus
p546
aV/fr/mmorpg/encyclopedie/ressources/15173-corne-pere-phorreur
p547
aV/fr/mmorpg/encyclopedie/ressources/15229-dent-phorreur
p548
aV/fr/mmorpg/encyclopedie/ressources/15274-essence-phossile
p549
aV/fr/mmorpg/encyclopedie/ressources/15174-oeil-phozami
p550
aV/fr/mmorpg/encyclopedie/ressources/17257-fragment-carte-zatoishwan-1-5
p551
aV/fr/mmorpg/encyclopedie/ressources/602-requin-marteau-faucille
p552
aV/fr/mmorpg/encyclopedie/ressources/10744-hormone-chauffe-souris
p553
aV/fr/mmorpg/encyclopedie/ressources/12740-galet-brasillant
p554
aV/fr/mmorpg/encyclopedie/ressources/12834-patron-nowel-cauchemardesque
p555
aV/fr/mmorpg/encyclopedie/ressources/7298-peau-maho-firefoux
p556
aV/fr/mmorpg/encyclopedie/ressources/8493-peau-sphincter-cell
p557
aV/fr/mmorpg/encyclopedie/ressources/15175-queue-mere-veilleuse
p558
aV/fr/mmorpg/encyclopedie/ressources/16921-seve-kaliptus
p559
aV/fr/mmorpg/encyclopedie/ressources/17258-fragment-carte-zatoishwan-2-5
p560
aV/fr/mmorpg/encyclopedie/ressources/11313-huile-fantimonier
p561
aV/fr/mmorpg/encyclopedie/ressources/13155-oreille-sphincter-cell
p562
aV/fr/mmorpg/encyclopedie/ressources/8487-etoffe-sphincter-cell
p563
aV/fr/mmorpg/encyclopedie/ressources/9389-feuille-blop-multicolore-royal
p564
aV/fr/mmorpg/encyclopedie/ressources/11314-coquille-fantimonier
p565
aV/fr/mmorpg/encyclopedie/ressources/13062-galet-acajou
p566
aV/fr/mmorpg/encyclopedie/ressources/17259-fragment-carte-zatoishwan-3-5
p567
aV/fr/mmorpg/encyclopedie/ressources/17569-griffe-matougarou
p568
aV/fr/mmorpg/encyclopedie/ressources/8790-rembourrage-meupette
p569
aV/fr/mmorpg/encyclopedie/ressources/8791-etoffe-meupette
p570
aV/fr/mmorpg/encyclopedie/ressources/16969-cafra-majeure
p571
aV/fr/mmorpg/encyclopedie/ressources/16846-butor-magistrale
p572
aV/fr/mmorpg/encyclopedie/ressources/11309-pince-fancrome
p573
aV/fr/mmorpg/encyclopedie/ressources/11232-plume-mansot-royal
p574
aV/fr/mmorpg/encyclopedie/ressources/11310-corde-fancrome
p575
aV/fr/mmorpg/encyclopedie/ressources/11311-bouee-fantomalamere
p576
aV/fr/mmorpg/encyclopedie/ressources/11312-queue-fantomalamere
p577
aV/fr/mmorpg/encyclopedie/ressources/16989-peho-magistrale
p578
aV/fr/mmorpg/encyclopedie/ressources/16966-kyoub-magistrale
p579
aV/fr/mmorpg/encyclopedie/ressources/16884-zaihn-majeure
p580
aV/fr/mmorpg/encyclopedie/ressources/11175-clef-mansot
p581
aV/fr/mmorpg/encyclopedie/ressources/13979-coeur-gele
p582
aV/fr/mmorpg/encyclopedie/ressources/14686-essence-mansot-royal
p583
aV/fr/mmorpg/encyclopedie/ressources/6490-ambre-chene-mou
p584
aV/fr/mmorpg/encyclopedie/ressources/16466-glotte
p585
aV/fr/mmorpg/encyclopedie/ressources/8916-ambre-tynril
p586
aV/fr/mmorpg/encyclopedie/ressources/13166-calice-tynril
p587
aV/fr/mmorpg/encyclopedie/ressources/8380-etoffe-peki
p588
aV/fr/mmorpg/encyclopedie/ressources/8436-clef-clairiere-chene-mou
p589
aV/fr/mmorpg/encyclopedie/ressources/8777-pistil-tynril
p590
aV/fr/mmorpg/encyclopedie/ressources/6486-ecorce-chene-mou
p591
aV/fr/mmorpg/encyclopedie/ressources/8381-queue-magique-peki
p592
aV/fr/mmorpg/encyclopedie/ressources/16870-critus
p593
aV/fr/mmorpg/encyclopedie/ressources/6487-bourgeon-chene-mou
p594
aV/fr/mmorpg/encyclopedie/ressources/6488-racine-chene-mou
p595
aV/fr/mmorpg/encyclopedie/ressources/446-bauxite
p596
aV/fr/mmorpg/encyclopedie/ressources/8251-poil-peki
p597
aV/fr/mmorpg/encyclopedie/ressources/8770-ecorce-tynril
p598
aV/fr/mmorpg/encyclopedie/ressources/13169-triquetrum-maitre-pandore
p599
aV/fr/mmorpg/encyclopedie/ressources/6458-kobalite
p600
aV/fr/mmorpg/encyclopedie/ressources/6489-bois-chene-mou
p601
aV/fr/mmorpg/encyclopedie/ressources/7312-clef-donjon-firefoux
p602
aV/fr/mmorpg/encyclopedie/ressources/8997-peau-laceree-tynril
p603
aV/fr/mmorpg/encyclopedie/ressources/16208-fragment-rubis-fertile
p604
aV/fr/mmorpg/encyclopedie/ressources/16385-ginseng
p605
aV/fr/mmorpg/encyclopedie/ressources/17148-viande-maceree
p606
aV/fr/mmorpg/encyclopedie/ressources/14683-essence-peki-peki
p607
aV/fr/mmorpg/encyclopedie/ressources/16386-ginsengoku
p608
aV/fr/mmorpg/encyclopedie/ressources/16920-seve-ebene
p609
aV/fr/mmorpg/encyclopedie/ressources/17149-bidoche-maceree
p610
aV/fr/mmorpg/encyclopedie/ressources/12733-substrat-foret
p611
aV/fr/mmorpg/encyclopedie/ressources/14684-essence-chene-mou
p612
aV/fr/mmorpg/encyclopedie/ressources/425-chanvre
p613
aV/fr/mmorpg/encyclopedie/ressources/449-bois-ebene
p614
aV/fr/mmorpg/encyclopedie/ressources/8975-clef-laboratoire-tynril
p615
aV/fr/mmorpg/encyclopedie/ressources/14685-essence-tynril
p616
aV/fr/mmorpg/encyclopedie/ressources/16465-lotte
p617
aV/fr/mmorpg/encyclopedie/ressources/16496-planche-gravure
p618
aV/fr/mmorpg/encyclopedie/ressources/13493-queue-rat-pine
p619
aV/fr/mmorpg/encyclopedie/ressources/16214-pilule-rat-pine
p620
aV/fr/mmorpg/encyclopedie/ressources/16163-oeil-branche-soignante
p621
aV/fr/mmorpg/encyclopedie/ressources/16161-doigt-branche-invocatrice
p622
aV/fr/mmorpg/encyclopedie/ressources/13529-feuille-branche-soignante
p623
aV/fr/mmorpg/encyclopedie/ressources/16162-oeil-branche-invocatrice
p624
aV/fr/mmorpg/encyclopedie/ressources/16993-domo-magistrale
p625
aV/fr/mmorpg/encyclopedie/ressources/8784-talon-achille-abrakleur-sombre
p626
aV/fr/mmorpg/encyclopedie/ressources/8785-graine-abrakleur-sombre
p627
aV/fr/mmorpg/encyclopedie/ressources/16861-sak-majeure
p628
aV/fr/mmorpg/encyclopedie/ressources/8776-coco-bitouf-sombre
p629
aV/fr/mmorpg/encyclopedie/ressources/8783-amygdales-bitouf-sombre
p630
aV/fr/mmorpg/encyclopedie/ressources/16962-yoche-magistrale
p631
aV/fr/mmorpg/encyclopedie/ressources/11230-queue-fu-mansot
p632
aV/fr/mmorpg/encyclopedie/ressources/8778-etamine-floribonde
p633
aV/fr/mmorpg/encyclopedie/ressources/11231-oreille-fu-mansot
p634
aV/fr/mmorpg/encyclopedie/ressources/11248-oreille-kaniglou
p635
aV/fr/mmorpg/encyclopedie/ressources/11249-etoffe-kaniglou
p636
aV/fr/mmorpg/encyclopedie/ressources/11233-oeuf-mansot-royal
p637
aV/fr/mmorpg/encyclopedie/ressources/8771-ecorce-floribonde
p638
aV/fr/mmorpg/encyclopedie/ressources/16419-potion-ancetres
p639
aV/fr/mmorpg/encyclopedie/ressources/16159-patte-abrakne-irascible
p640
aV/fr/mmorpg/encyclopedie/ressources/16213-oeil-rat-masseur
p641
aV/fr/mmorpg/encyclopedie/ressources/16160-mandibule-abrakne-irascible
p642
aV/fr/mmorpg/encyclopedie/ressources/8774-ecorce-fecorce
p643
aV/fr/mmorpg/encyclopedie/ressources/8781-calice-fecorce
p644
aV/fr/mmorpg/encyclopedie/ressources/8779-carpelle-brouture
p645
aV/fr/mmorpg/encyclopedie/ressources/8772-ecorce-brouture
p646
aV/fr/mmorpg/encyclopedie/ressources/16976-petunia-magistrale
p647
aV/fr/mmorpg/encyclopedie/ressources/8773-ecorce-nerbe
p648
aV/fr/mmorpg/encyclopedie/ressources/8780-sepale-nerbe
p649
aV/fr/mmorpg/encyclopedie/ressources/8775-ecorce-chiendent
p650
aV/fr/mmorpg/encyclopedie/ressources/8782-bractee-chiendent
p651
aV/fr/mmorpg/encyclopedie/ressources/7301-peau-leopardo
p652
aV/fr/mmorpg/encyclopedie/ressources/7343-poils-leopardo
p653
aV/fr/mmorpg/encyclopedie/ressources/16984-teleb-majeure
p654
aV/fr/mmorpg/encyclopedie/ressources/7284-poils-tanukoui-san
p655
aV/fr/mmorpg/encyclopedie/ressources/15362-essence-haute-truche
p656
aV/fr/mmorpg/encyclopedie/ressources/15533-rossignol
p657
aV/fr/mmorpg/encyclopedie/ressources/16156-ambre-abraknyde-sombre-irascible
p658
aV/fr/mmorpg/encyclopedie/ressources/16025-fragment-carte-panteroz-5-5
p659
aV/fr/mmorpg/encyclopedie/ressources/16157-masque-casse-araknotron-irascible
p660
aV/fr/mmorpg/encyclopedie/ressources/11246-oeil-torve-fricochere
p661
aV/fr/mmorpg/encyclopedie/ressources/15394-morceau-tablette-totankama-1-5
p662
aV/fr/mmorpg/encyclopedie/ressources/15457-coeur-capitaine-ekarlatte
p663
aV/fr/mmorpg/encyclopedie/ressources/15534-carte-ali-grothor
p664
aV/fr/mmorpg/encyclopedie/ressources/15541-oeuf-ali-grothor
p665
aV/fr/mmorpg/encyclopedie/ressources/7386-testicules-tanukoui-san
p666
aV/fr/mmorpg/encyclopedie/ressources/11247-oreille-percee-fricochere
p667
aV/fr/mmorpg/encyclopedie/ressources/15162-clef-voliere-haute-truche
p668
aV/fr/mmorpg/encyclopedie/ressources/15395-morceau-tablette-totankama-2-5
p669
aV/fr/mmorpg/encyclopedie/ressources/15458-foulard-milimaitre
p670
aV/fr/mmorpg/encyclopedie/ressources/15535-fragment-carte-ali-grothor-1-5
p671
aV/fr/mmorpg/encyclopedie/ressources/7293-poils-soryo-firefoux
p672
aV/fr/mmorpg/encyclopedie/ressources/16026-fragment-carte-panteroz-4-5
p673
aV/fr/mmorpg/encyclopedie/ressources/16158-arakne-irascible-ecrasee
p674
aV/fr/mmorpg/encyclopedie/ressources/1784-raie-bleue
p675
aV/fr/mmorpg/encyclopedie/ressources/15396-morceau-tablette-totankama-3-5
p676
aV/fr/mmorpg/encyclopedie/ressources/15459-sacoche-kartouche
p677
aV/fr/mmorpg/encyclopedie/ressources/15536-fragment-carte-ali-grothor-2-5
p678
aV/fr/mmorpg/encyclopedie/ressources/16010-parfum-panteroz
p679
aV/fr/mmorpg/encyclopedie/ressources/16027-fragment-carte-panteroz-3-5
p680
aV/fr/mmorpg/encyclopedie/ressources/16041-carte-panteroz
p681
aV/fr/mmorpg/encyclopedie/ressources/16919-seve-noisetier
p682
aV/fr/mmorpg/encyclopedie/ressources/15397-morceau-tablette-totankama-4-5
p683
aV/fr/mmorpg/encyclopedie/ressources/15537-fragment-carte-ali-grothor-3-5
p684
aV/fr/mmorpg/encyclopedie/ressources/16028-fragment-carte-panteroz-2-5
p685
aV/fr/mmorpg/encyclopedie/ressources/17146-viande-persillee
p686
aV/fr/mmorpg/encyclopedie/ressources/7311-clef-donjon-kitsounes
p687
aV/fr/mmorpg/encyclopedie/ressources/15398-morceau-tablette-totankama-5-5
p688
aV/fr/mmorpg/encyclopedie/ressources/15538-fragment-carte-ali-grothor-4-5
p689
aV/fr/mmorpg/encyclopedie/ressources/16029-fragment-carte-panteroz-1-5
p690
aV/fr/mmorpg/encyclopedie/ressources/17147-bidoche-persillee
p691
aV/fr/mmorpg/encyclopedie/ressources/14682-essence-tanukoui-san
p692
aV/fr/mmorpg/encyclopedie/ressources/7305-etoffe-soryo-firefoux
p693
aV/fr/mmorpg/encyclopedie/ressources/15065-paire-boules-haute-truche
p694
aV/fr/mmorpg/encyclopedie/ressources/15539-fragment-carte-ali-grothor-5-5
p695
aV/fr/mmorpg/encyclopedie/ressources/16981-ultram
p696
aV/fr/mmorpg/encyclopedie/ressources/15066-oeuf-haute-truche
p697
aV/fr/mmorpg/encyclopedie/ressources/15460-os-sramourai
p698
aV/fr/mmorpg/encyclopedie/ressources/15477-clef-ring-capitaine-ekarlatte
p699
aV/fr/mmorpg/encyclopedie/ressources/1788-raie-farle
p700
aV/fr/mmorpg/encyclopedie/ressources/11228-arete-geante-shamansot
p701
aV/fr/mmorpg/encyclopedie/ressources/13503-calumet-zoth
p702
aV/fr/mmorpg/encyclopedie/ressources/15391-tablette-totankama
p703
aV/fr/mmorpg/encyclopedie/ressources/15416-insigne-malveilleur
p704
aV/fr/mmorpg/encyclopedie/ressources/15461-bandelette-tromblion
p705
aV/fr/mmorpg/encyclopedie/ressources/15531-crochet-rouille
p706
aV/fr/mmorpg/encyclopedie/ressources/16488-bois-noisetier
p707
aV/fr/mmorpg/encyclopedie/ressources/11229-poil-barbe-shamansot
p708
aV/fr/mmorpg/encyclopedie/ressources/13528-bourgeon-abraknyde-sombre-irascible
p709
aV/fr/mmorpg/encyclopedie/ressources/7299-peau-soryo-firefoux
p710
aV/fr/mmorpg/encyclopedie/ressources/7283-peau-tanukoui-san
p711
aV/fr/mmorpg/encyclopedie/ressources/15462-slip-elsoummo
p712
aV/fr/mmorpg/encyclopedie/ressources/16873-boble-majeure
p713
aV/fr/mmorpg/encyclopedie/ressources/16869-corrode
p714
aV/fr/mmorpg/encyclopedie/ressources/16668-nyoro-magistrale
p715
aV/fr/mmorpg/encyclopedie/ressources/13733-boulier-zoth
p716
aV/fr/mmorpg/encyclopedie/ressources/11221-laine-royalmouth
p717
aV/fr/mmorpg/encyclopedie/ressources/11548-deuxieme-fragment-terre
p718
aV/fr/mmorpg/encyclopedie/ressources/11555-premier-fragment-air
p719
aV/fr/mmorpg/encyclopedie/ressources/11549-troisieme-fragment-terre
p720
aV/fr/mmorpg/encyclopedie/ressources/11556-deuxieme-fragment-air
p721
aV/fr/mmorpg/encyclopedie/ressources/12434-poudre-mature
p722
aV/fr/mmorpg/encyclopedie/ressources/11557-troisieme-fragment-air
p723
aV/fr/mmorpg/encyclopedie/ressources/12442-flaque-mature
p724
aV/fr/mmorpg/encyclopedie/ressources/11558-quatrieme-fragment-air
p725
aV/fr/mmorpg/encyclopedie/ressources/12450-coquille-krokille
p726
aV/fr/mmorpg/encyclopedie/ressources/12862-antennes-cafard-fadet
p727
aV/fr/mmorpg/encyclopedie/ressources/16857-dagob-majeure
p728
aV/fr/mmorpg/encyclopedie/ressources/11219-queue-royalmouth
p729
aV/fr/mmorpg/encyclopedie/ressources/11226-huile-mamansot
p730
aV/fr/mmorpg/encyclopedie/ressources/11543-premier-fragment-feu
p731
aV/fr/mmorpg/encyclopedie/ressources/11550-quatrieme-fragment-terre
p732
aV/fr/mmorpg/encyclopedie/ressources/12438-cendres-matures
p733
aV/fr/mmorpg/encyclopedie/ressources/11227-duvet-mamansot
p734
aV/fr/mmorpg/encyclopedie/ressources/11544-deuxieme-fragment-feu
p735
aV/fr/mmorpg/encyclopedie/ressources/11551-premier-fragment-eau
p736
aV/fr/mmorpg/encyclopedie/ressources/12446-fumee-mature
p737
aV/fr/mmorpg/encyclopedie/ressources/11242-defense-sanglacier
p738
aV/fr/mmorpg/encyclopedie/ressources/11545-troisieme-fragment-feu
p739
aV/fr/mmorpg/encyclopedie/ressources/11552-deuxieme-fragment-eau
p740
aV/fr/mmorpg/encyclopedie/ressources/12430-boue-mature
p741
aV/fr/mmorpg/encyclopedie/ressources/11243-cuir-sanglacier
p742
aV/fr/mmorpg/encyclopedie/ressources/11546-quatrieme-fragment-feu
p743
aV/fr/mmorpg/encyclopedie/ressources/11553-troisieme-fragment-eau
p744
aV/fr/mmorpg/encyclopedie/ressources/12431-boue-venerable
p745
aV/fr/mmorpg/encyclopedie/ressources/11547-premier-fragment-terre
p746
aV/fr/mmorpg/encyclopedie/ressources/11554-quatrieme-fragment-eau
p747
aV/fr/mmorpg/encyclopedie/ressources/8311-poil-gamino
p748
aV/fr/mmorpg/encyclopedie/ressources/14952-pierre-serpiplume
p749
aV/fr/mmorpg/encyclopedie/ressources/8309-plume-serpiplume
p750
aV/fr/mmorpg/encyclopedie/ressources/13504-corne-gamino
p751
aV/fr/mmorpg/encyclopedie/ressources/16867-penitent
p752
aV/fr/mmorpg/encyclopedie/ressources/14279-pierre-precieuse-zoth
p753
aV/fr/mmorpg/encyclopedie/ressources/15067-patte-gruche
p754
aV/fr/mmorpg/encyclopedie/ressources/15068-aile-gruche
p755
aV/fr/mmorpg/encyclopedie/ressources/15069-croupion-truchmuche
p756
aV/fr/mmorpg/encyclopedie/ressources/15070-langue-truchmuche
p757
aV/fr/mmorpg/encyclopedie/ressources/16866-dynamo-magistrale
p758
aV/fr/mmorpg/encyclopedie/ressources/13708-pense-bete-rubise
p759
aV/fr/mmorpg/encyclopedie/ressources/14477-dents-wabbit-vampire
p760
aV/fr/mmorpg/encyclopedie/ressources/14679-essence-tofu-royal
p761
aV/fr/mmorpg/encyclopedie/ressources/7309-clef-pandikazes
p762
aV/fr/mmorpg/encyclopedie/ressources/1680-corne-brulee-minotoror
p763
aV/fr/mmorpg/encyclopedie/ressources/15728-pixel-gromorso
p764
aV/fr/mmorpg/encyclopedie/ressources/15729-pixel-farfacette
p765
aV/fr/mmorpg/encyclopedie/ressources/15736-essence-fraktale
p766
aV/fr/mmorpg/encyclopedie/ressources/15806-clef-megalithe-fraktale
p767
aV/fr/mmorpg/encyclopedie/ressources/13165-duvet-maitre-corbac
p768
aV/fr/mmorpg/encyclopedie/ressources/13709-place-concert-diamantine
p769
aV/fr/mmorpg/encyclopedie/ressources/14478-oeil-wabbit-cephale
p770
aV/fr/mmorpg/encyclopedie/ressources/8365-corne-brisee-crocabulia
p771
aV/fr/mmorpg/encyclopedie/ressources/8404-peau-skeunk
p772
aV/fr/mmorpg/encyclopedie/ressources/14479-cawotte-transgenique
p773
aV/fr/mmorpg/encyclopedie/ressources/8342-clef-sanctuaire-dragoeufs
p774
aV/fr/mmorpg/encyclopedie/ressources/8373-pierre-ignerkocropos-affame
p775
aV/fr/mmorpg/encyclopedie/ressources/8405-poil-skeunk
p776
aV/fr/mmorpg/encyclopedie/ressources/405-malt
p777
aV/fr/mmorpg/encyclopedie/ressources/474-bois-merisier
p778
aV/fr/mmorpg/encyclopedie/ressources/16918-seve-merisier
p779
aV/fr/mmorpg/encyclopedie/ressources/17144-viande-saignante
p780
aV/fr/mmorpg/encyclopedie/ressources/2299-epaulette-dark-vlad
p781
aV/fr/mmorpg/encyclopedie/ressources/350-argent
p782
aV/fr/mmorpg/encyclopedie/ressources/1575-guildalogemme
p783
aV/fr/mmorpg/encyclopedie/ressources/8343-clef-donjon-dragoeufs
p784
aV/fr/mmorpg/encyclopedie/ressources/8367-peau-crocabulia
p785
aV/fr/mmorpg/encyclopedie/ressources/8374-pierre-aqualikros-impitoyable
p786
aV/fr/mmorpg/encyclopedie/ressources/11224-aile-mansobese
p787
aV/fr/mmorpg/encyclopedie/ressources/16212-substrat-fourre
p788
aV/fr/mmorpg/encyclopedie/ressources/17145-bidoche-saignante
p789
aV/fr/mmorpg/encyclopedie/ressources/11225-peau-mansobese
p790
aV/fr/mmorpg/encyclopedie/ressources/13702-dedicace-skeunk-emeraude
p791
aV/fr/mmorpg/encyclopedie/ressources/13980-cuir-onique
p792
aV/fr/mmorpg/encyclopedie/ressources/8142-clef-secrete-tofulailler-royal
p793
aV/fr/mmorpg/encyclopedie/ressources/8313-femur-minotoror
p794
aV/fr/mmorpg/encyclopedie/ressources/8368-dent-crocabulia
p795
aV/fr/mmorpg/encyclopedie/ressources/8375-pierre-terraburkal-perfide
p796
aV/fr/mmorpg/encyclopedie/ressources/8399-poil-maitre-pandore
p797
aV/fr/mmorpg/encyclopedie/ressources/14680-essence-crocabulia
p798
aV/fr/mmorpg/encyclopedie/ressources/15809-symbole-xelomorphe
p799
aV/fr/mmorpg/encyclopedie/ressources/16453-malt-husse
p800
aV/fr/mmorpg/encyclopedie/ressources/2998-laine-minotoror
p801
aV/fr/mmorpg/encyclopedie/ressources/6457-kriptonite
p802
aV/fr/mmorpg/encyclopedie/ressources/7924-clef-labyrinthe-minotoror
p803
aV/fr/mmorpg/encyclopedie/ressources/8073-clef-repaire-skeunk
p804
aV/fr/mmorpg/encyclopedie/ressources/840-poils-minotoror
p805
aV/fr/mmorpg/encyclopedie/ressources/1801-perche
p806
aV/fr/mmorpg/encyclopedie/ressources/2246-couronne-brisee-tofu-royal
p807
aV/fr/mmorpg/encyclopedie/ressources/8376-pierre-aerotrugobur-malveillant
p808
aV/fr/mmorpg/encyclopedie/ressources/8802-tibia-guerrier-zoth
p809
aV/fr/mmorpg/encyclopedie/ressources/9254-clef-antre-blop-multicolore
p810
aV/fr/mmorpg/encyclopedie/ressources/11240-dent-smilomouth
p811
aV/fr/mmorpg/encyclopedie/ressources/13703-epingle-cheveux-saphira
p812
aV/fr/mmorpg/encyclopedie/ressources/14681-essence-skeunk
p813
aV/fr/mmorpg/encyclopedie/ressources/15071-plume-truchideur
p814
aV/fr/mmorpg/encyclopedie/ressources/15730-pixel-brikablak
p815
aV/fr/mmorpg/encyclopedie/ressources/16384-pandouille-trois
p816
aV/fr/mmorpg/encyclopedie/ressources/11241-poil-smilomouth
p817
aV/fr/mmorpg/encyclopedie/ressources/13704-touffe-poils-rubise
p818
aV/fr/mmorpg/encyclopedie/ressources/14675-essence-blop-multicolore-royal
p819
aV/fr/mmorpg/encyclopedie/ressources/8803-rotule-disciple-zoth
p820
aV/fr/mmorpg/encyclopedie/ressources/2247-plume-tofu-royal
p821
aV/fr/mmorpg/encyclopedie/ressources/2999-cuir-minotoror
p822
aV/fr/mmorpg/encyclopedie/ressources/15072-morpion-truchideur
p823
aV/fr/mmorpg/encyclopedie/ressources/15731-pixel-eklatleth
p824
aV/fr/mmorpg/encyclopedie/ressources/16880-hoskar
p825
aV/fr/mmorpg/encyclopedie/ressources/13705-boomerang-abime-diamantine
p826
aV/fr/mmorpg/encyclopedie/ressources/14474-sang-wabbit-garou
p827
aV/fr/mmorpg/encyclopedie/ressources/14676-essence-minotoror
p828
aV/fr/mmorpg/encyclopedie/ressources/15732-pixel-segmantid
p829
aV/fr/mmorpg/encyclopedie/ressources/929-kristalite
p830
aV/fr/mmorpg/encyclopedie/ressources/1803-chaton-perche
p831
aV/fr/mmorpg/encyclopedie/ressources/2666-sabot-minotoror
p832
aV/fr/mmorpg/encyclopedie/ressources/8400-etoffe-maitre-pandore
p833
aV/fr/mmorpg/encyclopedie/ressources/8804-braguette-maitre-zoth
p834
aV/fr/mmorpg/encyclopedie/ressources/14475-feuille-cawotman
p835
aV/fr/mmorpg/encyclopedie/ressources/14677-essence-royalmouth
p836
aV/fr/mmorpg/encyclopedie/ressources/16495-planche-patisserie
p837
aV/fr/mmorpg/encyclopedie/ressources/2667-queue-minotoror
p838
aV/fr/mmorpg/encyclopedie/ressources/13706-journal-intime-emeraude
p839
aV/fr/mmorpg/encyclopedie/ressources/7059-graine-pandouille
p840
aV/fr/mmorpg/encyclopedie/ressources/8401-peau-maitre-pandore
p841
aV/fr/mmorpg/encyclopedie/ressources/8805-mouchoir-gamine-zoth
p842
aV/fr/mmorpg/encyclopedie/ressources/8387-plume-vibrante-tofu-royal
p843
aV/fr/mmorpg/encyclopedie/ressources/8806-ecusson-sergent-zoth
p844
aV/fr/mmorpg/encyclopedie/ressources/11174-clef-serre-royalmouth
p845
aV/fr/mmorpg/encyclopedie/ressources/13707-shampooing-kaliptus-saphira
p846
aV/fr/mmorpg/encyclopedie/ressources/14476-oreilles-wabbit-fluo
p847
aV/fr/mmorpg/encyclopedie/ressources/14678-essence-maitre-pandore
p848
aV/fr/mmorpg/encyclopedie/ressources/15727-pixel-fraktale
p849
aV/fr/mmorpg/encyclopedie/ressources/17273-orbe-regenerant
p850
aV/fr/mmorpg/encyclopedie/ressources/15073-oeil-truchtine
p851
aV/fr/mmorpg/encyclopedie/ressources/15074-glandes-truchtine
p852
aV/fr/mmorpg/encyclopedie/ressources/15076-bec-truchon
p853
aV/fr/mmorpg/encyclopedie/ressources/13499-jouet-gamine-zoth
p854
aV/fr/mmorpg/encyclopedie/ressources/13724-patte-tofu-dodu
p855
aV/fr/mmorpg/encyclopedie/ressources/13725-aile-atrophiee-tofu-dodu
p856
aV/fr/mmorpg/encyclopedie/ressources/11135-queue-boufmouth-legendaire
p857
aV/fr/mmorpg/encyclopedie/ressources/11136-laine-boufmouth-legendaire
p858
aV/fr/mmorpg/encyclopedie/ressources/15075-duvet-truchon
p859
aV/fr/mmorpg/encyclopedie/ressources/16997-pikmi-majeure
p860
aV/fr/mmorpg/encyclopedie/ressources/11238-queue-ecumouth
p861
aV/fr/mmorpg/encyclopedie/ressources/13722-plume-tofubine
p862
aV/fr/mmorpg/encyclopedie/ressources/11222-bec-timansot
p863
aV/fr/mmorpg/encyclopedie/ressources/11239-gland-ecumouth
p864
aV/fr/mmorpg/encyclopedie/ressources/13723-oeuf-tofubine
p865
aV/fr/mmorpg/encyclopedie/ressources/11223-plume-timansot
p866
aV/fr/mmorpg/encyclopedie/ressources/2560-epaulette-trool
p867
aV/fr/mmorpg/encyclopedie/ressources/2561-bracelet-force-trool
p868
aV/fr/mmorpg/encyclopedie/ressources/16849-horize-majeure
p869
aV/fr/mmorpg/encyclopedie/ressources/8515-os-trooll
p870
aV/fr/mmorpg/encyclopedie/ressources/2562-slip-trool
p871
aV/fr/mmorpg/encyclopedie/ressources/1694-laine-trool-furieux
p872
aV/fr/mmorpg/encyclopedie/ressources/2559-criniere-trool
p873
aV/fr/mmorpg/encyclopedie/ressources/13497-griffe-pandikaze-vertige
p874
aV/fr/mmorpg/encyclopedie/ressources/8326-bandelette-mominotor
p875
aV/fr/mmorpg/encyclopedie/ressources/8327-corne-deminoboule
p876
aV/fr/mmorpg/encyclopedie/ressources/16854-bihilete-magistrale
p877
aV/fr/mmorpg/encyclopedie/ressources/14950-langue-kramelehon
p878
aV/fr/mmorpg/encyclopedie/ressources/8328-corne-mominotor
p879
aV/fr/mmorpg/encyclopedie/ressources/14951-corne-scaratos
p880
aV/fr/mmorpg/encyclopedie/ressources/13338-enfumoir-zoth
p881
aV/fr/mmorpg/encyclopedie/ressources/13718-cendres-tofutoflamme
p882
aV/fr/mmorpg/encyclopedie/ressources/13719-plumeau-tofuzmo
p883
aV/fr/mmorpg/encyclopedie/ressources/8314-peau-kramelehon
p884
aV/fr/mmorpg/encyclopedie/ressources/8321-poil-deminoboule
p885
aV/fr/mmorpg/encyclopedie/ressources/8308-carapace-scaratos
p886
aV/fr/mmorpg/encyclopedie/ressources/8322-poil-mominotor
p887
aV/fr/mmorpg/encyclopedie/ressources/13495-crane-aventurier
p888
aV/fr/mmorpg/encyclopedie/ressources/8082-etoffe-fauchalak
p889
aV/fr/mmorpg/encyclopedie/ressources/8323-cuir-deminoboule
p890
aV/fr/mmorpg/encyclopedie/ressources/13720-braise-tofutoflamme
p891
aV/fr/mmorpg/encyclopedie/ressources/8052-peau-maitre-koalak
p892
aV/fr/mmorpg/encyclopedie/ressources/8076-boomerang-maitre-koalak
p893
aV/fr/mmorpg/encyclopedie/ressources/8324-cuir-mominotor
p894
aV/fr/mmorpg/encyclopedie/ressources/13721-croupion-tofuzmo
p895
aV/fr/mmorpg/encyclopedie/ressources/11121-oeil-boufmouth-guerre
p896
aV/fr/mmorpg/encyclopedie/ressources/13700-couche-usagee-warko-violet
p897
aV/fr/mmorpg/encyclopedie/ressources/11122-corne-boufmouth-guerre
p898
aV/fr/mmorpg/encyclopedie/ressources/16957-hulhu-majeure
p899
aV/fr/mmorpg/encyclopedie/ressources/8058-cubitus-momie-koalak
p900
aV/fr/mmorpg/encyclopedie/ressources/8066-poils-barbe-warko-violet
p901
aV/fr/mmorpg/encyclopedie/ressources/7013-bois-bambou
p902
aV/fr/mmorpg/encyclopedie/ressources/8357-corne-dragueuse
p903
aV/fr/mmorpg/encyclopedie/ressources/8364-laniere-cuir-dragoeuf-guerrier
p904
aV/fr/mmorpg/encyclopedie/ressources/8489-dent-rat-blanc
p905
aV/fr/mmorpg/encyclopedie/ressources/17142-viande-sechee
p906
aV/fr/mmorpg/encyclopedie/ressources/17609-patte-pupuce
p907
aV/fr/mmorpg/encyclopedie/ressources/7300-peau-yokai-firefoux
p908
aV/fr/mmorpg/encyclopedie/ressources/8358-protection-dragueuse
p909
aV/fr/mmorpg/encyclopedie/ressources/16917-seve-bambou
p910
aV/fr/mmorpg/encyclopedie/ressources/17143-bidoche-sechee
p911
aV/fr/mmorpg/encyclopedie/ressources/14671-essence-rasboul-majeur
p912
aV/fr/mmorpg/encyclopedie/ressources/8056-femur-koalak-farouche
p913
aV/fr/mmorpg/encyclopedie/ressources/8359-aile-dragoeuf-volant
p914
aV/fr/mmorpg/encyclopedie/ressources/1892-plume-maitre-corbac
p915
aV/fr/mmorpg/encyclopedie/ressources/16863-nekineko
p916
aV/fr/mmorpg/encyclopedie/ressources/17563-clef-miausolee-pounicheur
p917
aV/fr/mmorpg/encyclopedie/ressources/14672-essence-maitre-corbac
p918
aV/fr/mmorpg/encyclopedie/ressources/7294-poils-yokai-firefoux
p919
aV/fr/mmorpg/encyclopedie/ressources/8800-etoffe-zoth
p920
aV/fr/mmorpg/encyclopedie/ressources/14673-essence-rat-blanc
p921
aV/fr/mmorpg/encyclopedie/ressources/17610-oeil-morcac
p922
aV/fr/mmorpg/encyclopedie/ressources/2525-coeur-maitre-corbac
p923
aV/fr/mmorpg/encyclopedie/ressources/14674-essence-rat-noir
p924
aV/fr/mmorpg/encyclopedie/ressources/17611-palpe-pikbul
p925
aV/fr/mmorpg/encyclopedie/ressources/8439-clef-donjon-rats-bonta
p926
aV/fr/mmorpg/encyclopedie/ressources/8491-peau-rat-noir
p927
aV/fr/mmorpg/encyclopedie/ressources/8972-clef-goulet-rasboul
p928
aV/fr/mmorpg/encyclopedie/ressources/8996-peau-rasboul-majeur
p929
aV/fr/mmorpg/encyclopedie/ressources/17612-peau-geriatique
p930
aV/fr/mmorpg/encyclopedie/ressources/17737-essence-pounicheur
p931
aV/fr/mmorpg/encyclopedie/ressources/8360-peau-dragoeuf-volant
p932
aV/fr/mmorpg/encyclopedie/ressources/8485-etoffe-rat-noir
p933
aV/fr/mmorpg/encyclopedie/ressources/8492-peau-rat-blanc
p934
aV/fr/mmorpg/encyclopedie/ressources/8764-sourcil-rasboul-majeur
p935
aV/fr/mmorpg/encyclopedie/ressources/12151-clef-caverne-nowel
p936
aV/fr/mmorpg/encyclopedie/ressources/7306-etoffe-yokai-firefoux
p937
aV/fr/mmorpg/encyclopedie/ressources/7926-clef-bibliotheque-maitre-corbac
p938
aV/fr/mmorpg/encyclopedie/ressources/8361-corne-dragoeuf-volant
p939
aV/fr/mmorpg/encyclopedie/ressources/8486-etoffe-rat-blanc
p940
aV/fr/mmorpg/encyclopedie/ressources/2527-clakoss
p941
aV/fr/mmorpg/encyclopedie/ressources/16463-dorade-grise
p942
aV/fr/mmorpg/encyclopedie/ressources/17613-epine-grath
p943
aV/fr/mmorpg/encyclopedie/ressources/8362-peau-dragoeuf-guerrier
p944
aV/fr/mmorpg/encyclopedie/ressources/15702-essence-capitaine-ekarlatte
p945
aV/fr/mmorpg/encyclopedie/ressources/16464-dorade-royale
p946
aV/fr/mmorpg/encyclopedie/ressources/17568-larve-petrifiee-ecaflipuce
p947
aV/fr/mmorpg/encyclopedie/ressources/17614-glande-pounicheur
p948
aV/fr/mmorpg/encyclopedie/ressources/17715-jeton-chazino-ecaflipuces
p949
aV/fr/mmorpg/encyclopedie/ressources/12836-moule-clef-caverne-nowel
p950
aV/fr/mmorpg/encyclopedie/ressources/13699-foulard-koalak-farouche
p951
aV/fr/mmorpg/encyclopedie/ressources/8356-peau-dragueuse
p952
aV/fr/mmorpg/encyclopedie/ressources/8363-corne-dragoeuf-guerrier
p953
aV/fr/mmorpg/encyclopedie/ressources/8488-cubitus-rat-noir
p954
aV/fr/mmorpg/encyclopedie/ressources/8798-queue-emplumee-rasboul-majeur
p955
aV/fr/mmorpg/encyclopedie/ressources/13716-bec-vilain-petit-tofu
p956
aV/fr/mmorpg/encyclopedie/ressources/13717-houpette-vilain-petit-tofu
p957
aV/fr/mmorpg/encyclopedie/ressources/8063-queue-koalak-sanguin
p958
aV/fr/mmorpg/encyclopedie/ressources/8064-boomerang-koalak-sanguin
p959
aV/fr/mmorpg/encyclopedie/ressources/16968-cafra
p960
aV/fr/mmorpg/encyclopedie/ressources/13698-houpette-koalak-sanguin
p961
aV/fr/mmorpg/encyclopedie/ressources/8053-peau-chevaucheur-koalak
p962
aV/fr/mmorpg/encyclopedie/ressources/8001-bandelette-guerrier-koalak
p963
aV/fr/mmorpg/encyclopedie/ressources/8057-tibia-koalak-fossoyeur
p964
aV/fr/mmorpg/encyclopedie/ressources/13732-vieille-ventouse-kralamoure
p965
aV/fr/mmorpg/encyclopedie/ressources/8810-tourbe-sechee-tourbassingue
p966
aV/fr/mmorpg/encyclopedie/ressources/13697-poils-guerrier-koalak
p967
aV/fr/mmorpg/encyclopedie/ressources/11117-laine-boufmouth
p968
aV/fr/mmorpg/encyclopedie/ressources/11118-clavicule-boufmouth
p969
aV/fr/mmorpg/encyclopedie/ressources/16845-butor-majeure
p970
aV/fr/mmorpg/encyclopedie/ressources/8312-peau-minoskito
p971
aV/fr/mmorpg/encyclopedie/ressources/8756-duvet-kilibriss
p972
aV/fr/mmorpg/encyclopedie/ressources/8315-peau-mandrine
p973
aV/fr/mmorpg/encyclopedie/ressources/14948-oeil-mandrine
p974
aV/fr/mmorpg/encyclopedie/ressources/8765-baton-kilibriss
p975
aV/fr/mmorpg/encyclopedie/ressources/14949-trompe-minoskito
p976
aV/fr/mmorpg/encyclopedie/ressources/8769-coco-bitouf-plaines
p977
aV/fr/mmorpg/encyclopedie/ressources/16988-peho-majeure
p978
aV/fr/mmorpg/encyclopedie/ressources/8767-aile-bitouf-plaines
p979
aV/fr/mmorpg/encyclopedie/ressources/8762-fragment-cerveau-poli
p980
aV/fr/mmorpg/encyclopedie/ressources/16965-kyoub-majeure
p981
aV/fr/mmorpg/encyclopedie/ressources/8736-coeur-pierre-poli
p982
aV/fr/mmorpg/encyclopedie/ressources/13498-dent-bourbassingue
p983
aV/fr/mmorpg/encyclopedie/ressources/8741-bec-kido
p984
aV/fr/mmorpg/encyclopedie/ressources/8811-faux-menton-bourbassingue
p985
aV/fr/mmorpg/encyclopedie/ressources/8766-plume-fesse-kido
p986
aV/fr/mmorpg/encyclopedie/ressources/16883-zaihn
p987
aV/fr/mmorpg/encyclopedie/ressources/13335-rouflaquettes-halouine
p988
aV/fr/mmorpg/encyclopedie/ressources/13366-galet-lunaire
p989
aV/fr/mmorpg/encyclopedie/ressources/14996-fragment-ecaille-courage
p990
aV/fr/mmorpg/encyclopedie/ressources/15230-piece-koffrefor
p991
aV/fr/mmorpg/encyclopedie/ressources/15278-clef-fabrique-mallefisk
p992
aV/fr/mmorpg/encyclopedie/ressources/7385-etoffe-fantome-tanukoui-san
p993
aV/fr/mmorpg/encyclopedie/ressources/8403-tresse-koulosse
p994
aV/fr/mmorpg/encyclopedie/ressources/2582-testicules-meulou
p995
aV/fr/mmorpg/encyclopedie/ressources/2607-trukikol-mort
p996
aV/fr/mmorpg/encyclopedie/ressources/2645-groin-dragon-cochon
p997
aV/fr/mmorpg/encyclopedie/ressources/16916-seve-if
p998
aV/fr/mmorpg/encyclopedie/ressources/16878-nyan
p999
aV/fr/mmorpg/encyclopedie/ressources/17112-clef-arbre-moon
p1000
aV/fr/mmorpg/encyclopedie/ressources/12744-substrat-bosquet
p1001
aV/fr/mmorpg/encyclopedie/ressources/13336-graines-citwouille-maudites
p1002
aV/fr/mmorpg/encyclopedie/ressources/14517-slip-troue-dramak
p1003
aV/fr/mmorpg/encyclopedie/ressources/14670-essence-dramak
p1004
aV/fr/mmorpg/encyclopedie/ressources/14997-fragment-ecaille-ferocite
p1005
aV/fr/mmorpg/encyclopedie/ressources/7379-etoffe-fantome-pandikaze
p1006
aV/fr/mmorpg/encyclopedie/ressources/7393-etoffe-fantome-pandore
p1007
aV/fr/mmorpg/encyclopedie/ressources/7665-planche-bambou-sacre
p1008
aV/fr/mmorpg/encyclopedie/ressources/8156-clef-donjon-canides
p1009
aV/fr/mmorpg/encyclopedie/ressources/11502-farine-frostiz-souffle
p1010
aV/fr/mmorpg/encyclopedie/ressources/12738-galet-rutilant
p1011
aV/fr/mmorpg/encyclopedie/ressources/14518-chaussette-trouee-dramak
p1012
aV/fr/mmorpg/encyclopedie/ressources/14998-fragment-ecaille-endurance
p1013
aV/fr/mmorpg/encyclopedie/ressources/7510-deuxieme-partie-clef-labyrinthe-dragon-cochon
p1014
aV/fr/mmorpg/encyclopedie/ressources/7666-planche-bois-ancestral
p1015
aV/fr/mmorpg/encyclopedie/ressources/8753-criniere-fleurie
p1016
aV/fr/mmorpg/encyclopedie/ressources/481-crane-dragon-cochon
p1017
aV/fr/mmorpg/encyclopedie/ressources/2267-dragolait
p1018
aV/fr/mmorpg/encyclopedie/ressources/2577-scalp-meulou
p1019
aV/fr/mmorpg/encyclopedie/ressources/7403-os-fantome-leopardo
p1020
aV/fr/mmorpg/encyclopedie/ressources/7410-os-fantome-tanukoui-san
p1021
aV/fr/mmorpg/encyclopedie/ressources/7511-clef-labyrinthe-dragon-cochon
p1022
aV/fr/mmorpg/encyclopedie/ressources/7908-clef-caverne-koulosse
p1023
aV/fr/mmorpg/encyclopedie/ressources/444-etain
p1024
aV/fr/mmorpg/encyclopedie/ressources/1018-kole
p1025
aV/fr/mmorpg/encyclopedie/ressources/11279-scie-glace
p1026
aV/fr/mmorpg/encyclopedie/ressources/13167-plume-rasboul-majeur
p1027
aV/fr/mmorpg/encyclopedie/ressources/15219-trame-dimensionnelle
p1028
aV/fr/mmorpg/encyclopedie/ressources/16452-riz-cola
p1029
aV/fr/mmorpg/encyclopedie/ressources/11193-planche-tremble
p1030
aV/fr/mmorpg/encyclopedie/ressources/12374-poignee-gorgouille
p1031
aV/fr/mmorpg/encyclopedie/ressources/13492-puces-sauteuses
p1032
aV/fr/mmorpg/encyclopedie/ressources/7404-os-fantome-maho-firefoux
p1033
aV/fr/mmorpg/encyclopedie/ressources/7411-os-fantome-yokai-firefoux
p1034
aV/fr/mmorpg/encyclopedie/ressources/8320-clef-antre-dragon-cochon
p1035
aV/fr/mmorpg/encyclopedie/ressources/14666-essence-dragon-cochon
p1036
aV/fr/mmorpg/encyclopedie/ressources/15164-broderie-mallefisk
p1037
aV/fr/mmorpg/encyclopedie/ressources/16383-edelweiss-marguerite
p1038
aV/fr/mmorpg/encyclopedie/ressources/1691-poils-meulou
p1039
aV/fr/mmorpg/encyclopedie/ressources/2029-seigle-resistant
p1040
aV/fr/mmorpg/encyclopedie/ressources/2632-glouto-rhum
p1041
aV/fr/mmorpg/encyclopedie/ressources/2602-plume-domoizelle
p1042
aV/fr/mmorpg/encyclopedie/ressources/6736-bourgeon-fourbasse
p1043
aV/fr/mmorpg/encyclopedie/ressources/7018-riz
p1044
aV/fr/mmorpg/encyclopedie/ressources/7032-silicate
p1045
aV/fr/mmorpg/encyclopedie/ressources/7380-etoffe-fantome-maho-firefoux
p1046
aV/fr/mmorpg/encyclopedie/ressources/7405-os-fantome-pandikaze
p1047
aV/fr/mmorpg/encyclopedie/ressources/477-sang-dragon-cochon
p1048
aV/fr/mmorpg/encyclopedie/ressources/2253-fleur-gloutovore
p1049
aV/fr/mmorpg/encyclopedie/ressources/8383-peau-moon
p1050
aV/fr/mmorpg/encyclopedie/ressources/8763-moustache-mufafah
p1051
aV/fr/mmorpg/encyclopedie/ressources/12375-fragment-gorgouille
p1052
aV/fr/mmorpg/encyclopedie/ressources/14667-essence-koulosse
p1053
aV/fr/mmorpg/encyclopedie/ressources/15165-corde-boursoin
p1054
aV/fr/mmorpg/encyclopedie/ressources/15273-essence-mallefisk
p1055
aV/fr/mmorpg/encyclopedie/ressources/15444-tete-mort
p1056
aV/fr/mmorpg/encyclopedie/ressources/16461-anguille
p1057
aV/fr/mmorpg/encyclopedie/ressources/14668-essence-meulou
p1058
aV/fr/mmorpg/encyclopedie/ressources/6441-poils-moon
p1059
aV/fr/mmorpg/encyclopedie/ressources/7381-etoffe-fantome-soryo-firefoux
p1060
aV/fr/mmorpg/encyclopedie/ressources/7406-os-fantome-pandore
p1061
aV/fr/mmorpg/encyclopedie/ressources/8144-mojo-meulou
p1062
aV/fr/mmorpg/encyclopedie/ressources/8384-etoffe-magique-moon
p1063
aV/fr/mmorpg/encyclopedie/ressources/8391-peau-don-dorgan
p1064
aV/fr/mmorpg/encyclopedie/ressources/461-bois-if
p1065
aV/fr/mmorpg/encyclopedie/ressources/2254-feuille-fourbasse
p1066
aV/fr/mmorpg/encyclopedie/ressources/15166-langue-mimikado
p1067
aV/fr/mmorpg/encyclopedie/ressources/16462-anguille-souroche
p1068
aV/fr/mmorpg/encyclopedie/ressources/14265-ecaille-grasmera
p1069
aV/fr/mmorpg/encyclopedie/ressources/14669-essence-moon
p1070
aV/fr/mmorpg/encyclopedie/ressources/15167-antenne-tresantene
p1071
aV/fr/mmorpg/encyclopedie/ressources/16494-planche-toilette
p1072
aV/fr/mmorpg/encyclopedie/ressources/17567-biscuit-chance
p1073
aV/fr/mmorpg/encyclopedie/ressources/532-seigle
p1074
aV/fr/mmorpg/encyclopedie/ressources/594-edelweiss
p1075
aV/fr/mmorpg/encyclopedie/ressources/1461-poison-cinglant
p1076
aV/fr/mmorpg/encyclopedie/ressources/2806-testicules-magiques-meulou
p1077
aV/fr/mmorpg/encyclopedie/ressources/11280-plaque-acier
p1078
aV/fr/mmorpg/encyclopedie/ressources/7027-topaze
p1079
aV/fr/mmorpg/encyclopedie/ressources/7382-etoffe-fantome-leopardo
p1080
aV/fr/mmorpg/encyclopedie/ressources/7407-os-fantome-pandule
p1081
aV/fr/mmorpg/encyclopedie/ressources/7508-rune-signature
p1082
aV/fr/mmorpg/encyclopedie/ressources/14266-poche-charbon-grasmera
p1083
aV/fr/mmorpg/encyclopedie/ressources/15168-corne-berserkoffre
p1084
aV/fr/mmorpg/encyclopedie/ressources/15182-kamatrix
p1085
aV/fr/mmorpg/encyclopedie/ressources/15733-sablier-miniature
p1086
aV/fr/mmorpg/encyclopedie/ressources/17140-viande-exsudative
p1087
aV/fr/mmorpg/encyclopedie/ressources/487-cuir-dragon-cochon
p1088
aV/fr/mmorpg/encyclopedie/ressources/920-bois-ancestral
p1089
aV/fr/mmorpg/encyclopedie/ressources/2580-oeil-meulou
p1090
aV/fr/mmorpg/encyclopedie/ressources/2605-plume-dostrogo
p1091
aV/fr/mmorpg/encyclopedie/ressources/2643-defense-dragon-cochon
p1092
aV/fr/mmorpg/encyclopedie/ressources/11281-masque-protection
p1093
aV/fr/mmorpg/encyclopedie/ressources/11508-poisskaille-vide
p1094
aV/fr/mmorpg/encyclopedie/ressources/13061-galet-boucane
p1095
aV/fr/mmorpg/encyclopedie/ressources/13333-clef-potager-halouine
p1096
aV/fr/mmorpg/encyclopedie/ressources/13340-bave-empoisonnee
p1097
aV/fr/mmorpg/encyclopedie/ressources/6885-jeton-bworker
p1098
aV/fr/mmorpg/encyclopedie/ressources/7383-etoffe-fantome-yokai-firefoux
p1099
aV/fr/mmorpg/encyclopedie/ressources/7408-os-fantome-soryo-firefoux
p1100
aV/fr/mmorpg/encyclopedie/ressources/7509-premiere-partie-clef-labyrinthe-dragon-cochon
p1101
aV/fr/mmorpg/encyclopedie/ressources/8393-poil-dragon-cochon
p1102
aV/fr/mmorpg/encyclopedie/ressources/2644-queue-dragon-cochon
p1103
aV/fr/mmorpg/encyclopedie/ressources/7384-etoffe-fantome-pandule
p1104
aV/fr/mmorpg/encyclopedie/ressources/8402-pierre-koulosse
p1105
aV/fr/mmorpg/encyclopedie/ressources/750-kouartz
p1106
aV/fr/mmorpg/encyclopedie/ressources/1557-rune-ga-pa
p1107
aV/fr/mmorpg/encyclopedie/ressources/1696-etoffe-meulou
p1108
aV/fr/mmorpg/encyclopedie/ressources/2581-dents-meulou
p1109
aV/fr/mmorpg/encyclopedie/ressources/11282-gants-protection
p1110
aV/fr/mmorpg/encyclopedie/ressources/11509-poisskaille-givre-vide
p1111
aV/fr/mmorpg/encyclopedie/ressources/13334-chicots-halouine
p1112
aV/fr/mmorpg/encyclopedie/ressources/14560-clef-theatre-dramak
p1113
aV/fr/mmorpg/encyclopedie/ressources/15169-moustache-precieuse
p1114
aV/fr/mmorpg/encyclopedie/ressources/17141-bidoche-exsudative
p1115
aV/fr/mmorpg/encyclopedie/ressources/8737-boule-polie
p1116
aV/fr/mmorpg/encyclopedie/ressources/13490-bave-ouassingue
p1117
aV/fr/mmorpg/encyclopedie/ressources/16992-domo-majeure
p1118
aV/fr/mmorpg/encyclopedie/ressources/8392-peau-don-duss-ang
p1119
aV/fr/mmorpg/encyclopedie/ressources/11120-cuir-bouftonmouth
p1120
aV/fr/mmorpg/encyclopedie/ressources/14516-oreille-rhinoferoce
p1121
aV/fr/mmorpg/encyclopedie/ressources/7905-laine-boufcoul
p1122
aV/fr/mmorpg/encyclopedie/ressources/2575-scalp-mulou
p1123
aV/fr/mmorpg/encyclopedie/ressources/16860-sak
p1124
aV/fr/mmorpg/encyclopedie/ressources/651-etoffe-mulou
p1125
aV/fr/mmorpg/encyclopedie/ressources/7906-corne-boufcoul
p1126
aV/fr/mmorpg/encyclopedie/ressources/8396-mojo-mulou
p1127
aV/fr/mmorpg/encyclopedie/ressources/7907-cuir-boufcoul
p1128
aV/fr/mmorpg/encyclopedie/ressources/2578-oeil-mulou
p1129
aV/fr/mmorpg/encyclopedie/ressources/8350-coquille-dragoss-blanc
p1130
aV/fr/mmorpg/encyclopedie/ressources/8344-corne-dragoss-noir
p1131
aV/fr/mmorpg/encyclopedie/ressources/8351-coquille-dragoss-dore
p1132
aV/fr/mmorpg/encyclopedie/ressources/438-queue-mulou
p1133
aV/fr/mmorpg/encyclopedie/ressources/439-canine-mulou
p1134
aV/fr/mmorpg/encyclopedie/ressources/8345-corne-dragoss-saphir
p1135
aV/fr/mmorpg/encyclopedie/ressources/8352-ecaille-dragoss-noir
p1136
aV/fr/mmorpg/encyclopedie/ressources/11119-oreille-bouftonmouth
p1137
aV/fr/mmorpg/encyclopedie/ressources/8346-corne-dragoss-blanc
p1138
aV/fr/mmorpg/encyclopedie/ressources/8353-ecaille-dragoss-saphir
p1139
aV/fr/mmorpg/encyclopedie/ressources/2805-testicules-magiques-mulou
p1140
aV/fr/mmorpg/encyclopedie/ressources/291-poils-mulou
p1141
aV/fr/mmorpg/encyclopedie/ressources/8347-corne-dragoss-dore
p1142
aV/fr/mmorpg/encyclopedie/ressources/8354-ecaille-dragoss-blanc
p1143
aV/fr/mmorpg/encyclopedie/ressources/292-testicules-mulou
p1144
aV/fr/mmorpg/encyclopedie/ressources/8348-coquille-dragoss-noir
p1145
aV/fr/mmorpg/encyclopedie/ressources/8355-ecaille-dragoss-dore
p1146
aV/fr/mmorpg/encyclopedie/ressources/8349-coquille-dragoss-saphir
p1147
aV/fr/mmorpg/encyclopedie/ressources/440-griffe-mulou
p1148
aV/fr/mmorpg/encyclopedie/ressources/14515-corne-rhinoferoce
p1149
aV/fr/mmorpg/encyclopedie/ressources/11252-patte-rat-bougri
p1150
aV/fr/mmorpg/encyclopedie/ressources/1558-rune-ga-pme
p1151
aV/fr/mmorpg/encyclopedie/ressources/16961-yoche-majeure
p1152
aV/fr/mmorpg/encyclopedie/ressources/11253-etoffe-rat-bougri
p1153
aV/fr/mmorpg/encyclopedie/ressources/17060-potion-vieillesse
p1154
aV/fr/mmorpg/encyclopedie/ressources/14513-echasse-molette
p1155
aV/fr/mmorpg/encyclopedie/ressources/14514-dent-molette
p1156
aV/fr/mmorpg/encyclopedie/ressources/8054-peau-drakoalak
p1157
aV/fr/mmorpg/encyclopedie/ressources/2621-barbe-chouque
p1158
aV/fr/mmorpg/encyclopedie/ressources/8055-os-mama-koalak
p1159
aV/fr/mmorpg/encyclopedie/ressources/8086-coiffe-dechiquetee-drakoalak
p1160
aV/fr/mmorpg/encyclopedie/ressources/2623-bwak-squelettique
p1161
aV/fr/mmorpg/encyclopedie/ressources/14511-elastique-gobvious
p1162
aV/fr/mmorpg/encyclopedie/ressources/8390-peau-cochon-farle
p1163
aV/fr/mmorpg/encyclopedie/ressources/14512-plume-gobvious
p1164
aV/fr/mmorpg/encyclopedie/ressources/14509-oreille-bouledogre
p1165
aV/fr/mmorpg/encyclopedie/ressources/14510-patte-bouledogre
p1166
aV/fr/mmorpg/encyclopedie/ressources/16975-petunia-majeure
p1167
aV/fr/mmorpg/encyclopedie/ressources/16983-teleb
p1168
aV/fr/mmorpg/encyclopedie/ressources/8496-racine-abraknyde-ancestral
p1169
aV/fr/mmorpg/encyclopedie/ressources/17414-essence-chouque
p1170
aV/fr/mmorpg/encyclopedie/ressources/7557-clef-domaine-ancestral
p1171
aV/fr/mmorpg/encyclopedie/ressources/13343-noeud-marin
p1172
aV/fr/mmorpg/encyclopedie/ressources/1799-kralamoure-unique
p1173
aV/fr/mmorpg/encyclopedie/ressources/2622-boulet-canondorf
p1174
aV/fr/mmorpg/encyclopedie/ressources/17113-clef-bateau-chouque
p1175
aV/fr/mmorpg/encyclopedie/ressources/918-ambre-ancestral
p1176
aV/fr/mmorpg/encyclopedie/ressources/16180-soie-baveuse
p1177
aV/fr/mmorpg/encyclopedie/ressources/17075-canif-rouille
p1178
aV/fr/mmorpg/encyclopedie/ressources/17138-viande-rassie
p1179
aV/fr/mmorpg/encyclopedie/ressources/14665-essence-abraknyde-ancestral
p1180
aV/fr/mmorpg/encyclopedie/ressources/7667-planche-bois-envoute
p1181
aV/fr/mmorpg/encyclopedie/ressources/926-bois-envoute
p1182
aV/fr/mmorpg/encyclopedie/ressources/16181-globule-nyee
p1183
aV/fr/mmorpg/encyclopedie/ressources/17139-bidoche-rassie
p1184
aV/fr/mmorpg/encyclopedie/ressources/600-kralamoure
p1185
aV/fr/mmorpg/encyclopedie/ressources/16207-sceau-sylvestre
p1186
aV/fr/mmorpg/encyclopedie/ressources/7438-rune-po
p1187
aV/fr/mmorpg/encyclopedie/ressources/998-calecon-mignon-pirate
p1188
aV/fr/mmorpg/encyclopedie/ressources/16881-leukide
p1189
aV/fr/mmorpg/encyclopedie/ressources/13496-bandeau-nakunbra
p1190
aV/fr/mmorpg/encyclopedie/ressources/7028-agathe
p1191
aV/fr/mmorpg/encyclopedie/ressources/8494-ecorce-abraknyde-ancestral
p1192
aV/fr/mmorpg/encyclopedie/ressources/2357-bois-oliviolet
p1193
aV/fr/mmorpg/encyclopedie/ressources/16286-essence-reine-nyee
p1194
aV/fr/mmorpg/encyclopedie/ressources/2620-rhum-qualite
p1195
aV/fr/mmorpg/encyclopedie/ressources/16179-clef-antre-reine-nyee
p1196
aV/fr/mmorpg/encyclopedie/ressources/16915-seve-oliviolet
p1197
aV/fr/mmorpg/encyclopedie/ressources/7656-planche-orme
p1198
aV/fr/mmorpg/encyclopedie/ressources/8495-bourgeon-abraknyde-ancestral
p1199
aV/fr/mmorpg/encyclopedie/ressources/16872-boble
p1200
aV/fr/mmorpg/encyclopedie/ressources/7291-racine-magique-bambouto-sacre
p1201
aV/fr/mmorpg/encyclopedie/ressources/7672-planche-bois-bambouto-sacre
p1202
aV/fr/mmorpg/encyclopedie/ressources/7370-ambre-bambouto-sacre
p1203
aV/fr/mmorpg/encyclopedie/ressources/7288-feuille-bambouto-sacre
p1204
aV/fr/mmorpg/encyclopedie/ressources/7289-bois-bambouto-sacre
p1205
aV/fr/mmorpg/encyclopedie/ressources/16219-fil-nefileuse
p1206
aV/fr/mmorpg/encyclopedie/ressources/16220-oeil-saltik
p1207
aV/fr/mmorpg/encyclopedie/ressources/14946-cuir-porsalu
p1208
aV/fr/mmorpg/encyclopedie/ressources/14947-lait-porsalu
p1209
aV/fr/mmorpg/encyclopedie/ressources/16215-glande-arak-hai
p1210
aV/fr/mmorpg/encyclopedie/ressources/13488-aile-dragodinde-doree
p1211
aV/fr/mmorpg/encyclopedie/ressources/16216-cheliceres-arapex
p1212
aV/fr/mmorpg/encyclopedie/ressources/14280-pic-dragodinde-doree
p1213
aV/fr/mmorpg/encyclopedie/ressources/16154-ecorce-abrakne-sombre
p1214
aV/fr/mmorpg/encyclopedie/ressources/16217-laine-dardalaine
p1215
aV/fr/mmorpg/encyclopedie/ressources/16155-toile-abrakne-sombre
p1216
aV/fr/mmorpg/encyclopedie/ressources/16218-dent-gargantul
p1217
aV/fr/mmorpg/encyclopedie/ressources/16667-nyoro-majeure
p1218
aV/fr/mmorpg/encyclopedie/ressources/16856-dagob
p1219
aV/fr/mmorpg/encyclopedie/ressources/12861-nez-rouge-redolphe
p1220
aV/fr/mmorpg/encyclopedie/ressources/7442-rune-invo
p1221
aV/fr/mmorpg/encyclopedie/ressources/12832-patron-redolphe
p1222
aV/fr/mmorpg/encyclopedie/ressources/11250-poil-chachachovage
p1223
aV/fr/mmorpg/encyclopedie/ressources/11251-sternum-chachachovage
p1224
aV/fr/mmorpg/encyclopedie/ressources/8061-poils-koalak-reinette
p1225
aV/fr/mmorpg/encyclopedie/ressources/8085-poils-koalak-forestier
p1226
aV/fr/mmorpg/encyclopedie/ressources/8062-poils-koalak-indigo
p1227
aV/fr/mmorpg/encyclopedie/ressources/8059-poils-koalak-griotte
p1228
aV/fr/mmorpg/encyclopedie/ressources/8083-os-pekeualak
p1229
aV/fr/mmorpg/encyclopedie/ressources/8060-poils-koalak-coco
p1230
aV/fr/mmorpg/encyclopedie/ressources/8084-peau-piralak
p1231
aV/fr/mmorpg/encyclopedie/ressources/16152-masque-brise-araknotron
p1232
aV/fr/mmorpg/encyclopedie/ressources/16153-arakne-ecrabouillee
p1233
aV/fr/mmorpg/encyclopedie/ressources/16865-dynamo-majeure
p1234
aV/fr/mmorpg/encyclopedie/ressources/7664-planche-bambou-sombre
p1235
aV/fr/mmorpg/encyclopedie/ressources/8371-fragment-coquille-aerohouctor-guerrier
p1236
aV/fr/mmorpg/encyclopedie/ressources/9250-morceau-clef-reinette
p1237
aV/fr/mmorpg/encyclopedie/ressources/11967-fantome-blerodoudou
p1238
aV/fr/mmorpg/encyclopedie/ressources/11974-hormone-bisouglours
p1239
aV/fr/mmorpg/encyclopedie/ressources/7658-planche-charme
p1240
aV/fr/mmorpg/encyclopedie/ressources/8372-fragment-coquille-aquabralak-guerrier
p1241
aV/fr/mmorpg/encyclopedie/ressources/14663-essence-daigoro
p1242
aV/fr/mmorpg/encyclopedie/ressources/1852-requin-marteau-faucille-vide
p1243
aV/fr/mmorpg/encyclopedie/ressources/2026-lin-tempete
p1244
aV/fr/mmorpg/encyclopedie/ressources/17136-viande-sanguinolente
p1245
aV/fr/mmorpg/encyclopedie/ressources/11951-fantome-kanigloups
p1246
aV/fr/mmorpg/encyclopedie/ressources/14664-essence-wa-wobot
p1247
aV/fr/mmorpg/encyclopedie/ressources/9251-morceau-clef-coco
p1248
aV/fr/mmorpg/encyclopedie/ressources/9251-morceau-clef-coco
p1249
aV/fr/mmorpg/encyclopedie/ressources/17137-bidoche-sanguinolente
p1250
aV/fr/mmorpg/encyclopedie/ressources/7434-rune
p1251
aV/fr/mmorpg/encyclopedie/ressources/1847-brochet
p1252
aV/fr/mmorpg/encyclopedie/ressources/1854-requin-marche-libre-vide
p1253
aV/fr/mmorpg/encyclopedie/ressources/9252-morceau-clef-indigo
p1254
aV/fr/mmorpg/encyclopedie/ressources/11969-hormone-blerodoudou
p1255
aV/fr/mmorpg/encyclopedie/ressources/14470-poil-wobot-kiafin
p1256
aV/fr/mmorpg/encyclopedie/ressources/16382-orchidee-genie
p1257
aV/fr/mmorpg/encyclopedie/ressources/16971-aroumb
p1258
aV/fr/mmorpg/encyclopedie/ressources/11814-moustache-boostache
p1259
aV/fr/mmorpg/encyclopedie/ressources/11953-hormone-kanigloups
p1260
aV/fr/mmorpg/encyclopedie/ressources/14471-casque-wobot
p1261
aV/fr/mmorpg/encyclopedie/ressources/16150-racine-abraknyde-venerable
p1262
aV/fr/mmorpg/encyclopedie/ressources/445-manganese
p1263
aV/fr/mmorpg/encyclopedie/ressources/7025-pierre-agathe
p1264
aV/fr/mmorpg/encyclopedie/ressources/749-bakelelite
p1265
aV/fr/mmorpg/encyclopedie/ressources/1849-brochet-tupe-halett
p1266
aV/fr/mmorpg/encyclopedie/ressources/8369-fragment-coquille-terrakoubiak-guerrier
p1267
aV/fr/mmorpg/encyclopedie/ressources/11815-boostoplasme
p1268
aV/fr/mmorpg/encyclopedie/ressources/14465-clef-terrier-wa-wabbit
p1269
aV/fr/mmorpg/encyclopedie/ressources/14472-baton-blanc-pa-wabbit
p1270
aV/fr/mmorpg/encyclopedie/ressources/16151-ecorce-abraknyde-venerable
p1271
aV/fr/mmorpg/encyclopedie/ressources/14473-boulon-wabbit
p1272
aV/fr/mmorpg/encyclopedie/ressources/423-lin
p1273
aV/fr/mmorpg/encyclopedie/ressources/593-orchidee-freyesque
p1274
aV/fr/mmorpg/encyclopedie/ressources/1345-potion-incendie
p1275
aV/fr/mmorpg/encyclopedie/ressources/16493-planche-repasser
p1276
aV/fr/mmorpg/encyclopedie/ressources/1346-potion-tsunami
p1277
aV/fr/mmorpg/encyclopedie/ressources/9249-morceau-clef-griotte
p1278
aV/fr/mmorpg/encyclopedie/ressources/11956-fantome-bulbisou
p1279
aV/fr/mmorpg/encyclopedie/ressources/14468-barbe-wa-wobot
p1280
aV/fr/mmorpg/encyclopedie/ressources/14507-pelote-ecaflip
p1281
aV/fr/mmorpg/encyclopedie/ressources/16914-seve-erable
p1282
aV/fr/mmorpg/encyclopedie/ressources/1347-potion-ouragan
p1283
aV/fr/mmorpg/encyclopedie/ressources/12741-poils-daigoro
p1284
aV/fr/mmorpg/encyclopedie/ressources/8370-fragment-coquille-ignelicrobur-guerrier
p1285
aV/fr/mmorpg/encyclopedie/ressources/471-bois-erable
p1286
aV/fr/mmorpg/encyclopedie/ressources/1348-potion-seisme
p1287
aV/fr/mmorpg/encyclopedie/ressources/2543-substrat-fascine
p1288
aV/fr/mmorpg/encyclopedie/ressources/11958-hormone-bulbisou
p1289
aV/fr/mmorpg/encyclopedie/ressources/11972-fantome-bisouglours
p1290
aV/fr/mmorpg/encyclopedie/ressources/12735-clef-repaire-daigoro
p1291
aV/fr/mmorpg/encyclopedie/ressources/12742-couche-daigoro
p1292
aV/fr/mmorpg/encyclopedie/ressources/14469-estomac-black-wabbit
p1293
aV/fr/mmorpg/encyclopedie/ressources/14490-lunettes-tiwobot
p1294
aV/fr/mmorpg/encyclopedie/ressources/7280-peau-kitsou-nufeu
p1295
aV/fr/mmorpg/encyclopedie/ressources/7276-poils-kitsou-nufeu
p1296
aV/fr/mmorpg/encyclopedie/ressources/1611-bourgeon-abraknyde-sombre
p1297
aV/fr/mmorpg/encyclopedie/ressources/1612-racine-abraknyde-sombre
p1298
aV/fr/mmorpg/encyclopedie/ressources/1682-ecorce-liroye-merline
p1299
aV/fr/mmorpg/encyclopedie/ressources/8065-poils-barbe-warko-marron
p1300
aV/fr/mmorpg/encyclopedie/ressources/1660-ambre-abraknyde-sombre
p1301
aV/fr/mmorpg/encyclopedie/ressources/8077-boomerang-warko-marron
p1302
aV/fr/mmorpg/encyclopedie/ressources/1610-ecorce-abraknyde-sombre
p1303
aV/fr/mmorpg/encyclopedie/ressources/7277-poils-kitsou-nere
p1304
aV/fr/mmorpg/encyclopedie/ressources/16996-pikmi
p1305
aV/fr/mmorpg/encyclopedie/ressources/7281-peau-kitsou-nere
p1306
aV/fr/mmorpg/encyclopedie/ressources/12433-poudre-novice
p1307
aV/fr/mmorpg/encyclopedie/ressources/838-sang-oni
p1308
aV/fr/mmorpg/encyclopedie/ressources/12441-flaque-novice
p1309
aV/fr/mmorpg/encyclopedie/ressources/7279-peau-kitsou-nae
p1310
aV/fr/mmorpg/encyclopedie/ressources/7457-rune-re-per-feu
p1311
aV/fr/mmorpg/encyclopedie/ressources/16848-horize
p1312
aV/fr/mmorpg/encyclopedie/ressources/7458-rune-re-per-air
p1313
aV/fr/mmorpg/encyclopedie/ressources/12429-boue-novice
p1314
aV/fr/mmorpg/encyclopedie/ressources/12739-brassard-braconnier
p1315
aV/fr/mmorpg/encyclopedie/ressources/11256-bec-gelikan
p1316
aV/fr/mmorpg/encyclopedie/ressources/12437-cendres-novices
p1317
aV/fr/mmorpg/encyclopedie/ressources/7459-rune-re-per-terre
p1318
aV/fr/mmorpg/encyclopedie/ressources/11257-plume-gelikan
p1319
aV/fr/mmorpg/encyclopedie/ressources/12445-fumee-novice
p1320
aV/fr/mmorpg/encyclopedie/ressources/7560-rune-re-per-eau
p1321
aV/fr/mmorpg/encyclopedie/ressources/7275-poils-kitsou-nae
p1322
aV/fr/mmorpg/encyclopedie/ressources/7460-rune-re-per-neutre
p1323
aV/fr/mmorpg/encyclopedie/ressources/12449-oeil-krokille
p1324
aV/fr/mmorpg/encyclopedie/ressources/16853-bihilete-majeure
p1325
aV/fr/mmorpg/encyclopedie/ressources/845-oeuf-dragoeuf-dore
p1326
aV/fr/mmorpg/encyclopedie/ressources/846-oeuf-dragoeuf-noir
p1327
aV/fr/mmorpg/encyclopedie/ressources/13731-pierre-medicinale
p1328
aV/fr/mmorpg/encyclopedie/ressources/847-oeuf-dragoeuf-blanc
p1329
aV/fr/mmorpg/encyclopedie/ressources/8002-etoffe-dok-alako
p1330
aV/fr/mmorpg/encyclopedie/ressources/8075-boomerang-dok-alako
p1331
aV/fr/mmorpg/encyclopedie/ressources/844-oeuf-dragoeuf-saphir
p1332
aV/fr/mmorpg/encyclopedie/ressources/7278-poils-kitsou-nakwa
p1333
aV/fr/mmorpg/encyclopedie/ressources/7282-peau-kitsou-nakwa
p1334
aV/fr/mmorpg/encyclopedie/ressources/16956-hulhu
p1335
aV/fr/mmorpg/encyclopedie/ressources/14662-essence-craqueleur-legendaire
p1336
aV/fr/mmorpg/encyclopedie/ressources/8078-planche-bois-kaliptus
p1337
aV/fr/mmorpg/encyclopedie/ressources/2551-oreille-kanigrou
p1338
aV/fr/mmorpg/encyclopedie/ressources/17135-bidoche-avariee
p1339
aV/fr/mmorpg/encyclopedie/ressources/1807-sardine-sombre
p1340
aV/fr/mmorpg/encyclopedie/ressources/1890-poil-kanigrou
p1341
aV/fr/mmorpg/encyclopedie/ressources/2552-oeil-kanigrou
p1342
aV/fr/mmorpg/encyclopedie/ressources/8102-pierre-craqueleur-legendaire
p1343
aV/fr/mmorpg/encyclopedie/ressources/6479-ours-dechiquete
p1344
aV/fr/mmorpg/encyclopedie/ressources/7030-peau-kanigrou
p1345
aV/fr/mmorpg/encyclopedie/ressources/848-vieil-os-dragoeuf
p1346
aV/fr/mmorpg/encyclopedie/ressources/2035-chanvre-euphorique
p1347
aV/fr/mmorpg/encyclopedie/ressources/8761-poudre-explosive-gourlo
p1348
aV/fr/mmorpg/encyclopedie/ressources/11642-rune-pa-re-pa
p1349
aV/fr/mmorpg/encyclopedie/ressources/7024-pierre-topaze
p1350
aV/fr/mmorpg/encyclopedie/ressources/7303-peau-pandule
p1351
aV/fr/mmorpg/encyclopedie/ressources/8438-clef-donjon-rats-brakmar
p1352
aV/fr/mmorpg/encyclopedie/ressources/8971-clef-arche-otomai
p1353
aV/fr/mmorpg/encyclopedie/ressources/8995-etoffe-gourlo-terrible
p1354
aV/fr/mmorpg/encyclopedie/ressources/16972-vaude
p1355
aV/fr/mmorpg/encyclopedie/ressources/2549-boite-kanigrou
p1356
aV/fr/mmorpg/encyclopedie/ressources/11644-rune-pa-re-pme
p1357
aV/fr/mmorpg/encyclopedie/ressources/12073-clef-laboratoire-brumen-tinctorias
p1358
aV/fr/mmorpg/encyclopedie/ressources/7297-poils-pandule
p1359
aV/fr/mmorpg/encyclopedie/ressources/1802-perche-videe
p1360
aV/fr/mmorpg/encyclopedie/ressources/16913-seve-bombu
p1361
aV/fr/mmorpg/encyclopedie/ressources/11646-rune-pa-ret-pa
p1362
aV/fr/mmorpg/encyclopedie/ressources/8758-morceau-calecon-gourlo
p1363
aV/fr/mmorpg/encyclopedie/ressources/14660-essence-nelween
p1364
aV/fr/mmorpg/encyclopedie/ressources/1804-chaton-perche-vide
p1365
aV/fr/mmorpg/encyclopedie/ressources/2528-ongle-kanigrou
p1366
aV/fr/mmorpg/encyclopedie/ressources/12075-fiole-fumee-nelween
p1367
aV/fr/mmorpg/encyclopedie/ressources/7655-planche-ebene
p1368
aV/fr/mmorpg/encyclopedie/ressources/7927-clef-donjon-craqueleurs
p1369
aV/fr/mmorpg/encyclopedie/ressources/7308-etoffe-pandule
p1370
aV/fr/mmorpg/encyclopedie/ressources/8394-mega-pierre-craqueleur-legendaire
p1371
aV/fr/mmorpg/encyclopedie/ressources/1805-sardine-brillante
p1372
aV/fr/mmorpg/encyclopedie/ressources/2358-bois-bombu
p1373
aV/fr/mmorpg/encyclopedie/ressources/2550-etoffe-kanigrou
p1374
aV/fr/mmorpg/encyclopedie/ressources/11648-rune-pa-ret-pme
p1375
aV/fr/mmorpg/encyclopedie/ressources/12076-duvet-nelween
p1376
aV/fr/mmorpg/encyclopedie/ressources/14661-essence-gourlo-terrible
p1377
aV/fr/mmorpg/encyclopedie/ressources/17134-viande-avariee
p1378
aV/fr/mmorpg/encyclopedie/ressources/2296-bouclier-reptilien
p1379
aV/fr/mmorpg/encyclopedie/ressources/6740-peau-chef-crocodaille
p1380
aV/fr/mmorpg/encyclopedie/ressources/1613-ecaille-chef-crocodaille
p1381
aV/fr/mmorpg/encyclopedie/ressources/1614-dents-chef-crocodaille
p1382
aV/fr/mmorpg/encyclopedie/ressources/1676-osier-enchante
p1383
aV/fr/mmorpg/encyclopedie/ressources/6738-crane-chef-crocodaille
p1384
aV/fr/mmorpg/encyclopedie/ressources/2295-fragment-epee-reptilienne
p1385
aV/fr/mmorpg/encyclopedie/ressources/16967-cafra-mineure
p1386
aV/fr/mmorpg/encyclopedie/ressources/2591-queue-dragodinde-rousse-sauvage
p1387
aV/fr/mmorpg/encyclopedie/ressources/2586-aile-dragodinde-rousse-sauvage
p1388
aV/fr/mmorpg/encyclopedie/ressources/2598-pic-dragodinde-rousse-sauvage
p1389
aV/fr/mmorpg/encyclopedie/ressources/2304-fragment-pierre-polie
p1390
aV/fr/mmorpg/encyclopedie/ressources/2305-fragment-pierre-pointue
p1391
aV/fr/mmorpg/encyclopedie/ressources/11254-pince-crabe-hijacob
p1392
aV/fr/mmorpg/encyclopedie/ressources/11641-rune-re-pa
p1393
aV/fr/mmorpg/encyclopedie/ressources/14284-flamme-spectrale
p1394
aV/fr/mmorpg/encyclopedie/ressources/6478-makroute-dechiquete
p1395
aV/fr/mmorpg/encyclopedie/ressources/2251-mega-pierre-craqueleur
p1396
aV/fr/mmorpg/encyclopedie/ressources/11255-oeil-crabe-hijacob
p1397
aV/fr/mmorpg/encyclopedie/ressources/13491-relique-familiale
p1398
aV/fr/mmorpg/encyclopedie/ressources/14944-sueur-froide-fantome
p1399
aV/fr/mmorpg/encyclopedie/ressources/11643-rune-re-pme
p1400
aV/fr/mmorpg/encyclopedie/ressources/14945-vieille-partition
p1401
aV/fr/mmorpg/encyclopedie/ressources/2277-linceul
p1402
aV/fr/mmorpg/encyclopedie/ressources/11645-rune-ret-pa
p1403
aV/fr/mmorpg/encyclopedie/ressources/6480-osier-sombre
p1404
aV/fr/mmorpg/encyclopedie/ressources/16844-butor
p1405
aV/fr/mmorpg/encyclopedie/ressources/11647-rune-ret-pme
p1406
aV/fr/mmorpg/encyclopedie/ressources/8754-barbe-inexistante-barbroussa
p1407
aV/fr/mmorpg/encyclopedie/ressources/8050-peau-koalak-immature
p1408
aV/fr/mmorpg/encyclopedie/ressources/8757-maillot-corps-barbroussa
p1409
aV/fr/mmorpg/encyclopedie/ressources/8739-humerus-sparo
p1410
aV/fr/mmorpg/encyclopedie/ressources/8760-foulard-sparo
p1411
aV/fr/mmorpg/encyclopedie/ressources/16987-peho
p1412
aV/fr/mmorpg/encyclopedie/ressources/7273-peau-cooleuvre
p1413
aV/fr/mmorpg/encyclopedie/ressources/7274-dent-magique-cooleuvre
p1414
aV/fr/mmorpg/encyclopedie/ressources/16964-kyoub
p1415
aV/fr/mmorpg/encyclopedie/ressources/8755-touffe-rousse-flib
p1416
aV/fr/mmorpg/encyclopedie/ressources/8740-chicot-flib
p1417
aV/fr/mmorpg/encyclopedie/ressources/2599-pic-dragodinde
p1418
aV/fr/mmorpg/encyclopedie/ressources/2306-coeur-craqueleur
p1419
aV/fr/mmorpg/encyclopedie/ressources/2252-dent-craqueleur
p1420
aV/fr/mmorpg/encyclopedie/ressources/2594-queue-dragodinde
p1421
aV/fr/mmorpg/encyclopedie/ressources/2588-aile-dragodinde
p1422
aV/fr/mmorpg/encyclopedie/ressources/431-pierre-craqueleur
p1423
aV/fr/mmorpg/encyclopedie/ressources/2596-lait-dragodinde
p1424
aV/fr/mmorpg/encyclopedie/ressources/16882-zaihn-mineure
p1425
aV/fr/mmorpg/encyclopedie/ressources/2179-dent-dragodinde
p1426
aV/fr/mmorpg/encyclopedie/ressources/12015-bec-kwakwa
p1427
aV/fr/mmorpg/encyclopedie/ressources/14282-boules-kanniboul
p1428
aV/fr/mmorpg/encyclopedie/ressources/8249-plume-buveur
p1429
aV/fr/mmorpg/encyclopedie/ressources/8681-peau-raul-mops
p1430
aV/fr/mmorpg/encyclopedie/ressources/9381-fleur-gloutoblop
p1431
aV/fr/mmorpg/encyclopedie/ressources/2241-gelee-menthe-royale
p1432
aV/fr/mmorpg/encyclopedie/ressources/2436-gelee-citron
p1433
aV/fr/mmorpg/encyclopedie/ressources/16024-fragment-carte-brumen-3-3
p1434
aV/fr/mmorpg/encyclopedie/ressources/16877-muta
p1435
aV/fr/mmorpg/encyclopedie/ressources/17065-poupee-vaudou-tam
p1436
aV/fr/mmorpg/encyclopedie/ressources/961-morceau-clef-matin-pewlant
p1437
aV/fr/mmorpg/encyclopedie/ressources/2242-gelee-fraise-royale
p1438
aV/fr/mmorpg/encyclopedie/ressources/2437-gelee-citron-royale
p1439
aV/fr/mmorpg/encyclopedie/ressources/11640-rune-pa-tac
p1440
aV/fr/mmorpg/encyclopedie/ressources/2242-gelee-fraise-royale
p1441
aV/fr/mmorpg/encyclopedie/ressources/2437-gelee-citron-royale
p1442
aV/fr/mmorpg/encyclopedie/ressources/11696-cagoule-kanniboul-ebil
p1443
aV/fr/mmorpg/encyclopedie/ressources/14657-essence-wa-wabbit
p1444
aV/fr/mmorpg/encyclopedie/ressources/8397-poil-wa-wabbit
p1445
aV/fr/mmorpg/encyclopedie/ressources/8481-poil-rat-egoutant
p1446
aV/fr/mmorpg/encyclopedie/ressources/380-menthe-sauvage
p1447
aV/fr/mmorpg/encyclopedie/ressources/443-kobalte
p1448
aV/fr/mmorpg/encyclopedie/ressources/962-morceau-clef-midi-wayonnant
p1449
aV/fr/mmorpg/encyclopedie/ressources/16040-carte-brumen
p1450
aV/fr/mmorpg/encyclopedie/ressources/16381-menthe-religieuse
p1451
aV/fr/mmorpg/encyclopedie/ressources/963-morceau-clef-soiw-woulant
p1452
aV/fr/mmorpg/encyclopedie/ressources/11798-clef-village-kanniboul
p1453
aV/fr/mmorpg/encyclopedie/ressources/14658-essence-blop-royal
p1454
aV/fr/mmorpg/encyclopedie/ressources/7023-pierre-aigue-marine
p1455
aV/fr/mmorpg/encyclopedie/ressources/8398-etoffe-wa-wabbit
p1456
aV/fr/mmorpg/encyclopedie/ressources/8482-peau-rat-egoutant
p1457
aV/fr/mmorpg/encyclopedie/ressources/9384-fleur-blop-griotte-royal
p1458
aV/fr/mmorpg/encyclopedie/ressources/14464-clef-chateau-wa-wabbit
p1459
aV/fr/mmorpg/encyclopedie/ressources/14659-essence-gelee-royale
p1460
aV/fr/mmorpg/encyclopedie/ressources/14774-essence-kanniboul-ebil
p1461
aV/fr/mmorpg/encyclopedie/ressources/9385-fleur-blop-coco-royal
p1462
aV/fr/mmorpg/encyclopedie/ressources/748-magnesite
p1463
aV/fr/mmorpg/encyclopedie/ressources/2625-poupee-vaudou-eth
p1464
aV/fr/mmorpg/encyclopedie/ressources/460-bois-chene
p1465
aV/fr/mmorpg/encyclopedie/ressources/2626-poupee-vaudou-jav
p1466
aV/fr/mmorpg/encyclopedie/ressources/16492-planche-surf
p1467
aV/fr/mmorpg/encyclopedie/ressources/9386-fleur-blop-indigo-royal
p1468
aV/fr/mmorpg/encyclopedie/ressources/1794-carpe-iem
p1469
aV/fr/mmorpg/encyclopedie/ressources/2021-houblon-brillant
p1470
aV/fr/mmorpg/encyclopedie/ressources/2540-substrat-futaie
p1471
aV/fr/mmorpg/encyclopedie/ressources/2627-poupee-vaudou-sarbak
p1472
aV/fr/mmorpg/encyclopedie/ressources/16912-seve-chene
p1473
aV/fr/mmorpg/encyclopedie/ressources/11638-rune-pa-fui
p1474
aV/fr/mmorpg/encyclopedie/ressources/7660-planche-merisier
p1475
aV/fr/mmorpg/encyclopedie/ressources/9248-clef-donjon-blops
p1476
aV/fr/mmorpg/encyclopedie/ressources/9387-fleur-blop-reinette-royal
p1477
aV/fr/mmorpg/encyclopedie/ressources/9388-feuille-blop-royal
p1478
aV/fr/mmorpg/encyclopedie/ressources/2628-poupee-vaudou-ark
p1479
aV/fr/mmorpg/encyclopedie/ressources/17132-viande-ladre
p1480
aV/fr/mmorpg/encyclopedie/ressources/401-houblon
p1481
aV/fr/mmorpg/encyclopedie/ressources/1796-carpette-sables
p1482
aV/fr/mmorpg/encyclopedie/ressources/16022-fragment-carte-brumen-1-3
p1483
aV/fr/mmorpg/encyclopedie/ressources/17133-bidoche-ladre
p1484
aV/fr/mmorpg/encyclopedie/ressources/17272-orbe-regenerant-mineur
p1485
aV/fr/mmorpg/encyclopedie/ressources/370-gelee-bleutee-royale
p1486
aV/fr/mmorpg/encyclopedie/ressources/16009-elixir-brumen
p1487
aV/fr/mmorpg/encyclopedie/ressources/16023-fragment-carte-brumen-2-3
p1488
aV/fr/mmorpg/encyclopedie/ressources/381-fraise
p1489
aV/fr/mmorpg/encyclopedie/ressources/368-gelee-fraise
p1490
aV/fr/mmorpg/encyclopedie/ressources/10831-bananagrume
p1491
aV/fr/mmorpg/encyclopedie/ressources/16991-domo
p1492
aV/fr/mmorpg/encyclopedie/ressources/650-poils-grand-pa-wabbit
p1493
aV/fr/mmorpg/encyclopedie/ressources/406-estomac-wabbit
p1494
aV/fr/mmorpg/encyclopedie/ressources/369-gelee-menthe
p1495
aV/fr/mmorpg/encyclopedie/ressources/649-poils-wabbit
p1496
aV/fr/mmorpg/encyclopedie/ressources/16859-sak-mineure
p1497
aV/fr/mmorpg/encyclopedie/ressources/1771-souris-verte
p1498
aV/fr/mmorpg/encyclopedie/ressources/418-poils-barbe-grand-pa-wabbit
p1499
aV/fr/mmorpg/encyclopedie/ressources/419-oreille-grand-pa-wabbit
p1500
aV/fr/mmorpg/encyclopedie/ressources/11637-rune-fui
p1501
aV/fr/mmorpg/encyclopedie/ressources/1686-teinture-magique-rougeur
p1502
aV/fr/mmorpg/encyclopedie/ressources/11639-rune-tac
p1503
aV/fr/mmorpg/encyclopedie/ressources/1688-teinture-magique-bleutee
p1504
aV/fr/mmorpg/encyclopedie/ressources/16960-yoche
p1505
aV/fr/mmorpg/encyclopedie/ressources/1983-graisse-gelatineuse
p1506
aV/fr/mmorpg/encyclopedie/ressources/9382-fleur-blopignon
p1507
aV/fr/mmorpg/encyclopedie/ressources/8483-peau-chamane-egoutant
p1508
aV/fr/mmorpg/encyclopedie/ressources/8484-poil-chamane-egoutant
p1509
aV/fr/mmorpg/encyclopedie/ressources/308-coquille-dragoeuf-blanc
p1510
aV/fr/mmorpg/encyclopedie/ressources/757-gelee-bleutee
p1511
aV/fr/mmorpg/encyclopedie/ressources/1129-coquille-dragoeuf-saphir
p1512
aV/fr/mmorpg/encyclopedie/ressources/14466-bandeau-black-wabbit-squelette
p1513
aV/fr/mmorpg/encyclopedie/ressources/14467-osselet-black-wabbit-squelette
p1514
aV/fr/mmorpg/encyclopedie/ressources/8570-poil-rat-bontarien
p1515
aV/fr/mmorpg/encyclopedie/ressources/842-coquille-dragoeuf-dore
p1516
aV/fr/mmorpg/encyclopedie/ressources/8571-poil-rat-brakmarien
p1517
aV/fr/mmorpg/encyclopedie/ressources/843-coquille-dragoeuf-noir
p1518
aV/fr/mmorpg/encyclopedie/ressources/7263-racine-bulbuisson
p1519
aV/fr/mmorpg/encyclopedie/ressources/7271-ecorce-magique-bulbuisson
p1520
aV/fr/mmorpg/encyclopedie/ressources/16974-petunia
p1521
aV/fr/mmorpg/encyclopedie/ressources/7267-feuille-bulbuisson
p1522
aV/fr/mmorpg/encyclopedie/ressources/14462-os-wabbit-squelette
p1523
aV/fr/mmorpg/encyclopedie/ressources/9383-racine-tronkoblop
p1524
aV/fr/mmorpg/encyclopedie/ressources/14463-crane-wabbit-squelette
p1525
aV/fr/mmorpg/encyclopedie/ressources/14458-queue-black-wabbit
p1526
aV/fr/mmorpg/encyclopedie/ressources/13715-dent-larve-doree
p1527
aV/fr/mmorpg/encyclopedie/ressources/2320-collier-casse-ouginak
p1528
aV/fr/mmorpg/encyclopedie/ressources/2321-babines-ouginak
p1529
aV/fr/mmorpg/encyclopedie/ressources/2491-oeil-ouginak
p1530
aV/fr/mmorpg/encyclopedie/ressources/2492-chaine-ouginak
p1531
aV/fr/mmorpg/encyclopedie/ressources/2493-coeur-ouginak
p1532
aV/fr/mmorpg/encyclopedie/ressources/2494-pommeau-epee
p1533
aV/fr/mmorpg/encyclopedie/ressources/13596-peau-larve-doree
p1534
aV/fr/mmorpg/encyclopedie/ressources/2248-poil-ouginak
p1535
aV/fr/mmorpg/encyclopedie/ressources/2286-bandelettes
p1536
aV/fr/mmorpg/encyclopedie/ressources/16982-teleb-mineure
p1537
aV/fr/mmorpg/encyclopedie/ressources/12743-potion-minerale
p1538
aV/fr/mmorpg/encyclopedie/ressources/13140-serrure-coffre-forgerons
p1539
aV/fr/mmorpg/encyclopedie/ressources/14655-essence-corailleur-magistral
p1540
aV/fr/mmorpg/encyclopedie/ressources/7068-farine-riz
p1541
aV/fr/mmorpg/encyclopedie/ressources/8388-peau-bworkette
p1542
aV/fr/mmorpg/encyclopedie/ressources/1750-poisson-pane
p1543
aV/fr/mmorpg/encyclopedie/ressources/1806-sardine-brillante-videe
p1544
aV/fr/mmorpg/encyclopedie/ressources/2328-petite-perle-doree
p1545
aV/fr/mmorpg/encyclopedie/ressources/12737-galet-cramoisi
p1546
aV/fr/mmorpg/encyclopedie/ressources/7261-bois-bambou-magique
p1547
aV/fr/mmorpg/encyclopedie/ressources/8389-poil-bworkette
p1548
aV/fr/mmorpg/encyclopedie/ressources/8738-sacrum-magistral
p1549
aV/fr/mmorpg/encyclopedie/ressources/14656-essence-bulbig-brozeur
p1550
aV/fr/mmorpg/encyclopedie/ressources/16210-racine-bulbig-brozeur
p1551
aV/fr/mmorpg/encyclopedie/ressources/12017-clef-nid-kwakwa
p1552
aV/fr/mmorpg/encyclopedie/ressources/8917-clef-grotte-hesque
p1553
aV/fr/mmorpg/encyclopedie/ressources/1808-sardine-sombre-videe
p1554
aV/fr/mmorpg/encyclopedie/ressources/2609-carapace-verte
p1555
aV/fr/mmorpg/encyclopedie/ressources/7015-pousses-bambou
p1556
aV/fr/mmorpg/encyclopedie/ressources/467-rubis
p1557
aV/fr/mmorpg/encyclopedie/ressources/16211-ecorce-magique-bulbig-brozeur
p1558
aV/fr/mmorpg/encyclopedie/ressources/2617-tranche-nodkoko
p1559
aV/fr/mmorpg/encyclopedie/ressources/2624-feuille-tikoko
p1560
aV/fr/mmorpg/encyclopedie/ressources/8994-etoffe-corailleuse
p1561
aV/fr/mmorpg/encyclopedie/ressources/14457-patte-black-wabbit
p1562
aV/fr/mmorpg/encyclopedie/ressources/7310-clef-caverne-bulbes
p1563
aV/fr/mmorpg/encyclopedie/ressources/7435-rune-do
p1564
aV/fr/mmorpg/encyclopedie/ressources/8135-clef-donjon-bworks
p1565
aV/fr/mmorpg/encyclopedie/ressources/8731-corail-magistral
p1566
aV/fr/mmorpg/encyclopedie/ressources/1002-tronc-kokoko
p1567
aV/fr/mmorpg/encyclopedie/ressources/1754-poisson-igloo
p1568
aV/fr/mmorpg/encyclopedie/ressources/1785-raie-bleue-videe
p1569
aV/fr/mmorpg/encyclopedie/ressources/2618-kokopaille
p1570
aV/fr/mmorpg/encyclopedie/ressources/1678-noix-grokoko-traumatisee
p1571
aV/fr/mmorpg/encyclopedie/ressources/2619-lait-tortue
p1572
aV/fr/mmorpg/encyclopedie/ressources/14720-essence-kwakwa
p1573
aV/fr/mmorpg/encyclopedie/ressources/17130-viande-tendre
p1574
aV/fr/mmorpg/encyclopedie/ressources/14263-ecaille-grozilla
p1575
aV/fr/mmorpg/encyclopedie/ressources/7265-racine-bulbig
p1576
aV/fr/mmorpg/encyclopedie/ressources/315-diamant
p1577
aV/fr/mmorpg/encyclopedie/ressources/447-charbon
p1578
aV/fr/mmorpg/encyclopedie/ressources/997-noix-kokoko
p1579
aV/fr/mmorpg/encyclopedie/ressources/2610-carapace-rouge
p1580
aV/fr/mmorpg/encyclopedie/ressources/3000-casque-casse-bwork
p1581
aV/fr/mmorpg/encyclopedie/ressources/17131-bidoche-tendre
p1582
aV/fr/mmorpg/encyclopedie/ressources/14264-fausse-dent-grozilla
p1583
aV/fr/mmorpg/encyclopedie/ressources/13060-galet-bistre
p1584
aV/fr/mmorpg/encyclopedie/ressources/14652-essence-bworkette
p1585
aV/fr/mmorpg/encyclopedie/ressources/7654-planche-if
p1586
aV/fr/mmorpg/encyclopedie/ressources/8385-peau-shin-larve
p1587
aV/fr/mmorpg/encyclopedie/ressources/392-noix-pecan
p1588
aV/fr/mmorpg/encyclopedie/ressources/2611-carapace-jaune
p1589
aV/fr/mmorpg/encyclopedie/ressources/3001-epaulette-bwork
p1590
aV/fr/mmorpg/encyclopedie/ressources/316-emeraude
p1591
aV/fr/mmorpg/encyclopedie/ressources/14653-essence-forgerons
p1592
aV/fr/mmorpg/encyclopedie/ressources/8386-dent-shin-larve
p1593
aV/fr/mmorpg/encyclopedie/ressources/1789-raie-farle-videe
p1594
aV/fr/mmorpg/encyclopedie/ressources/3002-botte-trouee-bwork
p1595
aV/fr/mmorpg/encyclopedie/ressources/2613-carapace-bleue
p1596
aV/fr/mmorpg/encyclopedie/ressources/14654-essence-shin-larve
p1597
aV/fr/mmorpg/encyclopedie/ressources/16876-ougah
p1598
aV/fr/mmorpg/encyclopedie/ressources/13365-galet-saisonnier
p1599
aV/fr/mmorpg/encyclopedie/ressources/7269-ecorce-magique-bulbig
p1600
aV/fr/mmorpg/encyclopedie/ressources/7663-planche-bambou
p1601
aV/fr/mmorpg/encyclopedie/ressources/7670-planche-bambou-magique
p1602
aV/fr/mmorpg/encyclopedie/ressources/13595-peau-larve-rubis
p1603
aV/fr/mmorpg/encyclopedie/ressources/13714-dent-larve-rubis
p1604
aV/fr/mmorpg/encyclopedie/ressources/654-etoffe-wabbit
p1605
aV/fr/mmorpg/encyclopedie/ressources/16871-boble-mineure
p1606
aV/fr/mmorpg/encyclopedie/ressources/648-poils-wabbit
p1607
aV/fr/mmorpg/encyclopedie/ressources/2288-patte-wabbit
p1608
aV/fr/mmorpg/encyclopedie/ressources/14278-chaines-brisees
p1609
aV/fr/mmorpg/encyclopedie/ressources/13500-dent-larve-emeraude
p1610
aV/fr/mmorpg/encyclopedie/ressources/13594-peau-larve-emeraude
p1611
aV/fr/mmorpg/encyclopedie/ressources/7260-peau-pandikaze
p1612
aV/fr/mmorpg/encyclopedie/ressources/16149-oeil-abrakne
p1613
aV/fr/mmorpg/encyclopedie/ressources/372-bandeau-black-tiwabbit
p1614
aV/fr/mmorpg/encyclopedie/ressources/16507-nyoro
p1615
aV/fr/mmorpg/encyclopedie/ressources/646-poils-black-tiwabbit
p1616
aV/fr/mmorpg/encyclopedie/ressources/2664-os-crocodaille
p1617
aV/fr/mmorpg/encyclopedie/ressources/7258-poils-pandikaze
p1618
aV/fr/mmorpg/encyclopedie/ressources/2300-fragment-os
p1619
aV/fr/mmorpg/encyclopedie/ressources/7259-etoffe-pandikaze
p1620
aV/fr/mmorpg/encyclopedie/ressources/424-fibre-lin
p1621
aV/fr/mmorpg/encyclopedie/ressources/1663-ecaille-crocodaille
p1622
aV/fr/mmorpg/encyclopedie/ressources/6739-peau-crocodaille
p1623
aV/fr/mmorpg/encyclopedie/ressources/1664-dent-crocodaille
p1624
aV/fr/mmorpg/encyclopedie/ressources/426-fibre-chanvre
p1625
aV/fr/mmorpg/encyclopedie/ressources/16148-poil-abrakne
p1626
aV/fr/mmorpg/encyclopedie/ressources/410-livre-bwork-mage
p1627
aV/fr/mmorpg/encyclopedie/ressources/9940-nacre-brute
p1628
aV/fr/mmorpg/encyclopedie/ressources/11664-rune-pa-do-air
p1629
aV/fr/mmorpg/encyclopedie/ressources/2273-tissu-pourpre
p1630
aV/fr/mmorpg/encyclopedie/ressources/11658-rune-pa-do-terre
p1631
aV/fr/mmorpg/encyclopedie/ressources/16855-dagob-mineure
p1632
aV/fr/mmorpg/encyclopedie/ressources/3209-scalp-bwork-mage
p1633
aV/fr/mmorpg/encyclopedie/ressources/11666-rune-pa-do-neutre
p1634
aV/fr/mmorpg/encyclopedie/ressources/11650-rune-pa-do-pou
p1635
aV/fr/mmorpg/encyclopedie/ressources/13593-peau-larve-saphir
p1636
aV/fr/mmorpg/encyclopedie/ressources/7017-bois-bambou-dore
p1637
aV/fr/mmorpg/encyclopedie/ressources/7669-planche-bambou-dore
p1638
aV/fr/mmorpg/encyclopedie/ressources/2330-capsule-explosive
p1639
aV/fr/mmorpg/encyclopedie/ressources/14459-moustaches-tiwabbit
p1640
aV/fr/mmorpg/encyclopedie/ressources/360-oreilles-tiwabbit
p1641
aV/fr/mmorpg/encyclopedie/ressources/409-poils-barbe-bwork-mage
p1642
aV/fr/mmorpg/encyclopedie/ressources/11660-rune-pa-do-feu
p1643
aV/fr/mmorpg/encyclopedie/ressources/2287-cuir-noir
p1644
aV/fr/mmorpg/encyclopedie/ressources/10613-rune-pa-pi
p1645
aV/fr/mmorpg/encyclopedie/ressources/11654-rune-pa-do-cri
p1646
aV/fr/mmorpg/encyclopedie/ressources/13713-dent-larve-saphir
p1647
aV/fr/mmorpg/encyclopedie/ressources/11662-rune-pa-do-eau
p1648
aV/fr/mmorpg/encyclopedie/ressources/13505-bourse-suspecte
p1649
aV/fr/mmorpg/encyclopedie/ressources/14460-branche-tiwabbit-kiafin
p1650
aV/fr/mmorpg/encyclopedie/ressources/8807-jus-ouassingue
p1651
aV/fr/mmorpg/encyclopedie/ressources/2513-etoffe-sanglier-plaines
p1652
aV/fr/mmorpg/encyclopedie/ressources/2652-ver-air
p1653
aV/fr/mmorpg/encyclopedie/ressources/434-ecorce-abraknyde
p1654
aV/fr/mmorpg/encyclopedie/ressources/411-bec-kwak-glace
p1655
aV/fr/mmorpg/encyclopedie/ressources/435-racine-abraknyde
p1656
aV/fr/mmorpg/encyclopedie/ressources/2297-carreau-arbalete
p1657
aV/fr/mmorpg/encyclopedie/ressources/2514-sabot-sanglier-plaines
p1658
aV/fr/mmorpg/encyclopedie/ressources/2653-arakne-majeure-morte
p1659
aV/fr/mmorpg/encyclopedie/ressources/14461-langue-tiwabbit-kiafin
p1660
aV/fr/mmorpg/encyclopedie/ressources/8140-antennes-scarafeuille-noir
p1661
aV/fr/mmorpg/encyclopedie/ressources/412-bec-kwak-flamme
p1662
aV/fr/mmorpg/encyclopedie/ressources/1985-resine
p1663
aV/fr/mmorpg/encyclopedie/ressources/2515-groin-sanglier-plaines
p1664
aV/fr/mmorpg/encyclopedie/ressources/2654-oeuf-arakne-majeure
p1665
aV/fr/mmorpg/encyclopedie/ressources/2516-defense-sanglier-plaines
p1666
aV/fr/mmorpg/encyclopedie/ressources/2648-griffes-kwak
p1667
aV/fr/mmorpg/encyclopedie/ressources/8141-ailes-scarafeuille-noir
p1668
aV/fr/mmorpg/encyclopedie/ressources/8158-plume-graisseuse-tofu-ventripotent
p1669
aV/fr/mmorpg/encyclopedie/ressources/305-dent-wabbit
p1670
aV/fr/mmorpg/encyclopedie/ressources/413-bec-kwak-vent
p1671
aV/fr/mmorpg/encyclopedie/ressources/437-bourgeon-abraknyde
p1672
aV/fr/mmorpg/encyclopedie/ressources/792-seve-abraknyde
p1673
aV/fr/mmorpg/encyclopedie/ressources/1652-patte-arakne-majeure
p1674
aV/fr/mmorpg/encyclopedie/ressources/8730-coccyx-corailleur
p1675
aV/fr/mmorpg/encyclopedie/ressources/7668-planche-bois-tronknyde
p1676
aV/fr/mmorpg/encyclopedie/ressources/8801-etoffe-ouassingue
p1677
aV/fr/mmorpg/encyclopedie/ressources/414-plume-kwak-glace
p1678
aV/fr/mmorpg/encyclopedie/ressources/1141-plume-kwak-terre
p1679
aV/fr/mmorpg/encyclopedie/ressources/2649-ver-terre
p1680
aV/fr/mmorpg/encyclopedie/ressources/2656-fil-resistant
p1681
aV/fr/mmorpg/encyclopedie/ressources/2556-pollen-blop
p1682
aV/fr/mmorpg/encyclopedie/ressources/415-plume-kwak-flamme
p1683
aV/fr/mmorpg/encyclopedie/ressources/1142-bec-kwak-terre
p1684
aV/fr/mmorpg/encyclopedie/ressources/1894-poil-sanglier-plaines
p1685
aV/fr/mmorpg/encyclopedie/ressources/416-plume-kwak-vent
p1686
aV/fr/mmorpg/encyclopedie/ressources/485-slip-cuir-chafer-lancier
p1687
aV/fr/mmorpg/encyclopedie/ressources/2557-petale-blop
p1688
aV/fr/mmorpg/encyclopedie/ressources/361-cawotte
p1689
aV/fr/mmorpg/encyclopedie/ressources/1670-plume-pointue-kwak-vent
p1690
aV/fr/mmorpg/encyclopedie/ressources/2510-estomac-sanglier-plaines
p1691
aV/fr/mmorpg/encyclopedie/ressources/2558-blop-mort
p1692
aV/fr/mmorpg/encyclopedie/ressources/8138-carapace-scarafeuille-noir
p1693
aV/fr/mmorpg/encyclopedie/ressources/463-ambre
p1694
aV/fr/mmorpg/encyclopedie/ressources/2511-cuir-sanglier-plaines
p1695
aV/fr/mmorpg/encyclopedie/ressources/2650-ver-eau
p1696
aV/fr/mmorpg/encyclopedie/ressources/2651-ver-feu
p1697
aV/fr/mmorpg/encyclopedie/ressources/433-femur-chafer-archer
p1698
aV/fr/mmorpg/encyclopedie/ressources/464-ambre-abraknyde
p1699
aV/fr/mmorpg/encyclopedie/ressources/2512-queue-sanglier-plaines
p1700
aV/fr/mmorpg/encyclopedie/ressources/8729-corail-use
p1701
aV/fr/mmorpg/encyclopedie/ressources/16852-bihilete
p1702
aV/fr/mmorpg/encyclopedie/ressources/8751-bulbe-passaoh
p1703
aV/fr/mmorpg/encyclopedie/ressources/2280-paille-vampiresque
p1704
aV/fr/mmorpg/encyclopedie/ressources/8745-petale-kouracao
p1705
aV/fr/mmorpg/encyclopedie/ressources/8752-bulbe-morito
p1706
aV/fr/mmorpg/encyclopedie/ressources/8746-petale-malibout
p1707
aV/fr/mmorpg/encyclopedie/ressources/429-pointe-fleche-bwork-archer
p1708
aV/fr/mmorpg/encyclopedie/ressources/3208-slip-bwork-archer
p1709
aV/fr/mmorpg/encyclopedie/ressources/2268-scalp-bwork-archer
p1710
aV/fr/mmorpg/encyclopedie/ressources/8747-petale-passaoh
p1711
aV/fr/mmorpg/encyclopedie/ressources/13339-sceau-royal-contrefait
p1712
aV/fr/mmorpg/encyclopedie/ressources/8748-petale-morito
p1713
aV/fr/mmorpg/encyclopedie/ressources/274-piece-puzzle-griffe
p1714
aV/fr/mmorpg/encyclopedie/ressources/408-dentier-chafer-elite
p1715
aV/fr/mmorpg/encyclopedie/ressources/8749-bulbe-kouracao
p1716
aV/fr/mmorpg/encyclopedie/ressources/276-piece-tresor-badoul
p1717
aV/fr/mmorpg/encyclopedie/ressources/391-noix-cajou
p1718
aV/fr/mmorpg/encyclopedie/ressources/2271-cuir-violet-bwork
p1719
aV/fr/mmorpg/encyclopedie/ressources/8750-bulbe-malibout
p1720
aV/fr/mmorpg/encyclopedie/ressources/8744-pince-crustorail
p1721
aV/fr/mmorpg/encyclopedie/ressources/7262-racine-bulbiflore
p1722
aV/fr/mmorpg/encyclopedie/ressources/7270-ecorce-magique-bulbiflore
p1723
aV/fr/mmorpg/encyclopedie/ressources/8732-corail-kouracao
p1724
aV/fr/mmorpg/encyclopedie/ressources/7266-fleur-bulbiflore
p1725
aV/fr/mmorpg/encyclopedie/ressources/8733-corail-malibout
p1726
aV/fr/mmorpg/encyclopedie/ressources/8734-corail-passaoh
p1727
aV/fr/mmorpg/encyclopedie/ressources/8735-corail-morito
p1728
aV/fr/mmorpg/encyclopedie/ressources/2506-grelot
p1729
aV/fr/mmorpg/encyclopedie/ressources/2507-langue-fourchue
p1730
aV/fr/mmorpg/encyclopedie/ressources/13730-graine-discorde
p1731
aV/fr/mmorpg/encyclopedie/ressources/1891-peau-serpentin
p1732
aV/fr/mmorpg/encyclopedie/ressources/2508-venin-serpentin
p1733
aV/fr/mmorpg/encyclopedie/ressources/2509-dent-serpentin
p1734
aV/fr/mmorpg/encyclopedie/ressources/16864-dynamo
p1735
aV/fr/mmorpg/encyclopedie/ressources/965-pierre-dopeul
p1736
aV/fr/mmorpg/encyclopedie/ressources/13729-papier-charbon
p1737
aV/fr/mmorpg/encyclopedie/ressources/13489-miroir-dopeul
p1738
aV/fr/mmorpg/encyclopedie/ressources/11649-rune-do-pou
p1739
aV/fr/mmorpg/encyclopedie/ressources/11663-rune-do-air
p1740
aV/fr/mmorpg/encyclopedie/ressources/14648-essence-scarabosse-dore
p1741
aV/fr/mmorpg/encyclopedie/ressources/6476-bougie-magique-mineur-sombre
p1742
aV/fr/mmorpg/encyclopedie/ressources/7657-planche-erable
p1743
aV/fr/mmorpg/encyclopedie/ressources/16000-kamiam
p1744
aV/fr/mmorpg/encyclopedie/ressources/17128-viande-minerale
p1745
aV/fr/mmorpg/encyclopedie/ressources/395-trefle-5-feuilles
p1746
aV/fr/mmorpg/encyclopedie/ressources/465-cristal
p1747
aV/fr/mmorpg/encyclopedie/ressources/442-bronze
p1748
aV/fr/mmorpg/encyclopedie/ressources/1340-potion-eboulement
p1749
aV/fr/mmorpg/encyclopedie/ressources/16001-antennes-vilinsekt
p1750
aV/fr/mmorpg/encyclopedie/ressources/16380-trefle-agare
p1751
aV/fr/mmorpg/encyclopedie/ressources/17129-bidoche-minerale
p1752
aV/fr/mmorpg/encyclopedie/ressources/11657-rune-do-terre
p1753
aV/fr/mmorpg/encyclopedie/ressources/14649-essence-batofu
p1754
aV/fr/mmorpg/encyclopedie/ressources/11665-rune-do-neutre
p1755
aV/fr/mmorpg/encyclopedie/ressources/12745-substrat-bocage
p1756
aV/fr/mmorpg/encyclopedie/ressources/13096-femur-chafer-r\u014dnin
p1757
aV/fr/mmorpg/encyclopedie/ressources/7286-bois-bambouto
p1758
aV/fr/mmorpg/encyclopedie/ressources/9941-nacre
p1759
aV/fr/mmorpg/encyclopedie/ressources/746-ebonite
p1760
aV/fr/mmorpg/encyclopedie/ressources/1341-potion-averse
p1761
aV/fr/mmorpg/encyclopedie/ressources/2553-gros-boulet
p1762
aV/fr/mmorpg/encyclopedie/ressources/15991-clef-cache-kankreblath
p1763
aV/fr/mmorpg/encyclopedie/ressources/16002-patte-kankreblath
p1764
aV/fr/mmorpg/encyclopedie/ressources/7287-feuille-bambouto
p1765
aV/fr/mmorpg/encyclopedie/ressources/1342-potion-rafale
p1766
aV/fr/mmorpg/encyclopedie/ressources/11659-rune-do-feu
p1767
aV/fr/mmorpg/encyclopedie/ressources/13097-machoire-chafer-draugr
p1768
aV/fr/mmorpg/encyclopedie/ressources/11799-clef-maison-fantome
p1769
aV/fr/mmorpg/encyclopedie/ressources/13098-casque-chafer-primitif
p1770
aV/fr/mmorpg/encyclopedie/ressources/8159-carapace-scarabosse-dore
p1771
aV/fr/mmorpg/encyclopedie/ressources/16491-planche-griller
p1772
aV/fr/mmorpg/encyclopedie/ressources/476-bois-noyer
p1773
aV/fr/mmorpg/encyclopedie/ressources/1343-potion-flambee
p1774
aV/fr/mmorpg/encyclopedie/ressources/2555-selle-cuir
p1775
aV/fr/mmorpg/encyclopedie/ressources/1762-poisson-tigre
p1776
aV/fr/mmorpg/encyclopedie/ressources/1793-bar-iton-vide
p1777
aV/fr/mmorpg/encyclopedie/ressources/14650-essence-boostache
p1778
aV/fr/mmorpg/encyclopedie/ressources/16911-seve-noyer
p1779
aV/fr/mmorpg/encyclopedie/ressources/12150-clef-donjon-nowel
p1780
aV/fr/mmorpg/encyclopedie/ressources/14651-essence-chafer-r\u014dnin
p1781
aV/fr/mmorpg/encyclopedie/ressources/7437-rune-do-ren
p1782
aV/fr/mmorpg/encyclopedie/ressources/7918-clef-donjon-tofus
p1783
aV/fr/mmorpg/encyclopedie/ressources/8137-visceres-scarabosse-dore
p1784
aV/fr/mmorpg/encyclopedie/ressources/2379-bois-kaerlier
p1785
aV/fr/mmorpg/encyclopedie/ressources/16285-essence-kankreblath
p1786
aV/fr/mmorpg/encyclopedie/ressources/11653-rune-do-cri
p1787
aV/fr/mmorpg/encyclopedie/ressources/533-avoine
p1788
aV/fr/mmorpg/encyclopedie/ressources/603-poisson-chaton
p1789
aV/fr/mmorpg/encyclopedie/ressources/1570-clef-donjon-squelettes
p1790
aV/fr/mmorpg/encyclopedie/ressources/11661-rune-do-eau
p1791
aV/fr/mmorpg/encyclopedie/ressources/12835-moule-clef-donjon-nowel
p1792
aV/fr/mmorpg/encyclopedie/ressources/7369-ambre-bambouto
p1793
aV/fr/mmorpg/encyclopedie/ressources/7446-rune-pi
p1794
aV/fr/mmorpg/encyclopedie/ressources/8139-clef-donjon-scarafeuilles
p1795
aV/fr/mmorpg/encyclopedie/ressources/8160-antennes-scarabosse-dore
p1796
aV/fr/mmorpg/encyclopedie/ressources/8557-plume-batofu
p1797
aV/fr/mmorpg/encyclopedie/ressources/6475-casque-casse-chafer
p1798
aV/fr/mmorpg/encyclopedie/ressources/7290-racine-magique-bambouto
p1799
aV/fr/mmorpg/encyclopedie/ressources/8161-ailes-scarabosse-dore
p1800
aV/fr/mmorpg/encyclopedie/ressources/1780-bar-rikain-vide
p1801
aV/fr/mmorpg/encyclopedie/ressources/7285-patte-araknawa
p1802
aV/fr/mmorpg/encyclopedie/ressources/2250-bois-tronknyde
p1803
aV/fr/mmorpg/encyclopedie/ressources/16165-lamelle-champa-bleu
p1804
aV/fr/mmorpg/encyclopedie/ressources/16166-lamelle-champa-marron
p1805
aV/fr/mmorpg/encyclopedie/ressources/7264-racine-bulbambou
p1806
aV/fr/mmorpg/encyclopedie/ressources/16167-lamelle-champa-rouge
p1807
aV/fr/mmorpg/encyclopedie/ressources/2315-poils-crocs-glands
p1808
aV/fr/mmorpg/encyclopedie/ressources/2501-queue-croc-gland
p1809
aV/fr/mmorpg/encyclopedie/ressources/2563-cale-bois-tronknyde
p1810
aV/fr/mmorpg/encyclopedie/ressources/7272-ecorce-magique-bulbambou
p1811
aV/fr/mmorpg/encyclopedie/ressources/2316-croc-jaune
p1812
aV/fr/mmorpg/encyclopedie/ressources/16168-lamelle-champa-vert
p1813
aV/fr/mmorpg/encyclopedie/ressources/2317-oreilles-croc-gland
p1814
aV/fr/mmorpg/encyclopedie/ressources/2502-papatte-croc-gland
p1815
aV/fr/mmorpg/encyclopedie/ressources/2564-sourcils-tronknyde
p1816
aV/fr/mmorpg/encyclopedie/ressources/2565-tranche-tronknyde
p1817
aV/fr/mmorpg/encyclopedie/ressources/2249-feuille-tronknyde
p1818
aV/fr/mmorpg/encyclopedie/ressources/2504-langue-croc-gland
p1819
aV/fr/mmorpg/encyclopedie/ressources/2566-tranche-magique-tronknyde
p1820
aV/fr/mmorpg/encyclopedie/ressources/7268-pousses-bulbambou
p1821
aV/fr/mmorpg/encyclopedie/ressources/2505-croquette
p1822
aV/fr/mmorpg/encyclopedie/ressources/1457-ailes-scarafeuille-rouge
p1823
aV/fr/mmorpg/encyclopedie/ressources/1464-antenne-scarafeuille-bleu
p1824
aV/fr/mmorpg/encyclopedie/ressources/1458-ailes-scarafeuille-vert
p1825
aV/fr/mmorpg/encyclopedie/ressources/1465-antenne-scarafeuille-rouge
p1826
aV/fr/mmorpg/encyclopedie/ressources/1466-antenne-scarafeuille-vert
p1827
aV/fr/mmorpg/encyclopedie/ressources/398-fruit-palme
p1828
aV/fr/mmorpg/encyclopedie/ressources/1467-antenne-scarafeuille-blanc
p1829
aV/fr/mmorpg/encyclopedie/ressources/2290-carapace-scarafeuille-blanc
p1830
aV/fr/mmorpg/encyclopedie/ressources/2291-carapace-scarafeuille-bleu
p1831
aV/fr/mmorpg/encyclopedie/ressources/2292-carapace-scarafeuille-rouge
p1832
aV/fr/mmorpg/encyclopedie/ressources/2293-carapace-scarafeuille-vert
p1833
aV/fr/mmorpg/encyclopedie/ressources/1455-ailes-scarafeuille-bleu
p1834
aV/fr/mmorpg/encyclopedie/ressources/2294-visceres-scarafeuille
p1835
aV/fr/mmorpg/encyclopedie/ressources/1456-ailes-scarafeuille-blanc
p1836
aV/fr/mmorpg/encyclopedie/ressources/16995-pikmi-mineure
p1837
aV/fr/mmorpg/encyclopedie/ressources/2336-crane-chafer
p1838
aV/fr/mmorpg/encyclopedie/ressources/2490-patte-scorbute
p1839
aV/fr/mmorpg/encyclopedie/ressources/2150-graine-scorbute
p1840
aV/fr/mmorpg/encyclopedie/ressources/1893-queue-scorbute
p1841
aV/fr/mmorpg/encyclopedie/ressources/2012-sang-scorbute
p1842
aV/fr/mmorpg/encyclopedie/ressources/2245-pince-scorbute
p1843
aV/fr/mmorpg/encyclopedie/ressources/2487-carapace-scorbute
p1844
aV/fr/mmorpg/encyclopedie/ressources/2488-visceres-scorbute
p1845
aV/fr/mmorpg/encyclopedie/ressources/11656-rune-pa-re-cri
p1846
aV/fr/mmorpg/encyclopedie/ressources/2669-chauve-souris
p1847
aV/fr/mmorpg/encyclopedie/ressources/302-citrouille
p1848
aV/fr/mmorpg/encyclopedie/ressources/752-sang-vampire
p1849
aV/fr/mmorpg/encyclopedie/ressources/16847-horize-mineure
p1850
aV/fr/mmorpg/encyclopedie/ressources/1675-os-surprise-chafer-fantassin
p1851
aV/fr/mmorpg/encyclopedie/ressources/2281-tissu-sanguin
p1852
aV/fr/mmorpg/encyclopedie/ressources/756-slip-cuir-moulant-vampire
p1853
aV/fr/mmorpg/encyclopedie/ressources/11652-rune-pa-re-pou
p1854
aV/fr/mmorpg/encyclopedie/ressources/13502-fluide-glacial
p1855
aV/fr/mmorpg/encyclopedie/ressources/2285-tissu-sombre
p1856
aV/fr/mmorpg/encyclopedie/ressources/2279-dent-pointue
p1857
aV/fr/mmorpg/encyclopedie/ressources/7661-planche-bombu
p1858
aV/fr/mmorpg/encyclopedie/ressources/2674-citrouillette
p1859
aV/fr/mmorpg/encyclopedie/ressources/7662-planche-oliviolet
p1860
aV/fr/mmorpg/encyclopedie/ressources/2323-colonne-vertebrale
p1861
aV/fr/mmorpg/encyclopedie/ressources/2266-lait-cochon-lait
p1862
aV/fr/mmorpg/encyclopedie/ressources/2647-oreille-cochon-lait
p1863
aV/fr/mmorpg/encyclopedie/ressources/901-cuir-cochon-lait
p1864
aV/fr/mmorpg/encyclopedie/ressources/8516-coeur-bworkcelhaine
p1865
aV/fr/mmorpg/encyclopedie/ressources/479-ivoire
p1866
aV/fr/mmorpg/encyclopedie/ressources/2642-machoire-rib
p1867
aV/fr/mmorpg/encyclopedie/ressources/432-cotes-rib
p1868
aV/fr/mmorpg/encyclopedie/ressources/396-huile-palme
p1869
aV/fr/mmorpg/encyclopedie/ressources/2576-scalp-milimulou
p1870
aV/fr/mmorpg/encyclopedie/ressources/16955-hulhu-mineure
p1871
aV/fr/mmorpg/encyclopedie/ressources/397-huile-koode
p1872
aV/fr/mmorpg/encyclopedie/ressources/1690-poils-milimulou
p1873
aV/fr/mmorpg/encyclopedie/ressources/2579-oeil-milimulou
p1874
aV/fr/mmorpg/encyclopedie/ressources/390-huile-noix
p1875
aV/fr/mmorpg/encyclopedie/ressources/1685-plume-dernier-poolay
p1876
aV/fr/mmorpg/encyclopedie/ressources/2259-dent-karne
p1877
aV/fr/mmorpg/encyclopedie/ressources/382-ongle-chevaucheur-karne
p1878
aV/fr/mmorpg/encyclopedie/ressources/2264-peau-gobelin
p1879
aV/fr/mmorpg/encyclopedie/ressources/7020-fleur-lotus
p1880
aV/fr/mmorpg/encyclopedie/ressources/7455-rune-re-terre
p1881
aV/fr/mmorpg/encyclopedie/ressources/2056-oeil-corbac
p1882
aV/fr/mmorpg/encyclopedie/ressources/15379-fragment-carte-frakacia-1-3
p1883
aV/fr/mmorpg/encyclopedie/ressources/466-saphir
p1884
aV/fr/mmorpg/encyclopedie/ressources/543-pierre-diamant
p1885
aV/fr/mmorpg/encyclopedie/ressources/7456-rune-re-neutre
p1886
aV/fr/mmorpg/encyclopedie/ressources/544-pierre-emeraude
p1887
aV/fr/mmorpg/encyclopedie/ressources/2058-coeur-brandon
p1888
aV/fr/mmorpg/encyclopedie/ressources/545-pierre-cristal
p1889
aV/fr/mmorpg/encyclopedie/ressources/886-cuir-bouftou-royal
p1890
aV/fr/mmorpg/encyclopedie/ressources/1568-clef-donjon-bouftous
p1891
aV/fr/mmorpg/encyclopedie/ressources/2059-corbac-mort
p1892
aV/fr/mmorpg/encyclopedie/ressources/15380-fragment-carte-frakacia-2-3
p1893
aV/fr/mmorpg/encyclopedie/ressources/546-pierre-saphir
p1894
aV/fr/mmorpg/encyclopedie/ressources/1569-clef-donjon-forgerons
p1895
aV/fr/mmorpg/encyclopedie/ressources/7652-potion-souvenir
p1896
aV/fr/mmorpg/encyclopedie/ressources/547-pierre-rubis
p1897
aV/fr/mmorpg/encyclopedie/ressources/11651-rune-re-pou
p1898
aV/fr/mmorpg/encyclopedie/ressources/15381-fragment-carte-frakacia-3-3
p1899
aV/fr/mmorpg/encyclopedie/ressources/16841-proxima
p1900
aV/fr/mmorpg/encyclopedie/ressources/7653-planche-chene
p1901
aV/fr/mmorpg/encyclopedie/ressources/8517-moumoule
p1902
aV/fr/mmorpg/encyclopedie/ressources/501-seve-abraknyde-retravaillee
p1903
aV/fr/mmorpg/encyclopedie/ressources/880-laine-bouftou-royal
p1904
aV/fr/mmorpg/encyclopedie/ressources/1757-crabe-sourimi
p1905
aV/fr/mmorpg/encyclopedie/ressources/1889-plume-corbac
p1906
aV/fr/mmorpg/encyclopedie/ressources/2060-patte-corbac
p1907
aV/fr/mmorpg/encyclopedie/ressources/7452-rune-re-feu
p1908
aV/fr/mmorpg/encyclopedie/ressources/15478-culotte-frakacia
p1909
aV/fr/mmorpg/encyclopedie/ressources/17126-viande-frelatee
p1910
aV/fr/mmorpg/encyclopedie/ressources/1462-liquide-vampiresque
p1911
aV/fr/mmorpg/encyclopedie/ressources/7453-rune-re-air
p1912
aV/fr/mmorpg/encyclopedie/ressources/7454-rune-re-eau
p1913
aV/fr/mmorpg/encyclopedie/ressources/1759-crabe-sourimi-exotique
p1914
aV/fr/mmorpg/encyclopedie/ressources/11655-rune-re-cri
p1915
aV/fr/mmorpg/encyclopedie/ressources/14647-essence-bouftou-royal
p1916
aV/fr/mmorpg/encyclopedie/ressources/15378-carte-frakacia
p1917
aV/fr/mmorpg/encyclopedie/ressources/17127-bidoche-frelatee
p1918
aV/fr/mmorpg/encyclopedie/ressources/2467-sabot-chef-guerre-bouftou
p1919
aV/fr/mmorpg/encyclopedie/ressources/2481-groin-porkass
p1920
aV/fr/mmorpg/encyclopedie/ressources/2468-estomac-chef-guerre-bouftou
p1921
aV/fr/mmorpg/encyclopedie/ressources/2482-soulier-porkass
p1922
aV/fr/mmorpg/encyclopedie/ressources/2499-museau-kolerat
p1923
aV/fr/mmorpg/encyclopedie/ressources/2483-dentier-porkass
p1924
aV/fr/mmorpg/encyclopedie/ressources/2275-cuir-porkass
p1925
aV/fr/mmorpg/encyclopedie/ressources/2484-trident-casse
p1926
aV/fr/mmorpg/encyclopedie/ressources/2554-cotes-porkass
p1927
aV/fr/mmorpg/encyclopedie/ressources/887-cuir-chef-guerre-bouftou
p1928
aV/fr/mmorpg/encyclopedie/ressources/2500-kolerat-mort
p1929
aV/fr/mmorpg/encyclopedie/ressources/2462-cervelle-chef-guerre-bouftou
p1930
aV/fr/mmorpg/encyclopedie/ressources/2479-crete-porkass
p1931
aV/fr/mmorpg/encyclopedie/ressources/2486-oreille-porkass
p1932
aV/fr/mmorpg/encyclopedie/ressources/2463-dent-chef-guerre-bouftou
p1933
aV/fr/mmorpg/encyclopedie/ressources/2301-moustache-kolerat
p1934
aV/fr/mmorpg/encyclopedie/ressources/2464-queue-chef-guerre-bouftou
p1935
aV/fr/mmorpg/encyclopedie/ressources/2495-oeil-kolerat
p1936
aV/fr/mmorpg/encyclopedie/ressources/2503-etoffe-croc-gland
p1937
aV/fr/mmorpg/encyclopedie/ressources/2465-corne-chef-guerre-bouftou
p1938
aV/fr/mmorpg/encyclopedie/ressources/2496-queue-kolerat
p1939
aV/fr/mmorpg/encyclopedie/ressources/882-laine-chef-guerre-bouftou
p1940
aV/fr/mmorpg/encyclopedie/ressources/2466-langue-chef-guerre-bouftou
p1941
aV/fr/mmorpg/encyclopedie/ressources/2480-slip-cuir-porkass
p1942
aV/fr/mmorpg/encyclopedie/ressources/2497-oreille-kolerat
p1943
aV/fr/mmorpg/encyclopedie/ressources/2584-main-boo
p1944
aV/fr/mmorpg/encyclopedie/ressources/2585-coeur-boue-boo
p1945
aV/fr/mmorpg/encyclopedie/ressources/417-boue-boo
p1946
aV/fr/mmorpg/encyclopedie/ressources/1774-fleur-blop-reinette
p1947
aV/fr/mmorpg/encyclopedie/ressources/1775-bout-blop-griotte
p1948
aV/fr/mmorpg/encyclopedie/ressources/1776-fleur-blop-griotte
p1949
aV/fr/mmorpg/encyclopedie/ressources/653-etoffe-prespic
p1950
aV/fr/mmorpg/encyclopedie/ressources/1777-bout-blop-indigo
p1951
aV/fr/mmorpg/encyclopedie/ressources/375-dent-tofu-malefique
p1952
aV/fr/mmorpg/encyclopedie/ressources/407-pic-prespic
p1953
aV/fr/mmorpg/encyclopedie/ressources/1778-fleur-blop-indigo
p1954
aV/fr/mmorpg/encyclopedie/ressources/376-aile-tofu-malefique
p1955
aV/fr/mmorpg/encyclopedie/ressources/1770-bout-blop-coco
p1956
aV/fr/mmorpg/encyclopedie/ressources/2571-patte-prespic
p1957
aV/fr/mmorpg/encyclopedie/ressources/2572-estomac-prespic
p1958
aV/fr/mmorpg/encyclopedie/ressources/2673-oeuf-pourri
p1959
aV/fr/mmorpg/encyclopedie/ressources/1772-fleur-blop-coco
p1960
aV/fr/mmorpg/encyclopedie/ressources/1974-feuille-salace
p1961
aV/fr/mmorpg/encyclopedie/ressources/2573-queue-prespic
p1962
aV/fr/mmorpg/encyclopedie/ressources/2675-plume-tofu-malefique
p1963
aV/fr/mmorpg/encyclopedie/ressources/1672-poils-darits
p1964
aV/fr/mmorpg/encyclopedie/ressources/1773-bout-blop-reinette
p1965
aV/fr/mmorpg/encyclopedie/ressources/2574-criniere-prespic
p1966
aV/fr/mmorpg/encyclopedie/ressources/12440-flaque-juvenile
p1967
aV/fr/mmorpg/encyclopedie/ressources/10616-rune-ra-pi-per
p1968
aV/fr/mmorpg/encyclopedie/ressources/12428-boue-juvenile
p1969
aV/fr/mmorpg/encyclopedie/ressources/12860-fond-culotte-glugubrr
p1970
aV/fr/mmorpg/encyclopedie/ressources/12436-cendres-juveniles
p1971
aV/fr/mmorpg/encyclopedie/ressources/10619-rune-ra-pui
p1972
aV/fr/mmorpg/encyclopedie/ressources/12444-fumee-juvenile
p1973
aV/fr/mmorpg/encyclopedie/ressources/1552-rune-ra
p1974
aV/fr/mmorpg/encyclopedie/ressources/12833-patron-glutin
p1975
aV/fr/mmorpg/encyclopedie/ressources/16842-butor-mineure
p1976
aV/fr/mmorpg/encyclopedie/ressources/12448-jaune-oeuf-krokille
p1977
aV/fr/mmorpg/encyclopedie/ressources/12432-poudre-juvenile
p1978
aV/fr/mmorpg/encyclopedie/ressources/388-poils-sanglier
p1979
aV/fr/mmorpg/encyclopedie/ressources/480-minerai-etrange
p1980
aV/fr/mmorpg/encyclopedie/ressources/450-pierre-granit
p1981
aV/fr/mmorpg/encyclopedie/ressources/652-etoffe-sanglier
p1982
aV/fr/mmorpg/encyclopedie/ressources/2274-bougie-mineur-sombre
p1983
aV/fr/mmorpg/encyclopedie/ressources/2282-touffe-cheveux-blancs
p1984
aV/fr/mmorpg/encyclopedie/ressources/448-silex
p1985
aV/fr/mmorpg/encyclopedie/ressources/486-cuir-sanglier
p1986
aV/fr/mmorpg/encyclopedie/ressources/386-groin-sanglier
p1987
aV/fr/mmorpg/encyclopedie/ressources/393-gland
p1988
aV/fr/mmorpg/encyclopedie/ressources/8759-coffret-maudit-flib
p1989
aV/fr/mmorpg/encyclopedie/ressources/387-defense-sanglier
p1990
aV/fr/mmorpg/encyclopedie/ressources/394-noisette
p1991
aV/fr/mmorpg/encyclopedie/ressources/16986-peho-mineure
p1992
aV/fr/mmorpg/encyclopedie/ressources/430-os-invisible-chafer-invisible
p1993
aV/fr/mmorpg/encyclopedie/ressources/2278-tissu-invisible
p1994
aV/fr/mmorpg/encyclopedie/ressources/363-peau-larve-orange
p1995
aV/fr/mmorpg/encyclopedie/ressources/2676-noeul-mort
p1996
aV/fr/mmorpg/encyclopedie/ressources/288-graine-tournesol-sauvage
p1997
aV/fr/mmorpg/encyclopedie/ressources/6841-etoffe-ours
p1998
aV/fr/mmorpg/encyclopedie/ressources/2661-feuille-tournesol-sauvage
p1999
aV/fr/mmorpg/encyclopedie/ressources/16963-kyoub-mineure
p2000
aV/fr/mmorpg/encyclopedie/ressources/6842-dent-ours
p2001
aV/fr/mmorpg/encyclopedie/ressources/6843-os-ours
p2002
aV/fr/mmorpg/encyclopedie/ressources/6844-poils-ours
p2003
aV/fr/mmorpg/encyclopedie/ressources/6845-peau-ours
p2004
aV/fr/mmorpg/encyclopedie/ressources/2659-petale-tournesol-sauvage
p2005
aV/fr/mmorpg/encyclopedie/ressources/10615-rune-pa-pi-per
p2006
aV/fr/mmorpg/encyclopedie/ressources/13342-tatouage-mauvais-garcon
p2007
aV/fr/mmorpg/encyclopedie/ressources/7671-planche-bois-bambouto
p2008
aV/fr/mmorpg/encyclopedie/ressources/441-cuivre
p2009
aV/fr/mmorpg/encyclopedie/ressources/1798-kralamoure-vide
p2010
aV/fr/mmorpg/encyclopedie/ressources/1844-truite
p2011
aV/fr/mmorpg/encyclopedie/ressources/2032-orge-sucre
p2012
aV/fr/mmorpg/encyclopedie/ressources/428-sauge
p2013
aV/fr/mmorpg/encyclopedie/ressources/473-bois-chataignier
p2014
aV/fr/mmorpg/encyclopedie/ressources/1333-potion-etincelle
p2015
aV/fr/mmorpg/encyclopedie/ressources/2646-slip-cuir-cochon-lait
p2016
aV/fr/mmorpg/encyclopedie/ressources/10662-rune-pa-prospe
p2017
aV/fr/mmorpg/encyclopedie/ressources/7659-planche-noyer
p2018
aV/fr/mmorpg/encyclopedie/ressources/8157-petale-magique-tournesol-affame
p2019
aV/fr/mmorpg/encyclopedie/ressources/607-truite-vaseuse
p2020
aV/fr/mmorpg/encyclopedie/ressources/1846-truite-ancestrale
p2021
aV/fr/mmorpg/encyclopedie/ressources/2539-substrat-buisson
p2022
aV/fr/mmorpg/encyclopedie/ressources/747-aluminite
p2023
aV/fr/mmorpg/encyclopedie/ressources/1335-potion-crachin
p2024
aV/fr/mmorpg/encyclopedie/ressources/8437-clef-donjon-ensable
p2025
aV/fr/mmorpg/encyclopedie/ressources/10618-rune-pa-pui
p2026
aV/fr/mmorpg/encyclopedie/ressources/16490-planche-contreplaquee
p2027
aV/fr/mmorpg/encyclopedie/ressources/13726-conque-marine
p2028
aV/fr/mmorpg/encyclopedie/ressources/16910-seve-chataignier
p2029
aV/fr/mmorpg/encyclopedie/ressources/1800-kralamoure-unique-vide
p2030
aV/fr/mmorpg/encyclopedie/ressources/2036-avoine-aurifere
p2031
aV/fr/mmorpg/encyclopedie/ressources/1337-potion-courant-air
p2032
aV/fr/mmorpg/encyclopedie/ressources/1546-rune-pa
p2033
aV/fr/mmorpg/encyclopedie/ressources/13727-creme-bronzer
p2034
aV/fr/mmorpg/encyclopedie/ressources/13487-serviette-plage
p2035
aV/fr/mmorpg/encyclopedie/ressources/13494-nageoire-competition
p2036
aV/fr/mmorpg/encyclopedie/ressources/13728-paupiere-etoile
p2037
aV/fr/mmorpg/encyclopedie/ressources/1338-potion-secousse
p2038
aV/fr/mmorpg/encyclopedie/ressources/17124-viande-faisandee
p2039
aV/fr/mmorpg/encyclopedie/ressources/14645-essence-tournesol-affame
p2040
aV/fr/mmorpg/encyclopedie/ressources/16379-sauge-divine-rhum
p2041
aV/fr/mmorpg/encyclopedie/ressources/17125-bidoche-faisandee
p2042
aV/fr/mmorpg/encyclopedie/ressources/400-orge
p2043
aV/fr/mmorpg/encyclopedie/ressources/1671-avoine-magique
p2044
aV/fr/mmorpg/encyclopedie/ressources/1689-teinture-magique-orange
p2045
aV/fr/mmorpg/encyclopedie/ressources/8680-ecaille-poisseuse
p2046
aV/fr/mmorpg/encyclopedie/ressources/2451-sabot-bouftou
p2047
aV/fr/mmorpg/encyclopedie/ressources/304-cuir-bouftou
p2048
aV/fr/mmorpg/encyclopedie/ressources/2453-oeil-bouftou
p2049
aV/fr/mmorpg/encyclopedie/ressources/2454-estomac-bouftou
p2050
aV/fr/mmorpg/encyclopedie/ressources/2448-cervelle-bouftou
p2051
aV/fr/mmorpg/encyclopedie/ressources/2455-sang-bouftou
p2052
aV/fr/mmorpg/encyclopedie/ressources/383-corne-bouftou
p2053
aV/fr/mmorpg/encyclopedie/ressources/384-laine-bouftou
p2054
aV/fr/mmorpg/encyclopedie/ressources/2449-armee-tiques
p2055
aV/fr/mmorpg/encyclopedie/ressources/364-peau-larve-verte
p2056
aV/fr/mmorpg/encyclopedie/ressources/1681-peau-larve-verte-magique
p2057
aV/fr/mmorpg/encyclopedie/ressources/16990-domo-mineure
p2058
aV/fr/mmorpg/encyclopedie/ressources/2662-bave-rose-demoniaque
p2059
aV/fr/mmorpg/encyclopedie/ressources/2322-crocs-rats
p2060
aV/fr/mmorpg/encyclopedie/ressources/1679-pierre-crystaloboule
p2061
aV/fr/mmorpg/encyclopedie/ressources/309-petale-rose-demoniaque
p2062
aV/fr/mmorpg/encyclopedie/ressources/641-coton-ancestral
p2063
aV/fr/mmorpg/encyclopedie/ressources/1674-champignon-luidegit
p2064
aV/fr/mmorpg/encyclopedie/ressources/1521-rune
p2065
aV/fr/mmorpg/encyclopedie/ressources/7436-rune-pui
p2066
aV/fr/mmorpg/encyclopedie/ressources/16959-yoche-mineure
p2067
aV/fr/mmorpg/encyclopedie/ressources/7451-rune-prospe
p2068
aV/fr/mmorpg/encyclopedie/ressources/290-champignon
p2069
aV/fr/mmorpg/encyclopedie/ressources/377-epine-champ-champ
p2070
aV/fr/mmorpg/encyclopedie/ressources/378-sporme-champ-champ
p2071
aV/fr/mmorpg/encyclopedie/ressources/1687-teinture-magique-verdatre
p2072
aV/fr/mmorpg/encyclopedie/ressources/300-graine-pavot
p2073
aV/fr/mmorpg/encyclopedie/ressources/7447-rune-pi-per
p2074
aV/fr/mmorpg/encyclopedie/ressources/2583-oeil-crabe
p2075
aV/fr/mmorpg/encyclopedie/ressources/6903-plume-piou-rose
p2076
aV/fr/mmorpg/encyclopedie/ressources/366-bec-tofu
p2077
aV/fr/mmorpg/encyclopedie/ressources/373-tige-pissenlit-diabolique
p2078
aV/fr/mmorpg/encyclopedie/ressources/367-oeuf-tofu
p2079
aV/fr/mmorpg/encyclopedie/ressources/374-langue-pissenlit-diabolique
p2080
aV/fr/mmorpg/encyclopedie/ressources/306-fleur-pissenlit-diabolique
p2081
aV/fr/mmorpg/encyclopedie/ressources/2665-herbe-folle
p2082
aV/fr/mmorpg/encyclopedie/ressources/379-pince-crabe
p2083
aV/fr/mmorpg/encyclopedie/ressources/2302-langue-crabe
p2084
aV/fr/mmorpg/encyclopedie/ressources/301-plumes-tofu
p2085
aV/fr/mmorpg/encyclopedie/ressources/642-cocon-ver-soie
p2086
aV/fr/mmorpg/encyclopedie/ressources/2303-carapace-vide-crabe
p2087
aV/fr/mmorpg/encyclopedie/ressources/6902-plume-piou-jaune
p2088
aV/fr/mmorpg/encyclopedie/ressources/371-sourcil-moskito
p2089
aV/fr/mmorpg/encyclopedie/ressources/643-fil-soie
p2090
aV/fr/mmorpg/encyclopedie/ressources/883-cuir-boufton-blanc
p2091
aV/fr/mmorpg/encyclopedie/ressources/1673-patte-arakne-magique
p2092
aV/fr/mmorpg/encyclopedie/ressources/365-patte-arakne
p2093
aV/fr/mmorpg/encyclopedie/ressources/884-cuir-boufton-noir
p2094
aV/fr/mmorpg/encyclopedie/ressources/885-laine-boufton-noir
p2095
aV/fr/mmorpg/encyclopedie/ressources/2460-oeil-boufton
p2096
aV/fr/mmorpg/encyclopedie/ressources/6897-plume-piou-bleu
p2097
aV/fr/mmorpg/encyclopedie/ressources/6898-plume-piou-violet
p2098
aV/fr/mmorpg/encyclopedie/ressources/2663-engrais
p2099
aV/fr/mmorpg/encyclopedie/ressources/6899-plume-piou-vert
p2100
aV/fr/mmorpg/encyclopedie/ressources/307-ailes-moskito
p2101
aV/fr/mmorpg/encyclopedie/ressources/16973-petunia-mineure
p2102
aV/fr/mmorpg/encyclopedie/ressources/385-bave-bouftou
p2103
aV/fr/mmorpg/encyclopedie/ressources/362-peau-larve-bleue
p2104
aV/fr/mmorpg/encyclopedie/ressources/881-laine-boufton-blanc
p2105
aV/fr/mmorpg/encyclopedie/ressources/6900-plume-piou-rouge
p2106
aV/fr/mmorpg/encyclopedie/ressources/389-huile-tournesol-sauvage
p2107
aV/fr/mmorpg/encyclopedie/ressources/1683-sac-patates-clair
p2108
aV/fr/mmorpg/encyclopedie/ressources/1684-sac-patates-sombre
p2109
aV/fr/mmorpg/encyclopedie/ressources/16525-crane-kardorim
p2110
aV/fr/mmorpg/encyclopedie/ressources/2318-patte-ours
p2111
aV/fr/mmorpg/encyclopedie/ressources/12178-fantome-tofuem
p2112
aV/fr/mmorpg/encyclopedie/ressources/12976-fantome-tofu-givre
p2113
aV/fr/mmorpg/encyclopedie/ressources/12983-fantome-sourisette
p2114
aV/fr/mmorpg/encyclopedie/ressources/13001-fantome-meulourd
p2115
aV/fr/mmorpg/encyclopedie/ressources/15470-fantome-homlett
p2116
aV/fr/mmorpg/encyclopedie/ressources/7549-fantome-dragoune-rose
p2117
aV/fr/mmorpg/encyclopedie/ressources/7727-fantome-pioute-jaune
p2118
aV/fr/mmorpg/encyclopedie/ressources/8016-fantome-koalak-sanguin
p2119
aV/fr/mmorpg/encyclopedie/ressources/8706-fantome-feanor
p2120
aV/fr/mmorpg/encyclopedie/ressources/10057-rune-chasse
p2121
aV/fr/mmorpg/encyclopedie/ressources/427-graine-chanvre
p2122
aV/fr/mmorpg/encyclopedie/ressources/1851-brochet-tupe-halett-vide
p2123
aV/fr/mmorpg/encyclopedie/ressources/17421-bidoche-intangible
p2124
aV/fr/mmorpg/encyclopedie/ressources/598-greuvette
p2125
aV/fr/mmorpg/encyclopedie/ressources/16296-fantome-moumoute
p2126
aV/fr/mmorpg/encyclopedie/ressources/10870-fantome-pykur
p2127
aV/fr/mmorpg/encyclopedie/ressources/11020-fantome-gupin
p2128
aV/fr/mmorpg/encyclopedie/ressources/11772-fantome-medugivre
p2129
aV/fr/mmorpg/encyclopedie/ressources/11859-fantome-gwo-tofu-ventripotent
p2130
aV/fr/mmorpg/encyclopedie/ressources/12542-fantome-dragouf
p2131
aV/fr/mmorpg/encyclopedie/ressources/13608-poils-kerubim
p2132
aV/fr/mmorpg/encyclopedie/ressources/14834-fantome-siroko
p2133
aV/fr/mmorpg/encyclopedie/ressources/15255-fantome-phortiche
p2134
aV/fr/mmorpg/encyclopedie/ressources/7540-fantome-bwak-eau
p2135
aV/fr/mmorpg/encyclopedie/ressources/7728-fantome-pioute-rose
p2136
aV/fr/mmorpg/encyclopedie/ressources/8017-fantome-bworky
p2137
aV/fr/mmorpg/encyclopedie/ressources/8682-peau-mob-eponge
p2138
aV/fr/mmorpg/encyclopedie/ressources/9616-fantome-marcassin
p2139
aV/fr/mmorpg/encyclopedie/ressources/9661-fantome-chacha-angora
p2140
aV/fr/mmorpg/encyclopedie/ressources/9786-fantome-shushu-rushu
p2141
aV/fr/mmorpg/encyclopedie/ressources/11766-fantome-cromeugnon
p2142
aV/fr/mmorpg/encyclopedie/ressources/13072-fantome-mekrabe
p2143
aV/fr/mmorpg/encyclopedie/ressources/13476-fantome-sakochere
p2144
aV/fr/mmorpg/encyclopedie/ressources/14828-fantome-kwaltess
p2145
aV/fr/mmorpg/encyclopedie/ressources/15263-rose-sables
p2146
aV/fr/mmorpg/encyclopedie/ressources/7541-fantome-bwak-air
p2147
aV/fr/mmorpg/encyclopedie/ressources/7729-fantome-pioute-rouge
p2148
aV/fr/mmorpg/encyclopedie/ressources/8171-fantome-abra-kadabra
p2149
aV/fr/mmorpg/encyclopedie/ressources/8885-fantome-chacha-tigre
p2150
aV/fr/mmorpg/encyclopedie/ressources/17005-fantome-gerbouille
p2151
aV/fr/mmorpg/encyclopedie/ressources/17029-fantome-brakarien
p2152
aV/fr/mmorpg/encyclopedie/ressources/7542-fantome-bwak-terre
p2153
aV/fr/mmorpg/encyclopedie/ressources/8172-fantome-bouloute
p2154
aV/fr/mmorpg/encyclopedie/ressources/1551-rune-ra-fo
p2155
aV/fr/mmorpg/encyclopedie/ressources/12126-fantome-phenix
p2156
aV/fr/mmorpg/encyclopedie/ressources/13662-fantome-kafarce
p2157
aV/fr/mmorpg/encyclopedie/ressources/15271-tourmaline
p2158
aV/fr/mmorpg/encyclopedie/ressources/17037-essence-kardorim
p2159
aV/fr/mmorpg/encyclopedie/ressources/9664-fantome-tiwabbit-kiafin
p2160
aV/fr/mmorpg/encyclopedie/ressources/9671-fantome-crocodaille
p2161
aV/fr/mmorpg/encyclopedie/ressources/11016-fantome-tifoux-tigre
p2162
aV/fr/mmorpg/encyclopedie/ressources/12134-fantome-serpete
p2163
aV/fr/mmorpg/encyclopedie/ressources/7536-fantome-chienchien
p2164
aV/fr/mmorpg/encyclopedie/ressources/7543-fantome-kouin-kouin
p2165
aV/fr/mmorpg/encyclopedie/ressources/7550-fantome-croum
p2166
aV/fr/mmorpg/encyclopedie/ressources/7721-fantome-vilain-petit-corbac
p2167
aV/fr/mmorpg/encyclopedie/ressources/8173-fantome-scarador
p2168
aV/fr/mmorpg/encyclopedie/ressources/15979-fantome-blokus
p2169
aV/fr/mmorpg/encyclopedie/ressources/1848-brochet-vide
p2170
aV/fr/mmorpg/encyclopedie/ressources/6868-planche-chataignier
p2171
aV/fr/mmorpg/encyclopedie/ressources/7450-rune-ra-ini
p2172
aV/fr/mmorpg/encyclopedie/ressources/7537-fantome-chacha
p2173
aV/fr/mmorpg/encyclopedie/ressources/7544-fantome-nomoon
p2174
aV/fr/mmorpg/encyclopedie/ressources/7551-fantome-minimino
p2175
aV/fr/mmorpg/encyclopedie/ressources/7722-fantome-ecureuil-chenapan
p2176
aV/fr/mmorpg/encyclopedie/ressources/1553-rune-ra-ine
p2177
aV/fr/mmorpg/encyclopedie/ressources/1692-teinture-magique-sombre
p2178
aV/fr/mmorpg/encyclopedie/ressources/1786-greuvette-horreur
p2179
aV/fr/mmorpg/encyclopedie/ressources/8143-clef-champs
p2180
aV/fr/mmorpg/encyclopedie/ressources/8174-fantome-tifoux
p2181
aV/fr/mmorpg/encyclopedie/ressources/8679-fantome-ross
p2182
aV/fr/mmorpg/encyclopedie/ressources/9595-fantome-bouloute-parrain
p2183
aV/fr/mmorpg/encyclopedie/ressources/9665-fantome-miniminotot
p2184
aV/fr/mmorpg/encyclopedie/ressources/10108-fantome-vampyrette
p2185
aV/fr/mmorpg/encyclopedie/ressources/10658-fantome-chercheur-ogrines
p2186
aV/fr/mmorpg/encyclopedie/ressources/10867-fantome-raknaille
p2187
aV/fr/mmorpg/encyclopedie/ressources/11017-fantome-chienchien-tigre
p2188
aV/fr/mmorpg/encyclopedie/ressources/12010-fantome-platypus
p2189
aV/fr/mmorpg/encyclopedie/ressources/12964-fantome-hurledent
p2190
aV/fr/mmorpg/encyclopedie/ressources/12995-fantome-rauleur
p2191
aV/fr/mmorpg/encyclopedie/ressources/13183-fantome-kramkram
p2192
aV/fr/mmorpg/encyclopedie/ressources/14434-fantome-boskito
p2193
aV/fr/mmorpg/encyclopedie/ressources/15134-fantome-black-tiwabbit
p2194
aV/fr/mmorpg/encyclopedie/ressources/15608-fantome-tatouf
p2195
aV/fr/mmorpg/encyclopedie/ressources/17123-viande-hachee
p2196
aV/fr/mmorpg/encyclopedie/ressources/10109-fantome-chauffe-souris
p2197
aV/fr/mmorpg/encyclopedie/ressources/10868-fantome-meuch
p2198
aV/fr/mmorpg/encyclopedie/ressources/11018-fantome-kouin-kouin-noir
p2199
aV/fr/mmorpg/encyclopedie/ressources/11784-fantome-givrefoux
p2200
aV/fr/mmorpg/encyclopedie/ressources/12989-fantome-scarakiri
p2201
aV/fr/mmorpg/encyclopedie/ressources/7538-fantome-wabbit
p2202
aV/fr/mmorpg/encyclopedie/ressources/7545-fantome-peki
p2203
aV/fr/mmorpg/encyclopedie/ressources/7723-fantome-leopardo
p2204
aV/fr/mmorpg/encyclopedie/ressources/7730-fantome-pioute-vert
p2205
aV/fr/mmorpg/encyclopedie/ressources/7893-fantome-mini-wa
p2206
aV/fr/mmorpg/encyclopedie/ressources/8524-fantome-walk
p2207
aV/fr/mmorpg/encyclopedie/ressources/9666-fantome-dragoune-noire
p2208
aV/fr/mmorpg/encyclopedie/ressources/7538-fantome-wabbit
p2209
aV/fr/mmorpg/encyclopedie/ressources/7545-fantome-peki
p2210
aV/fr/mmorpg/encyclopedie/ressources/7723-fantome-leopardo
p2211
aV/fr/mmorpg/encyclopedie/ressources/7730-fantome-pioute-vert
p2212
aV/fr/mmorpg/encyclopedie/ressources/7893-fantome-mini-wa
p2213
aV/fr/mmorpg/encyclopedie/ressources/8524-fantome-walk
p2214
aV/fr/mmorpg/encyclopedie/ressources/9666-fantome-dragoune-noire
p2215
aV/fr/mmorpg/encyclopedie/ressources/10597-fantome-gelutin
p2216
aV/fr/mmorpg/encyclopedie/ressources/10807-fantome-dragoune-doree
p2217
aV/fr/mmorpg/encyclopedie/ressources/10869-fantome-tofoudre
p2218
aV/fr/mmorpg/encyclopedie/ressources/11019-fantome-chauffe-souris-delavee
p2219
aV/fr/mmorpg/encyclopedie/ressources/11778-fantome-ecumouth
p2220
aV/fr/mmorpg/encyclopedie/ressources/13231-fantome-krolimea
p2221
aV/fr/mmorpg/encyclopedie/ressources/13604-fantome-balafreux
p2222
aV/fr/mmorpg/encyclopedie/ressources/13680-fantome-toukancre
p2223
aV/fr/mmorpg/encyclopedie/ressources/15244-fantome-phorror
p2224
aV/fr/mmorpg/encyclopedie/ressources/7445-rune-ra-pod
p2225
aV/fr/mmorpg/encyclopedie/ressources/7539-fantome-bwak-feu
p2226
aV/fr/mmorpg/encyclopedie/ressources/7546-fantome-petit-chacha-blanc
p2227
aV/fr/mmorpg/encyclopedie/ressources/7724-fantome-bilby
p2228
aV/fr/mmorpg/encyclopedie/ressources/7731-fantome-pioute-violet
p2229
aV/fr/mmorpg/encyclopedie/ressources/7894-fantome-willy-relou
p2230
aV/fr/mmorpg/encyclopedie/ressources/8020-fantome-atouin
p2231
aV/fr/mmorpg/encyclopedie/ressources/1555-rune-ra-age
p2232
aV/fr/mmorpg/encyclopedie/ressources/1795-carpe-iem-videe
p2233
aV/fr/mmorpg/encyclopedie/ressources/15903-fragment-carte-fouduglen-2-2
p2234
aV/fr/mmorpg/encyclopedie/ressources/16487-bois-vermoulu
p2235
aV/fr/mmorpg/encyclopedie/ressources/17024-fantome-bontique
p2236
aV/fr/mmorpg/encyclopedie/ressources/17512-fantome-minikrone
p2237
aV/fr/mmorpg/encyclopedie/ressources/13100-fantome-ploup
p2238
aV/fr/mmorpg/encyclopedie/ressources/13674-fantome-kokulte
p2239
aV/fr/mmorpg/encyclopedie/ressources/14646-essence-mob-eponge
p2240
aV/fr/mmorpg/encyclopedie/ressources/14855-fantome-brulih
p2241
aV/fr/mmorpg/encyclopedie/ressources/7547-fantome-petit-chienchien-noir
p2242
aV/fr/mmorpg/encyclopedie/ressources/7725-fantome-marcassin
p2243
aV/fr/mmorpg/encyclopedie/ressources/1556-rune-ra-cha
p2244
aV/fr/mmorpg/encyclopedie/ressources/15904-carte-fouduglen
p2245
aV/fr/mmorpg/encyclopedie/ressources/16123-fantome-drakopin
p2246
aV/fr/mmorpg/encyclopedie/ressources/17380-fantome-titard
p2247
aV/fr/mmorpg/encyclopedie/ressources/7548-fantome-fotome
p2248
aV/fr/mmorpg/encyclopedie/ressources/7726-fantome-pioute-bleu
p2249
aV/fr/mmorpg/encyclopedie/ressources/1463-fiole-element
p2250
aV/fr/mmorpg/encyclopedie/ressources/1797-carpette-sables-videe
p2251
aV/fr/mmorpg/encyclopedie/ressources/8565-fantome-bebe-pandawa
p2252
aV/fr/mmorpg/encyclopedie/ressources/10986-fantome-chacha-glaces
p2253
aV/fr/mmorpg/encyclopedie/ressources/11105-fantome-kouin-kouin-ameliore
p2254
aV/fr/mmorpg/encyclopedie/ressources/13668-fantome-bulbouture
p2255
aV/fr/mmorpg/encyclopedie/ressources/14546-fantome-fosfo
p2256
aV/fr/mmorpg/encyclopedie/ressources/14849-fantome-kompost
p2257
aV/fr/mmorpg/encyclopedie/ressources/16117-fantome-eliome
p2258
aV/fr/mmorpg/encyclopedie/ressources/16270-fantome-tanuk
p2259
aV/fr/mmorpg/encyclopedie/ressources/2283-oeil-kwoan
p2260
aV/fr/mmorpg/encyclopedie/ressources/16526-tete-marteau-jade
p2261
aV/fr/mmorpg/encyclopedie/ressources/16666-nyoro-mineure
p2262
aV/fr/mmorpg/encyclopedie/ressources/7449-rune-pa-ini
p2263
aV/fr/mmorpg/encyclopedie/ressources/310-os-chafer
p2264
aV/fr/mmorpg/encyclopedie/ressources/1550-rune-pa-cha
p2265
aV/fr/mmorpg/encyclopedie/ressources/1545-rune-pa-fo
p2266
aV/fr/mmorpg/encyclopedie/ressources/16523-volve-aminite
p2267
aV/fr/mmorpg/encyclopedie/ressources/16524-relique-incarnam
p2268
aV/fr/mmorpg/encyclopedie/ressources/1547-rune-pa-ine
p2269
aV/fr/mmorpg/encyclopedie/ressources/7444-rune-pa-pod
p2270
aV/fr/mmorpg/encyclopedie/ressources/1548-rune-pa-vi
p2271
aV/fr/mmorpg/encyclopedie/ressources/1549-rune-pa-age
p2272
aV/fr/mmorpg/encyclopedie/ressources/16515-queue-chapardam
p2273
aV/fr/mmorpg/encyclopedie/ressources/16851-bihilete-mineure
p2274
aV/fr/mmorpg/encyclopedie/ressources/16511-laine-celeste
p2275
aV/fr/mmorpg/encyclopedie/ressources/16513-petale-diaphane
p2276
aV/fr/mmorpg/encyclopedie/ressources/16522-peau-gloot
p2277
aV/fr/mmorpg/encyclopedie/ressources/7220-ticket-loterie
p2278
aV/fr/mmorpg/encyclopedie/ressources/10716-hormone-atouin
p2279
aV/fr/mmorpg/encyclopedie/ressources/10723-hormone-chacha-tigre
p2280
aV/fr/mmorpg/encyclopedie/ressources/10730-hormone-mini-wa
p2281
aV/fr/mmorpg/encyclopedie/ressources/10747-hormone-gelutin
p2282
aV/fr/mmorpg/encyclopedie/ressources/10879-hormone-raknaille
p2283
aV/fr/mmorpg/encyclopedie/ressources/11562-pierre-air
p2284
aV/fr/mmorpg/encyclopedie/ressources/12899-emballage-mariage
p2285
aV/fr/mmorpg/encyclopedie/ressources/12907-emballage-amour
p2286
aV/fr/mmorpg/encyclopedie/ressources/12914-emballage-surprise
p2287
aV/fr/mmorpg/encyclopedie/ressources/13683-hormone-toukancre
p2288
aV/fr/mmorpg/encyclopedie/ressources/15610-hormone-tatouf
p2289
aV/fr/mmorpg/encyclopedie/ressources/6616-peluche-dopeul-xelor
p2290
aV/fr/mmorpg/encyclopedie/ressources/7222-artefact-pandawushu-eau
p2291
aV/fr/mmorpg/encyclopedie/ressources/7448-rune-ini
p2292
aV/fr/mmorpg/encyclopedie/ressources/9088-crane-pandawa
p2293
aV/fr/mmorpg/encyclopedie/ressources/287-graine-sesame
p2294
aV/fr/mmorpg/encyclopedie/ressources/535-farine-houblon
p2295
aV/fr/mmorpg/encyclopedie/ressources/1022-ailes-cassees
p2296
aV/fr/mmorpg/encyclopedie/ressources/1325-coque-noix
p2297
aV/fr/mmorpg/encyclopedie/ressources/1332-vieux-trefle-4-feuilles
p2298
aV/fr/mmorpg/encyclopedie/ressources/1510-bon-10000-kek
p2299
aV/fr/mmorpg/encyclopedie/ressources/1527-metaria-bleue
p2300
aV/fr/mmorpg/encyclopedie/ressources/1534-metaria-triame-jaune
p2301
aV/fr/mmorpg/encyclopedie/ressources/1736-citron
p2302
aV/fr/mmorpg/encyclopedie/ressources/1781-greuvette-videe
p2303
aV/fr/mmorpg/encyclopedie/ressources/1976-truite-ancestrale-videe
p2304
aV/fr/mmorpg/encyclopedie/ressources/2018-ble
p2305
aV/fr/mmorpg/encyclopedie/ressources/16358-dynamo-mineure
p2306
aV/fr/mmorpg/encyclopedie/ressources/16512-plume-chimerique
p2307
aV/fr/mmorpg/encyclopedie/ressources/16909-seve-frene
p2308
aV/fr/mmorpg/encyclopedie/ressources/17382-hormone-titard
p2309
aV/fr/mmorpg/encyclopedie/ressources/17546-hormone-croum
p2310
aV/fr/mmorpg/encyclopedie/ressources/17553-pierre-aiguiser
p2311
aV/fr/mmorpg/encyclopedie/ressources/10717-hormone-bebe-pandawa
p2312
aV/fr/mmorpg/encyclopedie/ressources/10724-hormone-crocodaille
p2313
aV/fr/mmorpg/encyclopedie/ressources/10731-hormone-nomoon
p2314
aV/fr/mmorpg/encyclopedie/ressources/10748-hormone-shushu-rushu
p2315
aV/fr/mmorpg/encyclopedie/ressources/12845-flocon-neige
p2316
aV/fr/mmorpg/encyclopedie/ressources/12876-blague-glutine
p2317
aV/fr/mmorpg/encyclopedie/ressources/12908-emballage-amitie
p2318
aV/fr/mmorpg/encyclopedie/ressources/13103-hormone-ploup
p2319
aV/fr/mmorpg/encyclopedie/ressources/6617-peluche-sanglier
p2320
aV/fr/mmorpg/encyclopedie/ressources/6624-peluche-dragon-cochon
p2321
aV/fr/mmorpg/encyclopedie/ressources/6648-ballon-rouge
p2322
aV/fr/mmorpg/encyclopedie/ressources/6770-sousouris
p2323
aV/fr/mmorpg/encyclopedie/ressources/7223-artefact-pandawushu-air
p2324
aV/fr/mmorpg/encyclopedie/ressources/8310-gelee-degelee
p2325
aV/fr/mmorpg/encyclopedie/ressources/13677-hormone-kokulte
p2326
aV/fr/mmorpg/encyclopedie/ressources/16126-hormone-drakopin
p2327
aV/fr/mmorpg/encyclopedie/ressources/16272-hormone-tanuk
p2328
aV/fr/mmorpg/encyclopedie/ressources/303-bois-frene
p2329
aV/fr/mmorpg/encyclopedie/ressources/459-planche-frene
p2330
aV/fr/mmorpg/encyclopedie/ressources/529-farine-orge
p2331
aV/fr/mmorpg/encyclopedie/ressources/1023-bouteille-rhum
p2332
aV/fr/mmorpg/encyclopedie/ressources/1326-silex-sanglant
p2333
aV/fr/mmorpg/encyclopedie/ressources/1528-metaria-jaune
p2334
aV/fr/mmorpg/encyclopedie/ressources/1535-metaria-mage-rouge
p2335
aV/fr/mmorpg/encyclopedie/ressources/1751-poisson-pane-vide
p2336
aV/fr/mmorpg/encyclopedie/ressources/1782-goujon
p2337
aV/fr/mmorpg/encyclopedie/ressources/1845-truite-videe
p2338
aV/fr/mmorpg/encyclopedie/ressources/1977-epices
p2339
aV/fr/mmorpg/encyclopedie/ressources/1984-cendres-eternelles
p2340
aV/fr/mmorpg/encyclopedie/ressources/2019-farine-ble-magique
p2341
aV/fr/mmorpg/encyclopedie/ressources/2033-farine-orge-sucre
p2342
aV/fr/mmorpg/encyclopedie/ressources/2329-poire
p2343
aV/fr/mmorpg/encyclopedie/ressources/2538-potion-metal-lourd-liquide
p2344
aV/fr/mmorpg/encyclopedie/ressources/17547-hormone-dragoune
p2345
aV/fr/mmorpg/encyclopedie/ressources/17701-fantome-chaperlipopette
p2346
aV/fr/mmorpg/encyclopedie/ressources/12909-emballage-fraternite
p2347
aV/fr/mmorpg/encyclopedie/ressources/12992-hormone-scarakiri
p2348
aV/fr/mmorpg/encyclopedie/ressources/13274-crane-steamer
p2349
aV/fr/mmorpg/encyclopedie/ressources/14549-hormone-fosfo
p2350
aV/fr/mmorpg/encyclopedie/ressources/15472-hormone-homlett
p2351
aV/fr/mmorpg/encyclopedie/ressources/8520-gratrooll
p2352
aV/fr/mmorpg/encyclopedie/ressources/9080-crane-sram
p2353
aV/fr/mmorpg/encyclopedie/ressources/10718-hormone-bilby
p2354
aV/fr/mmorpg/encyclopedie/ressources/10725-hormone-ecureuil-chenapan
p2355
aV/fr/mmorpg/encyclopedie/ressources/10732-hormone-peki
p2356
aV/fr/mmorpg/encyclopedie/ressources/10749-hormone-vampyrette
p2357
aV/fr/mmorpg/encyclopedie/ressources/1783-goujon-vide
p2358
aV/fr/mmorpg/encyclopedie/ressources/1790-goujon-kiye
p2359
aV/fr/mmorpg/encyclopedie/ressources/1978-mesure-poivre
p2360
aV/fr/mmorpg/encyclopedie/ressources/2027-farine-lin-magique
p2361
aV/fr/mmorpg/encyclopedie/ressources/6601-poudre-artifice
p2362
aV/fr/mmorpg/encyclopedie/ressources/6618-peluche-tofu
p2363
aV/fr/mmorpg/encyclopedie/ressources/6625-bilboquet-maitre-corbac
p2364
aV/fr/mmorpg/encyclopedie/ressources/6649-ballon-bleu
p2365
aV/fr/mmorpg/encyclopedie/ressources/7224-artefact-pandawushu-terre
p2366
aV/fr/mmorpg/encyclopedie/ressources/289-ble
p2367
aV/fr/mmorpg/encyclopedie/ressources/311-eau-potable
p2368
aV/fr/mmorpg/encyclopedie/ressources/537-pomme-terre
p2369
aV/fr/mmorpg/encyclopedie/ressources/690-farine-lin
p2370
aV/fr/mmorpg/encyclopedie/ressources/1086-peinture-noire
p2371
aV/fr/mmorpg/encyclopedie/ressources/1327-os-taille
p2372
aV/fr/mmorpg/encyclopedie/ressources/1334-blague-soufre
p2373
aV/fr/mmorpg/encyclopedie/ressources/1428-immortelle
p2374
aV/fr/mmorpg/encyclopedie/ressources/1459-tube-longiforme
p2375
aV/fr/mmorpg/encyclopedie/ressources/1529-metaria-verte
p2376
aV/fr/mmorpg/encyclopedie/ressources/1536-metaria-mage-bleue
p2377
aV/fr/mmorpg/encyclopedie/ressources/17548-hormone-tifoux
p2378
aV/fr/mmorpg/encyclopedie/ressources/17834-fantome-titcham
p2379
aV/fr/mmorpg/encyclopedie/ressources/312-fer
p2380
aV/fr/mmorpg/encyclopedie/ressources/420-ficelle-lin
p2381
aV/fr/mmorpg/encyclopedie/ressources/538-pommes-terre-epluchees
p2382
aV/fr/mmorpg/encyclopedie/ressources/761-poils-souris
p2383
aV/fr/mmorpg/encyclopedie/ressources/1328-kama-enigmatique
p2384
aV/fr/mmorpg/encyclopedie/ressources/1506-symbole-etrange
p2385
aV/fr/mmorpg/encyclopedie/ressources/1537-metaria-mage-verte
p2386
aV/fr/mmorpg/encyclopedie/ressources/1760-crabe-sourimi-exotique-vide
p2387
aV/fr/mmorpg/encyclopedie/ressources/1791-goujon-kiye-vide
p2388
aV/fr/mmorpg/encyclopedie/ressources/1986-poudre-temporelle
p2389
aV/fr/mmorpg/encyclopedie/ressources/15257-hormone-phortiche
p2390
aV/fr/mmorpg/encyclopedie/ressources/16298-hormone-moumoute
p2391
aV/fr/mmorpg/encyclopedie/ressources/17549-hormone-bouloute
p2392
aV/fr/mmorpg/encyclopedie/ressources/17703-hormone-chaperlipopette
p2393
aV/fr/mmorpg/encyclopedie/ressources/17796-fantome-tirubim
p2394
aV/fr/mmorpg/encyclopedie/ressources/10719-hormone-bwak
p2395
aV/fr/mmorpg/encyclopedie/ressources/10726-hormone-feanor
p2396
aV/fr/mmorpg/encyclopedie/ressources/10733-hormone-petit-chacha-blanc
p2397
aV/fr/mmorpg/encyclopedie/ressources/10740-hormone-willy-relou
p2398
aV/fr/mmorpg/encyclopedie/ressources/10810-hormone-chercheur-ogrines
p2399
aV/fr/mmorpg/encyclopedie/ressources/11781-hormone-ecumouth
p2400
aV/fr/mmorpg/encyclopedie/ressources/10810-hormone-chercheur-ogrines
p2401
aV/fr/mmorpg/encyclopedie/ressources/11781-hormone-ecumouth
p2402
aV/fr/mmorpg/encyclopedie/ressources/12544-hormone-dragouf
p2403
aV/fr/mmorpg/encyclopedie/ressources/12582-pierre-noire-vulkania
p2404
aV/fr/mmorpg/encyclopedie/ressources/12900-emballage-anniversaire
p2405
aV/fr/mmorpg/encyclopedie/ressources/12979-hormone-tofu-givre
p2406
aV/fr/mmorpg/encyclopedie/ressources/12986-hormone-sourisette
p2407
aV/fr/mmorpg/encyclopedie/ressources/13004-hormone-meulourd
p2408
aV/fr/mmorpg/encyclopedie/ressources/13477-hormone-sakochere
p2409
aV/fr/mmorpg/encyclopedie/ressources/15257-hormone-phortiche
p2410
aV/fr/mmorpg/encyclopedie/ressources/16298-hormone-moumoute
p2411
aV/fr/mmorpg/encyclopedie/ressources/17549-hormone-bouloute
p2412
aV/fr/mmorpg/encyclopedie/ressources/17703-hormone-chaperlipopette
p2413
aV/fr/mmorpg/encyclopedie/ressources/17796-fantome-tirubim
p2414
aV/fr/mmorpg/encyclopedie/ressources/10563-orbe-reconstituant
p2415
aV/fr/mmorpg/encyclopedie/ressources/10727-hormone-koalak-sanguin
p2416
aV/fr/mmorpg/encyclopedie/ressources/10734-hormone-petit-chienchien-noir
p2417
aV/fr/mmorpg/encyclopedie/ressources/10741-hormone-marcassin
p2418
aV/fr/mmorpg/encyclopedie/ressources/10835-cachet-bizut
p2419
aV/fr/mmorpg/encyclopedie/ressources/10880-hormone-meuch
p2420
aV/fr/mmorpg/encyclopedie/ressources/11009-hormone-chacha-glaces
p2421
aV/fr/mmorpg/encyclopedie/ressources/11559-pierre-feu
p2422
aV/fr/mmorpg/encyclopedie/ressources/11775-hormone-medugivre
p2423
aV/fr/mmorpg/encyclopedie/ressources/12242-crane-roublard
p2424
aV/fr/mmorpg/encyclopedie/ressources/12583-koeur-plastique
p2425
aV/fr/mmorpg/encyclopedie/ressources/6603-peluche-bouftou
p2426
aV/fr/mmorpg/encyclopedie/ressources/6610-peluche-dopeul-sram
p2427
aV/fr/mmorpg/encyclopedie/ressources/6658-peluche-mulou
p2428
aV/fr/mmorpg/encyclopedie/ressources/7923-peluche-dopeul-pandawa
p2429
aV/fr/mmorpg/encyclopedie/ressources/8250-poil-renarbo
p2430
aV/fr/mmorpg/encyclopedie/ressources/8546-peau-milimilou
p2431
aV/fr/mmorpg/encyclopedie/ressources/9082-crane-ecaflip
p2432
aV/fr/mmorpg/encyclopedie/ressources/14635-pepite
p2433
aV/fr/mmorpg/encyclopedie/ressources/14921-etoffe-mysterieuse
p2434
aV/fr/mmorpg/encyclopedie/ressources/17836-hormone-titcham
p2435
aV/fr/mmorpg/encyclopedie/ressources/399-huile-sesame
p2436
aV/fr/mmorpg/encyclopedie/ressources/421-ortie
p2437
aV/fr/mmorpg/encyclopedie/ressources/1329-bois-elastique
p2438
aV/fr/mmorpg/encyclopedie/ressources/1336-urtica
p2439
aV/fr/mmorpg/encyclopedie/ressources/1468-bocal
p2440
aV/fr/mmorpg/encyclopedie/ressources/1507-bon-1000-kek
p2441
aV/fr/mmorpg/encyclopedie/ressources/1538-metaria-mage-jaune
p2442
aV/fr/mmorpg/encyclopedie/ressources/1709-nonos
p2443
aV/fr/mmorpg/encyclopedie/ressources/1730-mesure-sel
p2444
aV/fr/mmorpg/encyclopedie/ressources/1761-poisson-chaton-vide
p2445
aV/fr/mmorpg/encyclopedie/ressources/6611-peluche-dopeul-eniripsa
p2446
aV/fr/mmorpg/encyclopedie/ressources/6659-faux-koinkoin
p2447
aV/fr/mmorpg/encyclopedie/ressources/7443-rune-pod
p2448
aV/fr/mmorpg/encyclopedie/ressources/422-graine-lin
p2449
aV/fr/mmorpg/encyclopedie/ressources/1089-ticket-ile-moon
p2450
aV/fr/mmorpg/encyclopedie/ressources/1344-verveine
p2451
aV/fr/mmorpg/encyclopedie/ressources/1508-bon-2000-kek
p2452
aV/fr/mmorpg/encyclopedie/ressources/1522-rune-ine
p2453
aV/fr/mmorpg/encyclopedie/ressources/1731-dose-jus-goutu
p2454
aV/fr/mmorpg/encyclopedie/ressources/1755-poisson-igloo-vide
p2455
aV/fr/mmorpg/encyclopedie/ressources/2037-farine-avoine-aurifere
p2456
aV/fr/mmorpg/encyclopedie/ressources/2114-aliment-inconnu
p2457
aV/fr/mmorpg/encyclopedie/ressources/2239-poudre-eniripsa
p2458
aV/fr/mmorpg/encyclopedie/ressources/9083-crane-eniripsa
p2459
aV/fr/mmorpg/encyclopedie/ressources/10728-hormone-kouin-kouin
p2460
aV/fr/mmorpg/encyclopedie/ressources/10735-hormone-pioute
p2461
aV/fr/mmorpg/encyclopedie/ressources/10742-hormone-miniminotot
p2462
aV/fr/mmorpg/encyclopedie/ressources/10881-hormone-tofoudre
p2463
aV/fr/mmorpg/encyclopedie/ressources/11031-hormone-tifoux-tigre
p2464
aV/fr/mmorpg/encyclopedie/ressources/11769-hormone-cromeugnon
p2465
aV/fr/mmorpg/encyclopedie/ressources/12243-crane-zobal
p2466
aV/fr/mmorpg/encyclopedie/ressources/12584-relique-cimetiere-os-poses
p2467
aV/fr/mmorpg/encyclopedie/ressources/12902-emballage-excuses
p2468
aV/fr/mmorpg/encyclopedie/ressources/13075-hormone-mekrabe
p2469
aV/fr/mmorpg/encyclopedie/ressources/13671-hormone-bulbouture
p2470
aV/fr/mmorpg/encyclopedie/ressources/16120-hormone-eliome
p2471
aV/fr/mmorpg/encyclopedie/ressources/16663-viande-intangible
p2472
aV/fr/mmorpg/encyclopedie/ressources/17798-hormone-tirubim
p2473
aV/fr/mmorpg/encyclopedie/ressources/10729-hormone-leopardo
p2474
aV/fr/mmorpg/encyclopedie/ressources/10736-hormone-ross
p2475
aV/fr/mmorpg/encyclopedie/ressources/10743-hormone-tiwabbit-kiafin
p2476
aV/fr/mmorpg/encyclopedie/ressources/10882-hormone-pykur
p2477
aV/fr/mmorpg/encyclopedie/ressources/11032-hormone-chienchien-tigre
p2478
aV/fr/mmorpg/encyclopedie/ressources/12129-hormone-phenix
p2479
aV/fr/mmorpg/encyclopedie/ressources/12181-hormone-tofuem
p2480
aV/fr/mmorpg/encyclopedie/ressources/12585-conserve-vacancier
p2481
aV/fr/mmorpg/encyclopedie/ressources/12910-emballage-affection
p2482
aV/fr/mmorpg/encyclopedie/ressources/13665-hormone-kafarce
p2483
aV/fr/mmorpg/encyclopedie/ressources/6605-peluche-bouftou-royal
p2484
aV/fr/mmorpg/encyclopedie/ressources/6612-peluche-dopeul-enutrof
p2485
aV/fr/mmorpg/encyclopedie/ressources/6650-ballon-vert
p2486
aV/fr/mmorpg/encyclopedie/ressources/8012-poudre-resurrection
p2487
aV/fr/mmorpg/encyclopedie/ressources/8252-plume-corbac-apprivoise
p2488
aV/fr/mmorpg/encyclopedie/ressources/9077-crane-feca
p2489
aV/fr/mmorpg/encyclopedie/ressources/9084-crane-iop
p2490
aV/fr/mmorpg/encyclopedie/ressources/531-farine-avoine
p2491
aV/fr/mmorpg/encyclopedie/ressources/1460-grande-fiole
p2492
aV/fr/mmorpg/encyclopedie/ressources/1509-bon-5000-kek
p2493
aV/fr/mmorpg/encyclopedie/ressources/1523-rune-vi
p2494
aV/fr/mmorpg/encyclopedie/ressources/1732-bol
p2495
aV/fr/mmorpg/encyclopedie/ressources/1749-jeton-foire-trool
p2496
aV/fr/mmorpg/encyclopedie/ressources/1763-poisson-tigre-vide
p2497
aV/fr/mmorpg/encyclopedie/ressources/1787-greuvette-horreur-vide
p2498
aV/fr/mmorpg/encyclopedie/ressources/2324-pasteque
p2499
aV/fr/mmorpg/encyclopedie/ressources/2331-aubergine
p2500
aV/fr/mmorpg/encyclopedie/ressources/2401-carte-kwelsh
p2501
aV/fr/mmorpg/encyclopedie/ressources/16051-crane-eliotrope
p2502
aV/fr/mmorpg/encyclopedie/ressources/16378-ortie-roide
p2503
aV/fr/mmorpg/encyclopedie/ressources/16518-feu-interieur
p2504
aV/fr/mmorpg/encyclopedie/ressources/17441-crane-huppermage
p2505
aV/fr/mmorpg/encyclopedie/ressources/14436-hormone-boskito
p2506
aV/fr/mmorpg/encyclopedie/ressources/15136-hormone-black-tiwabbit
p2507
aV/fr/mmorpg/encyclopedie/ressources/17031-hormone-brakarien
p2508
aV/fr/mmorpg/encyclopedie/ressources/17550-hormone-fotome
p2509
aV/fr/mmorpg/encyclopedie/ressources/1339-clochettes
p2510
aV/fr/mmorpg/encyclopedie/ressources/1524-rune-age
p2511
aV/fr/mmorpg/encyclopedie/ressources/1531-metaria-triame-bleue
p2512
aV/fr/mmorpg/encyclopedie/ressources/1733-terrine
p2513
aV/fr/mmorpg/encyclopedie/ressources/1973-huile-frire
p2514
aV/fr/mmorpg/encyclopedie/ressources/2022-farine-houblon-magique
p2515
aV/fr/mmorpg/encyclopedie/ressources/2325-banane
p2516
aV/fr/mmorpg/encyclopedie/ressources/2541-potion-metal-precieux-liquide
p2517
aV/fr/mmorpg/encyclopedie/ressources/10720-hormone-bworky
p2518
aV/fr/mmorpg/encyclopedie/ressources/10737-hormone-vilain-petit-corbac
p2519
aV/fr/mmorpg/encyclopedie/ressources/11033-hormone-kouin-kouin-noir
p2520
aV/fr/mmorpg/encyclopedie/ressources/11475-eau-calme
p2521
aV/fr/mmorpg/encyclopedie/ressources/11862-hormone-gwo-tofu-ventripotent
p2522
aV/fr/mmorpg/encyclopedie/ressources/12137-hormone-serpete
p2523
aV/fr/mmorpg/encyclopedie/ressources/12586-cristal-vie-prosperite
p2524
aV/fr/mmorpg/encyclopedie/ressources/12904-emballage-felicitations
p2525
aV/fr/mmorpg/encyclopedie/ressources/12911-emballage-corruption
p2526
aV/fr/mmorpg/encyclopedie/ressources/6606-peluche-dopeul-sadida
p2527
aV/fr/mmorpg/encyclopedie/ressources/6613-peluche-dopeul-feca
p2528
aV/fr/mmorpg/encyclopedie/ressources/6620-peluche-prespic
p2529
aV/fr/mmorpg/encyclopedie/ressources/6651-ballon-jaune
p2530
aV/fr/mmorpg/encyclopedie/ressources/7919-jeton-maitre-jeu
p2531
aV/fr/mmorpg/encyclopedie/ressources/9078-crane-osamodas
p2532
aV/fr/mmorpg/encyclopedie/ressources/9085-crane-cra
p2533
aV/fr/mmorpg/encyclopedie/ressources/15113-hormone-chachyene
p2534
aV/fr/mmorpg/encyclopedie/ressources/15252-hormone-snouffle
p2535
aV/fr/mmorpg/encyclopedie/ressources/16279-hormone-bloalak
p2536
aV/fr/mmorpg/encyclopedie/ressources/16440-ferrite
p2537
aV/fr/mmorpg/encyclopedie/ressources/17544-hormone-scarador
p2538
aV/fr/mmorpg/encyclopedie/ressources/17551-hormone-abra-kadabra
p2539
aV/fr/mmorpg/encyclopedie/ressources/285-farine-ble
p2540
aV/fr/mmorpg/encyclopedie/ressources/519-poudre-perlinpainpain
p2541
aV/fr/mmorpg/encyclopedie/ressources/1020-casque-casse
p2542
aV/fr/mmorpg/encyclopedie/ressources/1525-rune-cha
p2543
aV/fr/mmorpg/encyclopedie/ressources/1532-metaria-triame-verte
p2544
aV/fr/mmorpg/encyclopedie/ressources/1734-cerise
p2545
aV/fr/mmorpg/encyclopedie/ressources/1758-crabe-sourimi-vide
p2546
aV/fr/mmorpg/encyclopedie/ressources/2030-farine-seigle-magique
p2547
aV/fr/mmorpg/encyclopedie/ressources/2326-orange
p2548
aV/fr/mmorpg/encyclopedie/ressources/10721-hormone-chacha
p2549
aV/fr/mmorpg/encyclopedie/ressources/10738-hormone-wabbit
p2550
aV/fr/mmorpg/encyclopedie/ressources/10745-hormone-dragoune-noire
p2551
aV/fr/mmorpg/encyclopedie/ressources/10808-hormone-dragoune-doree
p2552
aV/fr/mmorpg/encyclopedie/ressources/10909-pheromone-tofu
p2553
aV/fr/mmorpg/encyclopedie/ressources/11034-hormone-chauffe-souris-delavee
p2554
aV/fr/mmorpg/encyclopedie/ressources/11560-pierre-terre
p2555
aV/fr/mmorpg/encyclopedie/ressources/12013-hormone-platypus
p2556
aV/fr/mmorpg/encyclopedie/ressources/12587-figurine-krokille
p2557
aV/fr/mmorpg/encyclopedie/ressources/12912-emballage-tendresse
p2558
aV/fr/mmorpg/encyclopedie/ressources/12967-hormone-hurledent
p2559
aV/fr/mmorpg/encyclopedie/ressources/12998-hormone-rauleur
p2560
aV/fr/mmorpg/encyclopedie/ressources/6607-peluche-dopeul-ecaflip
p2561
aV/fr/mmorpg/encyclopedie/ressources/6614-peluche-dopeul-osamodas
p2562
aV/fr/mmorpg/encyclopedie/ressources/6621-peluche-wabbit
p2563
aV/fr/mmorpg/encyclopedie/ressources/6652-boule-neige-foire-trooll
p2564
aV/fr/mmorpg/encyclopedie/ressources/7903-feuille-kaliptus
p2565
aV/fr/mmorpg/encyclopedie/ressources/9079-crane-enutrof
p2566
aV/fr/mmorpg/encyclopedie/ressources/9086-crane-sadida
p2567
aV/fr/mmorpg/encyclopedie/ressources/286-levure-boulanger
p2568
aV/fr/mmorpg/encyclopedie/ressources/1324-herbe-chacha
p2569
aV/fr/mmorpg/encyclopedie/ressources/1519-rune-fo
p2570
aV/fr/mmorpg/encyclopedie/ressources/1526-metaria-rouge
p2571
aV/fr/mmorpg/encyclopedie/ressources/1533-metaria-triame-rouge
p2572
aV/fr/mmorpg/encyclopedie/ressources/1634-sphere-metarias
p2573
aV/fr/mmorpg/encyclopedie/ressources/1975-oignon
p2574
aV/fr/mmorpg/encyclopedie/ressources/2187-pichon-eud-compet
p2575
aV/fr/mmorpg/encyclopedie/ressources/2365-feuille-ronce-hestia
p2576
aV/fr/mmorpg/encyclopedie/ressources/2529-potion-metal-liquide
p2577
aV/fr/mmorpg/encyclopedie/ressources/15981-hormone-blokus
p2578
aV/fr/mmorpg/encyclopedie/ressources/16489-planche-agglomeree
p2579
aV/fr/mmorpg/encyclopedie/ressources/17026-hormone-bontique
p2580
aV/fr/mmorpg/encyclopedie/ressources/17514-hormone-minikrone
p2581
aV/fr/mmorpg/encyclopedie/ressources/17552-hormone-minimino
p2582
aV/fr/mmorpg/encyclopedie/ressources/10715-poudre-creatoune
p2583
aV/fr/mmorpg/encyclopedie/ressources/10722-hormone-chacha-angora
p2584
aV/fr/mmorpg/encyclopedie/ressources/10739-hormone-walk
p2585
aV/fr/mmorpg/encyclopedie/ressources/10746-hormone-bouloute-parrain
p2586
aV/fr/mmorpg/encyclopedie/ressources/11035-hormone-gupin
p2587
aV/fr/mmorpg/encyclopedie/ressources/11561-pierre-eau
p2588
aV/fr/mmorpg/encyclopedie/ressources/11787-hormone-givrefoux
p2589
aV/fr/mmorpg/encyclopedie/ressources/12913-emballage-boulduk
p2590
aV/fr/mmorpg/encyclopedie/ressources/13233-hormone-krolimea
p2591
aV/fr/mmorpg/encyclopedie/ressources/13606-hormone-balafreux
p2592
aV/fr/mmorpg/encyclopedie/ressources/6608-peluche-dopeul-iop
p2593
aV/fr/mmorpg/encyclopedie/ressources/6615-peluche-dopeul-cra
p2594
aV/fr/mmorpg/encyclopedie/ressources/6622-hochet-dark-vlad
p2595
aV/fr/mmorpg/encyclopedie/ressources/7904-fleur-kaliptus
p2596
aV/fr/mmorpg/encyclopedie/ressources/8712-bout-goldemort
p2597
aV/fr/mmorpg/encyclopedie/ressources/9087-crane-sacrieur
p2598
a.